Certificate:
    Data:
        Version: 3 (0x2)
        Serial Number: 256 (0x100)
    Signature Algorithm: bign-with-hbelt
        Issuer: CN=www.mydom_6291.com, O=My Dom, Inc., C=US, ST=Oregon, L=Portland
        Validity
            Not Before: Jan 22 05:57:30 2015 GMT
            Not After : Jan 22 05:57:30 2016 GMT
        Subject: C=US, ST=Oregon, O=My Dom, Inc., CN=www.mydom.com
        Subject Public Key Info:
            Public Key Algorithm: bign-pubkey
                Public key: 4F2961605CE14D98D06358F862398A2FFC24A9C2F61F8838A5CF16252951A5035858EC104CD6B10D0FA1F3D83823FCA53E7AC41637C6E883214B83C72F9C3E75
                Parameter set: bign-curve256v1
        X509v3 extensions:
            X509v3 Basic Constraints: 
                CA:FALSE
            Netscape Comment: 
                OpenSSL Generated Certificate
            X509v3 Subject Key Identifier: 
                41:C4:3C:74:F1:6A:BF:D4:6D:00:67:31:7F:A1:96:11:CF:42:4F:69
            X509v3 Authority Key Identifier: 
                keyid:E8:2D:D9:95:E8:F8:02:C5:D2:DE:FE:EA:DA:32:F4:6E:35:41:ED:EA

    Signature Algorithm: bign-with-hbelt
         41:d1:ff:97:4e:07:10:a0:fb:35:18:46:d0:53:8d:f9:20:7e:
         c4:d6:31:25:51:f8:ab:fc:21:90:9f:9c:9c:3e:8f:12:23:7d:
         67:85:d6:37:53:f4:0e:d7:da:c0:ac:20
-----BEGIN CERTIFICATE-----
MIICEDCCAcqgAwIBAgICAQAwDQYJKnAAAgAiZS0MBQAwZTEbMBkGA1UEAwwSd3d3
Lm15ZG9tXzYyOTEuY29tMRUwEwYDVQQKDAxNeSBEb20sIEluYy4xCzAJBgNVBAYT
AlVTMQ8wDQYDVQQIDAZPcmVnb24xETAPBgNVBAcMCFBvcnRsYW5kMB4XDTE1MDEy
MjA1NTczMFoXDTE2MDEyMjA1NTczMFowTTELMAkGA1UEBhMCVVMxDzANBgNVBAgM
Bk9yZWdvbjEVMBMGA1UECgwMTXkgRG9tLCBJbmMuMRYwFAYDVQQDDA13d3cubXlk
b20uY29tMF0wGAYKKnAAAgAiZS0CAQYKKnAAAgAiZS0DAQNBAE8pYWBc4U2Y0GNY
+GI5ii/8JKnC9h+IOKXPFiUpUaUDWFjsEEzWsQ0PofPYOCP8pT56xBY3xuiDIUuD
xy+cPnWjezB5MAkGA1UdEwQCMAAwLAYJYIZIAYb4QgENBB8WHU9wZW5TU0wgR2Vu
ZXJhdGVkIENlcnRpZmljYXRlMB0GA1UdDgQWBBRBxDx08Wq/1G0AZzF/oZYRz0JP
aTAfBgNVHSMEGDAWgBToLdmV6PgCxdLe/uraMvRuNUHt6jANBgkqcAACACJlLQwF
AAMxAEHR/5dOBxCg+zUYRtBTjfkgfsTWMSVR+Kv8IZCfnJw+jxIjfWeF1jdT9A7X
2sCsIA==
-----END CERTIFICATE-----
