Certificate:
    Data:
        Version: 3 (0x2)
        Serial Number: 257 (0x101)
    Signature Algorithm: bign-with-hbelt
        Issuer: CN=www.mydom_6773.com, O=My Dom, Inc., C=US, ST=Oregon, L=Portland
        Validity
            Not Before: Jan 22 06:19:34 2015 GMT
            Not After : Jan 22 06:19:34 2016 GMT
        Subject: C=US, ST=Oregon, O=My Dom, Inc., CN=www.mydom.com
        Subject Public Key Info:
            Public Key Algorithm: bign-pubkey
                Public key: BD18C58A224483491731380441CDDEC41007300583EEECD014386B9775E1DFC9764E2AC2C86DAB7734BA55EF27667DF28DE2FED90BBD6FEFB06670C92EA0FAF7
                Parameter set: bign-curve256v1
        X509v3 extensions:
            X509v3 Basic Constraints: 
                CA:FALSE
            Netscape Comment: 
                OpenSSL Generated Certificate
            X509v3 Subject Key Identifier: 
                2A:EC:3D:39:72:8F:83:FC:3C:50:80:FD:1E:99:C2:C9:B6:75:93:33
            X509v3 Authority Key Identifier: 
                keyid:4B:84:CB:F8:D6:6F:67:68:65:B1:FB:C7:E7:2A:60:A6:1F:67:C4:11

    Signature Algorithm: bign-with-hbelt
         1d:15:15:c9:af:5d:bc:08:bb:f7:28:9c:af:2a:5c:43:76:d5:
         a6:cb:b1:93:75:5c:e9:70:e8:40:20:b7:44:f9:28:f4:de:85:
         ab:91:a9:ce:da:6f:83:3a:30:ad:8b:43
-----BEGIN CERTIFICATE-----
MIICEDCCAcqgAwIBAgICAQEwDQYJKnAAAgAiZS0MBQAwZTEbMBkGA1UEAwwSd3d3
Lm15ZG9tXzY3NzMuY29tMRUwEwYDVQQKDAxNeSBEb20sIEluYy4xCzAJBgNVBAYT
AlVTMQ8wDQYDVQQIDAZPcmVnb24xETAPBgNVBAcMCFBvcnRsYW5kMB4XDTE1MDEy
MjA2MTkzNFoXDTE2MDEyMjA2MTkzNFowTTELMAkGA1UEBhMCVVMxDzANBgNVBAgM
Bk9yZWdvbjEVMBMGA1UECgwMTXkgRG9tLCBJbmMuMRYwFAYDVQQDDA13d3cubXlk
b20uY29tMF0wGAYKKnAAAgAiZS0CAQYKKnAAAgAiZS0DAQNBAL0YxYoiRINJFzE4
BEHN3sQQBzAFg+7s0BQ4a5d14d/Jdk4qwshtq3c0ulXvJ2Z98o3i/tkLvW/vsGZw
yS6g+vejezB5MAkGA1UdEwQCMAAwLAYJYIZIAYb4QgENBB8WHU9wZW5TU0wgR2Vu
ZXJhdGVkIENlcnRpZmljYXRlMB0GA1UdDgQWBBQq7D05co+D/DxQgP0emcLJtnWT
MzAfBgNVHSMEGDAWgBRLhMv41m9naGWx+8fnKmCmH2fEETANBgkqcAACACJlLQwF
AAMxAB0VFcmvXbwIu/conK8qXEN21abLsZN1XOlw6EAgt0T5KPTehauRqc7ab4M6
MK2LQw==
-----END CERTIFICATE-----
