Certificate:
    Data:
        Version: 3 (0x2)
        Serial Number: 260 (0x104)
    Signature Algorithm: bign-with-hbelt
        Issuer: CN=www.mydom_4513.com, O=My Dom, Inc., C=US, ST=Oregon, L=Portland
        Validity
            Not Before: Jan 22 06:19:42 2015 GMT
            Not After : Jan 22 06:19:42 2016 GMT
        Subject: C=US, ST=Oregon, O=My Dom, Inc., CN=www.mydom.com
        Subject Public Key Info:
            Public Key Algorithm: bign-pubkey
                Public key: A82562AF0FDEAB72A327F0161403745B0BB5E368DDF98C14D996C5C3650C62C6BEC9B988D0A3D74CC6C9C4B9FB3389269458188BFED81B53F0E9848CFAC64201
                Parameter set: bign-curve256v1
        X509v3 extensions:
            X509v3 Basic Constraints: 
                CA:FALSE
            Netscape Comment: 
                OpenSSL Generated Certificate
            X509v3 Subject Key Identifier: 
                D3:0A:F6:02:8E:8C:B9:56:5F:14:52:B8:8B:12:07:34:4A:12:39:CF
            X509v3 Authority Key Identifier: 
                keyid:8A:F8:C4:2A:B0:AE:DC:BD:46:E9:BB:11:28:48:49:A5:13:3A:3C:13

    Signature Algorithm: bign-with-hbelt
         41:c2:ed:81:b5:0a:87:7a:07:0c:6a:4a:17:c2:be:b3:fc:0b:
         00:1f:5a:4c:cd:87:79:c3:de:ee:96:e2:8f:ab:4b:f0:4e:f6:
         21:fc:6c:ee:ba:35:a2:43:7c:6c:d1:ad
-----BEGIN CERTIFICATE-----
MIICEDCCAcqgAwIBAgICAQQwDQYJKnAAAgAiZS0MBQAwZTEbMBkGA1UEAwwSd3d3
Lm15ZG9tXzQ1MTMuY29tMRUwEwYDVQQKDAxNeSBEb20sIEluYy4xCzAJBgNVBAYT
AlVTMQ8wDQYDVQQIDAZPcmVnb24xETAPBgNVBAcMCFBvcnRsYW5kMB4XDTE1MDEy
MjA2MTk0MloXDTE2MDEyMjA2MTk0MlowTTELMAkGA1UEBhMCVVMxDzANBgNVBAgM
Bk9yZWdvbjEVMBMGA1UECgwMTXkgRG9tLCBJbmMuMRYwFAYDVQQDDA13d3cubXlk
b20uY29tMF0wGAYKKnAAAgAiZS0CAQYKKnAAAgAiZS0DAQNBAKglYq8P3qtyoyfw
FhQDdFsLteNo3fmMFNmWxcNlDGLGvsm5iNCj10zGycS5+zOJJpRYGIv+2BtT8OmE
jPrGQgGjezB5MAkGA1UdEwQCMAAwLAYJYIZIAYb4QgENBB8WHU9wZW5TU0wgR2Vu
ZXJhdGVkIENlcnRpZmljYXRlMB0GA1UdDgQWBBTTCvYCjoy5Vl8UUriLEgc0ShI5
zzAfBgNVHSMEGDAWgBSK+MQqsK7cvUbpuxEoSEmlEzo8EzANBgkqcAACACJlLQwF
AAMxAEHC7YG1Cod6BwxqShfCvrP8CwAfWkzNh3nD3u6W4o+rS/BO9iH8bO66NaJD
fGzRrQ==
-----END CERTIFICATE-----
