Certificate:
    Data:
        Version: 3 (0x2)
        Serial Number: 266 (0x10a)
    Signature Algorithm: bign-with-hbelt
        Issuer: CN=www.mydom_7400.com, O=My Dom, Inc., C=US, ST=Oregon, L=Portland
        Validity
            Not Before: Jan 22 06:19:43 2015 GMT
            Not After : Jan 22 06:19:43 2016 GMT
        Subject: C=US, ST=Oregon, O=My Dom, Inc., CN=www.mydom.com
        Subject Public Key Info:
            Public Key Algorithm: bign-pubkey
                Public key: 286D119B3A11F4A43CD404335179F79403885D4E75CECDDDD0AFDE9201129ADA9F4D7EE70BF11D8E6D0FADB91731734E5A9C2EE3ACCFC6270571D188D2A6B61C
                Parameter set: bign-curve256v1
        X509v3 extensions:
            X509v3 Basic Constraints: 
                CA:FALSE
            Netscape Comment: 
                OpenSSL Generated Certificate
            X509v3 Subject Key Identifier: 
                DE:58:9F:16:D2:B5:9D:ED:7D:D3:CC:EA:64:26:1D:0B:85:19:15:D2
            X509v3 Authority Key Identifier: 
                keyid:FF:C2:C1:62:3B:30:49:E0:1C:29:BC:D6:33:51:2E:87:7D:2F:03:83

    Signature Algorithm: bign-with-hbelt
         de:44:3f:da:61:c0:10:4c:0d:0b:36:44:98:9a:91:fe:79:a3:
         35:65:da:00:17:2b:cc:2b:30:b1:5f:77:08:7a:ec:94:b6:bf:
         3f:46:7b:de:05:86:16:26:e6:f0:03:0f
-----BEGIN CERTIFICATE-----
MIICEDCCAcqgAwIBAgICAQowDQYJKnAAAgAiZS0MBQAwZTEbMBkGA1UEAwwSd3d3
Lm15ZG9tXzc0MDAuY29tMRUwEwYDVQQKDAxNeSBEb20sIEluYy4xCzAJBgNVBAYT
AlVTMQ8wDQYDVQQIDAZPcmVnb24xETAPBgNVBAcMCFBvcnRsYW5kMB4XDTE1MDEy
MjA2MTk0M1oXDTE2MDEyMjA2MTk0M1owTTELMAkGA1UEBhMCVVMxDzANBgNVBAgM
Bk9yZWdvbjEVMBMGA1UECgwMTXkgRG9tLCBJbmMuMRYwFAYDVQQDDA13d3cubXlk
b20uY29tMF0wGAYKKnAAAgAiZS0CAQYKKnAAAgAiZS0DAQNBAChtEZs6EfSkPNQE
M1F595QDiF1Odc7N3dCv3pIBEpran01+5wvxHY5tD625FzFzTlqcLuOsz8YnBXHR
iNKmthyjezB5MAkGA1UdEwQCMAAwLAYJYIZIAYb4QgENBB8WHU9wZW5TU0wgR2Vu
ZXJhdGVkIENlcnRpZmljYXRlMB0GA1UdDgQWBBTeWJ8W0rWd7X3TzOpkJh0LhRkV
0jAfBgNVHSMEGDAWgBT/wsFiOzBJ4BwpvNYzUS6HfS8DgzANBgkqcAACACJlLQwF
AAMxAN5EP9phwBBMDQs2RJiakf55ozVl2gAXK8wrMLFfdwh67JS2vz9Ge94FhhYm
5vADDw==
-----END CERTIFICATE-----
