Certificate:
    Data:
        Version: 3 (0x2)
        Serial Number: 270 (0x10e)
    Signature Algorithm: bign-with-hbelt
        Issuer: CN=www.mydom_3494.com, O=My Dom, Inc., C=US, ST=Oregon, L=Portland
        Validity
            Not Before: Jan 22 06:41:06 2015 GMT
            Not After : Jan 22 06:41:06 2016 GMT
        Subject: C=US, ST=Oregon, O=My Dom, Inc., CN=www.mydom.com
        Subject Public Key Info:
            Public Key Algorithm: bign-pubkey
                Public key: 286D119B3A11F4A43CD404335179F79403885D4E75CECDDDD0AFDE9201129ADA9F4D7EE70BF11D8E6D0FADB91731734E5A9C2EE3ACCFC6270571D188D2A6B61C
                Parameter set: bign-curve256v1
        X509v3 extensions:
            X509v3 Basic Constraints: 
                CA:FALSE
            Netscape Comment: 
                OpenSSL Generated Certificate
            X509v3 Subject Key Identifier: 
                DE:58:9F:16:D2:B5:9D:ED:7D:D3:CC:EA:64:26:1D:0B:85:19:15:D2
            X509v3 Authority Key Identifier: 
                keyid:67:A2:60:DE:EF:DA:24:13:27:13:08:2B:45:0C:5C:5D:7F:53:93:B5

    Signature Algorithm: bign-with-hbelt
         d2:f6:2c:fc:94:3f:8b:ed:65:78:f7:b0:0e:4f:64:78:62:2b:
         d8:8f:a9:83:ec:12:8b:56:41:bf:11:41:39:21:1a:57:d3:43:
         93:a4:25:8f:7e:92:57:02:57:ab:06:b4
-----BEGIN CERTIFICATE-----
MIICEDCCAcqgAwIBAgICAQ4wDQYJKnAAAgAiZS0MBQAwZTEbMBkGA1UEAwwSd3d3
Lm15ZG9tXzM0OTQuY29tMRUwEwYDVQQKDAxNeSBEb20sIEluYy4xCzAJBgNVBAYT
AlVTMQ8wDQYDVQQIDAZPcmVnb24xETAPBgNVBAcMCFBvcnRsYW5kMB4XDTE1MDEy
MjA2NDEwNloXDTE2MDEyMjA2NDEwNlowTTELMAkGA1UEBhMCVVMxDzANBgNVBAgM
Bk9yZWdvbjEVMBMGA1UECgwMTXkgRG9tLCBJbmMuMRYwFAYDVQQDDA13d3cubXlk
b20uY29tMF0wGAYKKnAAAgAiZS0CAQYKKnAAAgAiZS0DAQNBAChtEZs6EfSkPNQE
M1F595QDiF1Odc7N3dCv3pIBEpran01+5wvxHY5tD625FzFzTlqcLuOsz8YnBXHR
iNKmthyjezB5MAkGA1UdEwQCMAAwLAYJYIZIAYb4QgENBB8WHU9wZW5TU0wgR2Vu
ZXJhdGVkIENlcnRpZmljYXRlMB0GA1UdDgQWBBTeWJ8W0rWd7X3TzOpkJh0LhRkV
0jAfBgNVHSMEGDAWgBRnomDe79okEycTCCtFDFxdf1OTtTANBgkqcAACACJlLQwF
AAMxANL2LPyUP4vtZXj3sA5PZHhiK9iPqYPsEotWQb8RQTkhGlfTQ5OkJY9+klcC
V6sGtA==
-----END CERTIFICATE-----
