Certificate:
    Data:
        Version: 3 (0x2)
        Serial Number: 271 (0x10f)
    Signature Algorithm: bign-with-hbelt
        Issuer: CN=www.mydom_3494.com, O=My Dom, Inc., C=US, ST=Oregon, L=Portland
        Validity
            Not Before: Jan 22 06:41:06 2015 GMT
            Not After : Jan 22 06:41:06 2016 GMT
        Subject: C=US, ST=Oregon, O=My Dom, Inc., CN=www.mydom.com
        Subject Public Key Info:
            Public Key Algorithm: bign-pubkey
                Public key: 286D119B3A11F4A43CD404335179F79403885D4E75CECDDDD0AFDE9201129ADA9F4D7EE70BF11D8E6D0FADB91731734E5A9C2EE3ACCFC6270571D188D2A6B61C
                Parameter set: bign-curve256v1
        X509v3 extensions:
            X509v3 Basic Constraints: 
                CA:FALSE
            Netscape Comment: 
                OpenSSL Generated Certificate
            X509v3 Subject Key Identifier: 
                DE:58:9F:16:D2:B5:9D:ED:7D:D3:CC:EA:64:26:1D:0B:85:19:15:D2
            X509v3 Authority Key Identifier: 
                keyid:67:A2:60:DE:EF:DA:24:13:27:13:08:2B:45:0C:5C:5D:7F:53:93:B5

    Signature Algorithm: bign-with-hbelt
         e3:9c:80:f3:64:32:6e:8d:72:9a:bb:47:29:62:b5:a5:90:56:
         64:da:83:86:bf:7c:33:99:02:be:97:0a:e7:bc:ce:83:9e:26:
         1c:75:72:2e:0a:ba:91:4e:a6:6e:29:df
-----BEGIN CERTIFICATE-----
MIICEDCCAcqgAwIBAgICAQ8wDQYJKnAAAgAiZS0MBQAwZTEbMBkGA1UEAwwSd3d3
Lm15ZG9tXzM0OTQuY29tMRUwEwYDVQQKDAxNeSBEb20sIEluYy4xCzAJBgNVBAYT
AlVTMQ8wDQYDVQQIDAZPcmVnb24xETAPBgNVBAcMCFBvcnRsYW5kMB4XDTE1MDEy
MjA2NDEwNloXDTE2MDEyMjA2NDEwNlowTTELMAkGA1UEBhMCVVMxDzANBgNVBAgM
Bk9yZWdvbjEVMBMGA1UECgwMTXkgRG9tLCBJbmMuMRYwFAYDVQQDDA13d3cubXlk
b20uY29tMF0wGAYKKnAAAgAiZS0CAQYKKnAAAgAiZS0DAQNBAChtEZs6EfSkPNQE
M1F595QDiF1Odc7N3dCv3pIBEpran01+5wvxHY5tD625FzFzTlqcLuOsz8YnBXHR
iNKmthyjezB5MAkGA1UdEwQCMAAwLAYJYIZIAYb4QgENBB8WHU9wZW5TU0wgR2Vu
ZXJhdGVkIENlcnRpZmljYXRlMB0GA1UdDgQWBBTeWJ8W0rWd7X3TzOpkJh0LhRkV
0jAfBgNVHSMEGDAWgBRnomDe79okEycTCCtFDFxdf1OTtTANBgkqcAACACJlLQwF
AAMxAOOcgPNkMm6Ncpq7RylitaWQVmTag4a/fDOZAr6XCue8zoOeJhx1ci4KupFO
pm4p3w==
-----END CERTIFICATE-----
