Certificate:
    Data:
        Version: 3 (0x2)
        Serial Number: 276 (0x114)
    Signature Algorithm: bign-with-hbelt
        Issuer: CN=www.mydom_3494.com, O=My Dom, Inc., C=US, ST=Oregon, L=Portland
        Validity
            Not Before: Jan 22 06:41:07 2015 GMT
            Not After : Jan 22 06:41:07 2016 GMT
        Subject: C=US, ST=Oregon, O=My Dom, Inc., CN=www.mydom.com
        Subject Public Key Info:
            Public Key Algorithm: bign-pubkey
                Public key: 286D119B3A11F4A43CD404335179F79403885D4E75CECDDDD0AFDE9201129ADA9F4D7EE70BF11D8E6D0FADB91731734E5A9C2EE3ACCFC6270571D188D2A6B61C
                Parameter set: bign-curve256v1
        X509v3 extensions:
            X509v3 Basic Constraints: 
                CA:FALSE
            Netscape Comment: 
                OpenSSL Generated Certificate
            X509v3 Subject Key Identifier: 
                DE:58:9F:16:D2:B5:9D:ED:7D:D3:CC:EA:64:26:1D:0B:85:19:15:D2
            X509v3 Authority Key Identifier: 
                keyid:67:A2:60:DE:EF:DA:24:13:27:13:08:2B:45:0C:5C:5D:7F:53:93:B5

    Signature Algorithm: bign-with-hbelt
         c9:f1:34:96:71:13:c0:c6:90:c0:cb:f0:64:54:b1:87:38:e5:
         c2:a6:12:77:ee:ef:68:c6:bb:89:1b:d7:b2:91:1f:42:4d:b0:
         2f:c4:a4:f8:20:58:fb:2e:a7:86:f6:93
-----BEGIN CERTIFICATE-----
MIICEDCCAcqgAwIBAgICARQwDQYJKnAAAgAiZS0MBQAwZTEbMBkGA1UEAwwSd3d3
Lm15ZG9tXzM0OTQuY29tMRUwEwYDVQQKDAxNeSBEb20sIEluYy4xCzAJBgNVBAYT
AlVTMQ8wDQYDVQQIDAZPcmVnb24xETAPBgNVBAcMCFBvcnRsYW5kMB4XDTE1MDEy
MjA2NDEwN1oXDTE2MDEyMjA2NDEwN1owTTELMAkGA1UEBhMCVVMxDzANBgNVBAgM
Bk9yZWdvbjEVMBMGA1UECgwMTXkgRG9tLCBJbmMuMRYwFAYDVQQDDA13d3cubXlk
b20uY29tMF0wGAYKKnAAAgAiZS0CAQYKKnAAAgAiZS0DAQNBAChtEZs6EfSkPNQE
M1F595QDiF1Odc7N3dCv3pIBEpran01+5wvxHY5tD625FzFzTlqcLuOsz8YnBXHR
iNKmthyjezB5MAkGA1UdEwQCMAAwLAYJYIZIAYb4QgENBB8WHU9wZW5TU0wgR2Vu
ZXJhdGVkIENlcnRpZmljYXRlMB0GA1UdDgQWBBTeWJ8W0rWd7X3TzOpkJh0LhRkV
0jAfBgNVHSMEGDAWgBRnomDe79okEycTCCtFDFxdf1OTtTANBgkqcAACACJlLQwF
AAMxAMnxNJZxE8DGkMDL8GRUsYc45cKmEnfu72jGu4kb17KRH0JNsC/EpPggWPsu
p4b2kw==
-----END CERTIFICATE-----
