Certificate:
    Data:
        Version: 3 (0x2)
        Serial Number: 278 (0x116)
    Signature Algorithm: bign-with-hbelt
        Issuer: CN=www.mydom_9437.com, O=My Dom, Inc., C=US, ST=Oregon, L=Portland
        Validity
            Not Before: Jan 22 06:41:44 2015 GMT
            Not After : Jan 22 06:41:44 2016 GMT
        Subject: C=US, ST=Oregon, O=My Dom, Inc., CN=www.mydom.com
        Subject Public Key Info:
            Public Key Algorithm: bign-pubkey
                Public key: 286D119B3A11F4A43CD404335179F79403885D4E75CECDDDD0AFDE9201129ADA9F4D7EE70BF11D8E6D0FADB91731734E5A9C2EE3ACCFC6270571D188D2A6B61C
                Parameter set: bign-curve256v1
        X509v3 extensions:
            X509v3 Basic Constraints: 
                CA:FALSE
            Netscape Comment: 
                OpenSSL Generated Certificate
            X509v3 Subject Key Identifier: 
                DE:58:9F:16:D2:B5:9D:ED:7D:D3:CC:EA:64:26:1D:0B:85:19:15:D2
            X509v3 Authority Key Identifier: 
                keyid:6A:B1:75:FB:E4:C5:2C:C2:BC:E2:FD:22:F1:54:CD:7A:9C:71:19:35

    Signature Algorithm: bign-with-hbelt
         93:ee:7e:73:79:17:f2:1b:c3:30:e3:d5:bd:13:9b:e2:af:34:
         cc:82:d9:76:08:37:54:17:e0:b3:e7:1b:b2:77:22:f5:af:18:
         f5:3c:03:fd:02:f8:1f:5b:14:ac:85:20
-----BEGIN CERTIFICATE-----
MIICEDCCAcqgAwIBAgICARYwDQYJKnAAAgAiZS0MBQAwZTEbMBkGA1UEAwwSd3d3
Lm15ZG9tXzk0MzcuY29tMRUwEwYDVQQKDAxNeSBEb20sIEluYy4xCzAJBgNVBAYT
AlVTMQ8wDQYDVQQIDAZPcmVnb24xETAPBgNVBAcMCFBvcnRsYW5kMB4XDTE1MDEy
MjA2NDE0NFoXDTE2MDEyMjA2NDE0NFowTTELMAkGA1UEBhMCVVMxDzANBgNVBAgM
Bk9yZWdvbjEVMBMGA1UECgwMTXkgRG9tLCBJbmMuMRYwFAYDVQQDDA13d3cubXlk
b20uY29tMF0wGAYKKnAAAgAiZS0CAQYKKnAAAgAiZS0DAQNBAChtEZs6EfSkPNQE
M1F595QDiF1Odc7N3dCv3pIBEpran01+5wvxHY5tD625FzFzTlqcLuOsz8YnBXHR
iNKmthyjezB5MAkGA1UdEwQCMAAwLAYJYIZIAYb4QgENBB8WHU9wZW5TU0wgR2Vu
ZXJhdGVkIENlcnRpZmljYXRlMB0GA1UdDgQWBBTeWJ8W0rWd7X3TzOpkJh0LhRkV
0jAfBgNVHSMEGDAWgBRqsXX75MUswrzi/SLxVM16nHEZNTANBgkqcAACACJlLQwF
AAMxAJPufnN5F/IbwzDj1b0Tm+KvNMyC2XYIN1QX4LPnG7J3IvWvGPU8A/0C+B9b
FKyFIA==
-----END CERTIFICATE-----
