Certificate:
    Data:
        Version: 3 (0x2)
        Serial Number: 280 (0x118)
    Signature Algorithm: bign-with-hbelt
        Issuer: CN=www.mydom_5648.com, O=My Dom, Inc., C=US, ST=Oregon, L=Portland
        Validity
            Not Before: Jan 22 06:45:05 2015 GMT
            Not After : Jan 22 06:45:05 2016 GMT
        Subject: C=US, ST=Oregon, O=My Dom, Inc., CN=www.mydom.com
        Subject Public Key Info:
            Public Key Algorithm: bign-pubkey
                Public key: 286D119B3A11F4A43CD404335179F79403885D4E75CECDDDD0AFDE9201129ADA9F4D7EE70BF11D8E6D0FADB91731734E5A9C2EE3ACCFC6270571D188D2A6B61C
                Parameter set: bign-curve256v1
        X509v3 extensions:
            X509v3 Basic Constraints: 
                CA:FALSE
            Netscape Comment: 
                OpenSSL Generated Certificate
            X509v3 Subject Key Identifier: 
                DE:58:9F:16:D2:B5:9D:ED:7D:D3:CC:EA:64:26:1D:0B:85:19:15:D2
            X509v3 Authority Key Identifier: 
                keyid:42:48:C6:CE:96:46:94:2A:EA:D6:98:42:E6:15:74:F8:11:C3:B6:F7

    Signature Algorithm: bign-with-hbelt
         37:7f:02:93:c3:37:1a:2d:db:df:ef:c4:69:ab:55:d1:be:5b:
         48:6b:eb:ac:e5:bb:5b:23:31:cf:ed:a3:c1:91:43:60:f9:6b:
         60:c6:45:a4:60:59:51:eb:e0:d6:bd:04
-----BEGIN CERTIFICATE-----
MIICEDCCAcqgAwIBAgICARgwDQYJKnAAAgAiZS0MBQAwZTEbMBkGA1UEAwwSd3d3
Lm15ZG9tXzU2NDguY29tMRUwEwYDVQQKDAxNeSBEb20sIEluYy4xCzAJBgNVBAYT
AlVTMQ8wDQYDVQQIDAZPcmVnb24xETAPBgNVBAcMCFBvcnRsYW5kMB4XDTE1MDEy
MjA2NDUwNVoXDTE2MDEyMjA2NDUwNVowTTELMAkGA1UEBhMCVVMxDzANBgNVBAgM
Bk9yZWdvbjEVMBMGA1UECgwMTXkgRG9tLCBJbmMuMRYwFAYDVQQDDA13d3cubXlk
b20uY29tMF0wGAYKKnAAAgAiZS0CAQYKKnAAAgAiZS0DAQNBAChtEZs6EfSkPNQE
M1F595QDiF1Odc7N3dCv3pIBEpran01+5wvxHY5tD625FzFzTlqcLuOsz8YnBXHR
iNKmthyjezB5MAkGA1UdEwQCMAAwLAYJYIZIAYb4QgENBB8WHU9wZW5TU0wgR2Vu
ZXJhdGVkIENlcnRpZmljYXRlMB0GA1UdDgQWBBTeWJ8W0rWd7X3TzOpkJh0LhRkV
0jAfBgNVHSMEGDAWgBRCSMbOlkaUKurWmELmFXT4EcO29zANBgkqcAACACJlLQwF
AAMxADd/ApPDNxot29/vxGmrVdG+W0hr66zlu1sjMc/to8GRQ2D5a2DGRaRgWVHr
4Na9BA==
-----END CERTIFICATE-----
