Certificate:
    Data:
        Version: 3 (0x2)
        Serial Number: 281 (0x119)
    Signature Algorithm: bign-with-hbelt
        Issuer: CN=www.mydom_2134.com, O=My Dom, Inc., C=US, ST=Oregon, L=Portland
        Validity
            Not Before: Jan 22 06:46:25 2015 GMT
            Not After : Jan 22 06:46:25 2016 GMT
        Subject: C=US, ST=Oregon, O=My Dom, Inc., CN=www.mydom.com
        Subject Public Key Info:
            Public Key Algorithm: bign-pubkey
                Public key: 286D119B3A11F4A43CD404335179F79403885D4E75CECDDDD0AFDE9201129ADA9F4D7EE70BF11D8E6D0FADB91731734E5A9C2EE3ACCFC6270571D188D2A6B61C
                Parameter set: bign-curve256v1
        X509v3 extensions:
            X509v3 Basic Constraints: 
                CA:FALSE
            Netscape Comment: 
                OpenSSL Generated Certificate
            X509v3 Subject Key Identifier: 
                DE:58:9F:16:D2:B5:9D:ED:7D:D3:CC:EA:64:26:1D:0B:85:19:15:D2
            X509v3 Authority Key Identifier: 
                keyid:3D:12:A2:C3:BC:A1:B2:76:45:C1:40:C2:B1:C5:3D:FA:EB:AD:8B:25

    Signature Algorithm: bign-with-hbelt
         a9:70:89:9d:d5:dd:ab:eb:d8:9c:12:32:e1:01:ca:68:b4:58:
         2a:a0:24:1f:5b:06:e4:9d:72:c8:2e:ba:dc:86:35:e0:b6:76:
         2b:d0:4b:60:18:d6:69:79:02:5f:59:ec
-----BEGIN CERTIFICATE-----
MIICEDCCAcqgAwIBAgICARkwDQYJKnAAAgAiZS0MBQAwZTEbMBkGA1UEAwwSd3d3
Lm15ZG9tXzIxMzQuY29tMRUwEwYDVQQKDAxNeSBEb20sIEluYy4xCzAJBgNVBAYT
AlVTMQ8wDQYDVQQIDAZPcmVnb24xETAPBgNVBAcMCFBvcnRsYW5kMB4XDTE1MDEy
MjA2NDYyNVoXDTE2MDEyMjA2NDYyNVowTTELMAkGA1UEBhMCVVMxDzANBgNVBAgM
Bk9yZWdvbjEVMBMGA1UECgwMTXkgRG9tLCBJbmMuMRYwFAYDVQQDDA13d3cubXlk
b20uY29tMF0wGAYKKnAAAgAiZS0CAQYKKnAAAgAiZS0DAQNBAChtEZs6EfSkPNQE
M1F595QDiF1Odc7N3dCv3pIBEpran01+5wvxHY5tD625FzFzTlqcLuOsz8YnBXHR
iNKmthyjezB5MAkGA1UdEwQCMAAwLAYJYIZIAYb4QgENBB8WHU9wZW5TU0wgR2Vu
ZXJhdGVkIENlcnRpZmljYXRlMB0GA1UdDgQWBBTeWJ8W0rWd7X3TzOpkJh0LhRkV
0jAfBgNVHSMEGDAWgBQ9EqLDvKGydkXBQMKxxT36662LJTANBgkqcAACACJlLQwF
AAMxAKlwiZ3V3avr2JwSMuEBymi0WCqgJB9bBuSdcsguutyGNeC2divQS2AY1ml5
Al9Z7A==
-----END CERTIFICATE-----
