Certificate:
    Data:
        Version: 3 (0x2)
        Serial Number: 282 (0x11a)
    Signature Algorithm: bign-with-hbelt
        Issuer: CN=www.mydom_2134.com, O=My Dom, Inc., C=US, ST=Oregon, L=Portland
        Validity
            Not Before: Jan 22 06:46:27 2015 GMT
            Not After : Jan 22 06:46:27 2016 GMT
        Subject: C=US, ST=Oregon, O=My Dom, Inc., CN=www.mydom.com
        Subject Public Key Info:
            Public Key Algorithm: bign-pubkey
                Public key: 286D119B3A11F4A43CD404335179F79403885D4E75CECDDDD0AFDE9201129ADA9F4D7EE70BF11D8E6D0FADB91731734E5A9C2EE3ACCFC6270571D188D2A6B61C
                Parameter set: bign-curve256v1
        X509v3 extensions:
            X509v3 Basic Constraints: 
                CA:FALSE
            Netscape Comment: 
                OpenSSL Generated Certificate
            X509v3 Subject Key Identifier: 
                DE:58:9F:16:D2:B5:9D:ED:7D:D3:CC:EA:64:26:1D:0B:85:19:15:D2
            X509v3 Authority Key Identifier: 
                keyid:3D:12:A2:C3:BC:A1:B2:76:45:C1:40:C2:B1:C5:3D:FA:EB:AD:8B:25

    Signature Algorithm: bign-with-hbelt
         37:f8:f2:18:09:5a:d5:be:64:5f:3a:9f:52:95:a5:e7:97:08:
         db:7b:51:55:63:10:bb:51:e9:b9:2b:11:86:f4:1a:2a:8b:e0:
         d3:20:0f:d0:25:9d:4d:d4:39:77:01:c2
-----BEGIN CERTIFICATE-----
MIICEDCCAcqgAwIBAgICARowDQYJKnAAAgAiZS0MBQAwZTEbMBkGA1UEAwwSd3d3
Lm15ZG9tXzIxMzQuY29tMRUwEwYDVQQKDAxNeSBEb20sIEluYy4xCzAJBgNVBAYT
AlVTMQ8wDQYDVQQIDAZPcmVnb24xETAPBgNVBAcMCFBvcnRsYW5kMB4XDTE1MDEy
MjA2NDYyN1oXDTE2MDEyMjA2NDYyN1owTTELMAkGA1UEBhMCVVMxDzANBgNVBAgM
Bk9yZWdvbjEVMBMGA1UECgwMTXkgRG9tLCBJbmMuMRYwFAYDVQQDDA13d3cubXlk
b20uY29tMF0wGAYKKnAAAgAiZS0CAQYKKnAAAgAiZS0DAQNBAChtEZs6EfSkPNQE
M1F595QDiF1Odc7N3dCv3pIBEpran01+5wvxHY5tD625FzFzTlqcLuOsz8YnBXHR
iNKmthyjezB5MAkGA1UdEwQCMAAwLAYJYIZIAYb4QgENBB8WHU9wZW5TU0wgR2Vu
ZXJhdGVkIENlcnRpZmljYXRlMB0GA1UdDgQWBBTeWJ8W0rWd7X3TzOpkJh0LhRkV
0jAfBgNVHSMEGDAWgBQ9EqLDvKGydkXBQMKxxT36662LJTANBgkqcAACACJlLQwF
AAMxADf48hgJWtW+ZF86n1KVpeeXCNt7UVVjELtR6bkrEYb0GiqL4NMgD9AlnU3U
OXcBwg==
-----END CERTIFICATE-----
