Certificate:
    Data:
        Version: 3 (0x2)
        Serial Number: 283 (0x11b)
    Signature Algorithm: bign-with-hbelt
        Issuer: CN=www.mydom_5182.com, O=My Dom, Inc., C=US, ST=Oregon, L=Portland
        Validity
            Not Before: Jan 22 06:46:47 2015 GMT
            Not After : Jan 22 06:46:47 2016 GMT
        Subject: C=US, ST=Oregon, O=My Dom, Inc., CN=www.mydom.com
        Subject Public Key Info:
            Public Key Algorithm: bign-pubkey
                Public key: 286D119B3A11F4A43CD404335179F79403885D4E75CECDDDD0AFDE9201129ADA9F4D7EE70BF11D8E6D0FADB91731734E5A9C2EE3ACCFC6270571D188D2A6B61C
                Parameter set: bign-curve256v1
        X509v3 extensions:
            X509v3 Basic Constraints: 
                CA:FALSE
            Netscape Comment: 
                OpenSSL Generated Certificate
            X509v3 Subject Key Identifier: 
                DE:58:9F:16:D2:B5:9D:ED:7D:D3:CC:EA:64:26:1D:0B:85:19:15:D2
            X509v3 Authority Key Identifier: 
                keyid:AE:BF:3B:22:FC:AE:33:43:A8:01:6D:F8:94:62:4E:7B:7B:B0:A8:A5

    Signature Algorithm: bign-with-hbelt
         fc:fe:70:be:2f:fa:9f:d5:37:32:64:44:4c:1c:7d:23:8f:53:
         af:70:e9:0d:3b:bd:36:be:d7:c6:f1:ed:9c:3f:80:61:03:16:
         55:92:3e:de:48:46:02:82:9d:39:32:21
-----BEGIN CERTIFICATE-----
MIICEDCCAcqgAwIBAgICARswDQYJKnAAAgAiZS0MBQAwZTEbMBkGA1UEAwwSd3d3
Lm15ZG9tXzUxODIuY29tMRUwEwYDVQQKDAxNeSBEb20sIEluYy4xCzAJBgNVBAYT
AlVTMQ8wDQYDVQQIDAZPcmVnb24xETAPBgNVBAcMCFBvcnRsYW5kMB4XDTE1MDEy
MjA2NDY0N1oXDTE2MDEyMjA2NDY0N1owTTELMAkGA1UEBhMCVVMxDzANBgNVBAgM
Bk9yZWdvbjEVMBMGA1UECgwMTXkgRG9tLCBJbmMuMRYwFAYDVQQDDA13d3cubXlk
b20uY29tMF0wGAYKKnAAAgAiZS0CAQYKKnAAAgAiZS0DAQNBAChtEZs6EfSkPNQE
M1F595QDiF1Odc7N3dCv3pIBEpran01+5wvxHY5tD625FzFzTlqcLuOsz8YnBXHR
iNKmthyjezB5MAkGA1UdEwQCMAAwLAYJYIZIAYb4QgENBB8WHU9wZW5TU0wgR2Vu
ZXJhdGVkIENlcnRpZmljYXRlMB0GA1UdDgQWBBTeWJ8W0rWd7X3TzOpkJh0LhRkV
0jAfBgNVHSMEGDAWgBSuvzsi/K4zQ6gBbfiUYk57e7CopTANBgkqcAACACJlLQwF
AAMxAPz+cL4v+p/VNzJkREwcfSOPU69w6Q07vTa+18bx7Zw/gGEDFlWSPt5IRgKC
nTkyIQ==
-----END CERTIFICATE-----
