Certificate:
    Data:
        Version: 3 (0x2)
        Serial Number: 284 (0x11c)
    Signature Algorithm: bign-with-hbelt
        Issuer: CN=www.mydom_5182.com, O=My Dom, Inc., C=US, ST=Oregon, L=Portland
        Validity
            Not Before: Jan 22 06:58:59 2015 GMT
            Not After : Jan 22 06:58:59 2016 GMT
        Subject: C=US, ST=Oregon, O=My Dom, Inc., CN=www.mydom.com
        Subject Public Key Info:
            Public Key Algorithm: bign-pubkey
                Public key: 286D119B3A11F4A43CD404335179F79403885D4E75CECDDDD0AFDE9201129ADA9F4D7EE70BF11D8E6D0FADB91731734E5A9C2EE3ACCFC6270571D188D2A6B61C
                Parameter set: bign-curve256v1
        X509v3 extensions:
            X509v3 Basic Constraints: 
                CA:FALSE
            Netscape Comment: 
                OpenSSL Generated Certificate
            X509v3 Subject Key Identifier: 
                DE:58:9F:16:D2:B5:9D:ED:7D:D3:CC:EA:64:26:1D:0B:85:19:15:D2
            X509v3 Authority Key Identifier: 
                keyid:AE:BF:3B:22:FC:AE:33:43:A8:01:6D:F8:94:62:4E:7B:7B:B0:A8:A5

    Signature Algorithm: bign-with-hbelt
         0f:67:d2:23:c9:34:93:04:66:cd:43:b0:1c:68:57:60:90:9f:
         c3:33:d3:33:34:56:72:c6:39:ca:10:c5:2b:09:b6:7e:03:94:
         4e:f3:1e:16:ae:c8:86:95:12:cd:a9:ca
-----BEGIN CERTIFICATE-----
MIICEDCCAcqgAwIBAgICARwwDQYJKnAAAgAiZS0MBQAwZTEbMBkGA1UEAwwSd3d3
Lm15ZG9tXzUxODIuY29tMRUwEwYDVQQKDAxNeSBEb20sIEluYy4xCzAJBgNVBAYT
AlVTMQ8wDQYDVQQIDAZPcmVnb24xETAPBgNVBAcMCFBvcnRsYW5kMB4XDTE1MDEy
MjA2NTg1OVoXDTE2MDEyMjA2NTg1OVowTTELMAkGA1UEBhMCVVMxDzANBgNVBAgM
Bk9yZWdvbjEVMBMGA1UECgwMTXkgRG9tLCBJbmMuMRYwFAYDVQQDDA13d3cubXlk
b20uY29tMF0wGAYKKnAAAgAiZS0CAQYKKnAAAgAiZS0DAQNBAChtEZs6EfSkPNQE
M1F595QDiF1Odc7N3dCv3pIBEpran01+5wvxHY5tD625FzFzTlqcLuOsz8YnBXHR
iNKmthyjezB5MAkGA1UdEwQCMAAwLAYJYIZIAYb4QgENBB8WHU9wZW5TU0wgR2Vu
ZXJhdGVkIENlcnRpZmljYXRlMB0GA1UdDgQWBBTeWJ8W0rWd7X3TzOpkJh0LhRkV
0jAfBgNVHSMEGDAWgBSuvzsi/K4zQ6gBbfiUYk57e7CopTANBgkqcAACACJlLQwF
AAMxAA9n0iPJNJMEZs1DsBxoV2CQn8Mz0zM0VnLGOcoQxSsJtn4DlE7zHhauyIaV
Es2pyg==
-----END CERTIFICATE-----
