Certificate:
    Data:
        Version: 3 (0x2)
        Serial Number: 286 (0x11e)
    Signature Algorithm: bign-with-hbelt
        Issuer: CN=www.mydom_3022.com, O=My Dom, Inc., C=US, ST=Oregon, L=Portland
        Validity
            Not Before: Jan 22 07:00:11 2015 GMT
            Not After : Jan 22 07:00:11 2016 GMT
        Subject: C=US, ST=Oregon, O=My Dom, Inc., CN=www.mydom.com
        Subject Public Key Info:
            Public Key Algorithm: bign-pubkey
                Public key: 286D119B3A11F4A43CD404335179F79403885D4E75CECDDDD0AFDE9201129ADA9F4D7EE70BF11D8E6D0FADB91731734E5A9C2EE3ACCFC6270571D188D2A6B61C
                Parameter set: bign-curve256v1
        X509v3 extensions:
            X509v3 Basic Constraints: 
                CA:FALSE
            Netscape Comment: 
                OpenSSL Generated Certificate
            X509v3 Subject Key Identifier: 
                DE:58:9F:16:D2:B5:9D:ED:7D:D3:CC:EA:64:26:1D:0B:85:19:15:D2
            X509v3 Authority Key Identifier: 
                keyid:CF:C9:E9:E4:0A:DB:DB:A0:AA:25:D9:15:BB:07:C1:E2:FF:F3:E2:C7

    Signature Algorithm: bign-with-hbelt
         e4:1f:70:2a:9c:b3:f6:e9:9f:f4:64:b6:87:3e:67:81:07:9e:
         29:7d:19:6e:5d:ca:51:fd:47:f7:8c:9b:03:f5:aa:54:37:f8:
         d3:da:4b:96:82:aa:4b:37:aa:c2:5f:08
-----BEGIN CERTIFICATE-----
MIICEDCCAcqgAwIBAgICAR4wDQYJKnAAAgAiZS0MBQAwZTEbMBkGA1UEAwwSd3d3
Lm15ZG9tXzMwMjIuY29tMRUwEwYDVQQKDAxNeSBEb20sIEluYy4xCzAJBgNVBAYT
AlVTMQ8wDQYDVQQIDAZPcmVnb24xETAPBgNVBAcMCFBvcnRsYW5kMB4XDTE1MDEy
MjA3MDAxMVoXDTE2MDEyMjA3MDAxMVowTTELMAkGA1UEBhMCVVMxDzANBgNVBAgM
Bk9yZWdvbjEVMBMGA1UECgwMTXkgRG9tLCBJbmMuMRYwFAYDVQQDDA13d3cubXlk
b20uY29tMF0wGAYKKnAAAgAiZS0CAQYKKnAAAgAiZS0DAQNBAChtEZs6EfSkPNQE
M1F595QDiF1Odc7N3dCv3pIBEpran01+5wvxHY5tD625FzFzTlqcLuOsz8YnBXHR
iNKmthyjezB5MAkGA1UdEwQCMAAwLAYJYIZIAYb4QgENBB8WHU9wZW5TU0wgR2Vu
ZXJhdGVkIENlcnRpZmljYXRlMB0GA1UdDgQWBBTeWJ8W0rWd7X3TzOpkJh0LhRkV
0jAfBgNVHSMEGDAWgBTPyenkCtvboKol2RW7B8Hi//PixzANBgkqcAACACJlLQwF
AAMxAOQfcCqcs/bpn/Rktoc+Z4EHnil9GW5dylH9R/eMmwP1qlQ3+NPaS5aCqks3
qsJfCA==
-----END CERTIFICATE-----
