Certificate:
    Data:
        Version: 3 (0x2)
        Serial Number: 287 (0x11f)
    Signature Algorithm: bign-with-hbelt
        Issuer: CN=www.mydom_3022.com, O=My Dom, Inc., C=US, ST=Oregon, L=Portland
        Validity
            Not Before: Jan 22 07:00:12 2015 GMT
            Not After : Jan 22 07:00:12 2016 GMT
        Subject: C=US, ST=Oregon, O=My Dom, Inc., CN=www.mydom.com
        Subject Public Key Info:
            Public Key Algorithm: bign-pubkey
                Public key: 286D119B3A11F4A43CD404335179F79403885D4E75CECDDDD0AFDE9201129ADA9F4D7EE70BF11D8E6D0FADB91731734E5A9C2EE3ACCFC6270571D188D2A6B61C
                Parameter set: bign-curve256v1
        X509v3 extensions:
            X509v3 Basic Constraints: 
                CA:FALSE
            Netscape Comment: 
                OpenSSL Generated Certificate
            X509v3 Subject Key Identifier: 
                DE:58:9F:16:D2:B5:9D:ED:7D:D3:CC:EA:64:26:1D:0B:85:19:15:D2
            X509v3 Authority Key Identifier: 
                keyid:CF:C9:E9:E4:0A:DB:DB:A0:AA:25:D9:15:BB:07:C1:E2:FF:F3:E2:C7

    Signature Algorithm: bign-with-hbelt
         2e:7f:69:9b:cc:f6:71:a9:6d:6f:42:de:fd:70:02:df:ee:9b:
         04:21:2b:f3:ac:4d:98:a5:82:06:3a:3a:d0:24:eb:09:f2:c9:
         ba:bb:b4:26:ee:1e:85:46:2b:e3:b8:94
-----BEGIN CERTIFICATE-----
MIICEDCCAcqgAwIBAgICAR8wDQYJKnAAAgAiZS0MBQAwZTEbMBkGA1UEAwwSd3d3
Lm15ZG9tXzMwMjIuY29tMRUwEwYDVQQKDAxNeSBEb20sIEluYy4xCzAJBgNVBAYT
AlVTMQ8wDQYDVQQIDAZPcmVnb24xETAPBgNVBAcMCFBvcnRsYW5kMB4XDTE1MDEy
MjA3MDAxMloXDTE2MDEyMjA3MDAxMlowTTELMAkGA1UEBhMCVVMxDzANBgNVBAgM
Bk9yZWdvbjEVMBMGA1UECgwMTXkgRG9tLCBJbmMuMRYwFAYDVQQDDA13d3cubXlk
b20uY29tMF0wGAYKKnAAAgAiZS0CAQYKKnAAAgAiZS0DAQNBAChtEZs6EfSkPNQE
M1F595QDiF1Odc7N3dCv3pIBEpran01+5wvxHY5tD625FzFzTlqcLuOsz8YnBXHR
iNKmthyjezB5MAkGA1UdEwQCMAAwLAYJYIZIAYb4QgENBB8WHU9wZW5TU0wgR2Vu
ZXJhdGVkIENlcnRpZmljYXRlMB0GA1UdDgQWBBTeWJ8W0rWd7X3TzOpkJh0LhRkV
0jAfBgNVHSMEGDAWgBTPyenkCtvboKol2RW7B8Hi//PixzANBgkqcAACACJlLQwF
AAMxAC5/aZvM9nGpbW9C3v1wAt/umwQhK/OsTZilggY6OtAk6wnyybq7tCbuHoVG
K+O4lA==
-----END CERTIFICATE-----
