Certificate:
    Data:
        Version: 3 (0x2)
        Serial Number: 28 (0x1c)
    Signature Algorithm: bign-with-hbelt
        Issuer: CN=www.mydom_5330.com, O=My Dom, Inc., C=US, ST=Oregon, L=Portland
        Validity
            Not Before: Sep  4 16:59:08 2014 GMT
            Not After : Sep  4 16:59:08 2015 GMT
        Subject: C=US, ST=Oregon, O=My Dom, Inc., CN=www.mydom.com
        Subject Public Key Info:
            Public Key Algorithm: bign-pubkey
                Public key: E9CE838AABDBAA81A42945F2387914612B2391FFAB8974513FC72F3AA08031FFFE8551772785A1AA3CBF5A1C1971CAEBA48798A2EEA56A5370E02B9511160F85
                Parameter set: bign-curve256v1
        X509v3 extensions:
            X509v3 Basic Constraints: 
                CA:FALSE
            Netscape Comment: 
                OpenSSL Generated Certificate
            X509v3 Subject Key Identifier: 
                00:75:21:23:16:B6:D6:01:D8:44:81:71:CB:D1:89:CA:B3:CE:D4:59
            X509v3 Authority Key Identifier: 
                keyid:F3:DF:8F:3F:86:42:7F:02:8B:84:80:C3:96:21:DB:F7:4C:4C:B0:BA

    Signature Algorithm: bign-with-hbelt
         6a:a7:f5:06:0e:da:15:01:79:a2:07:0d:a9:46:a0:73:77:52:
         d9:d7:d4:3d:5c:e1:10:4f:7a:25:7a:f6:6b:6a:9a:d4:45:d6:
         d9:bf:25:61:e1:04:4f:dd:76:59:37:99
-----BEGIN CERTIFICATE-----
MIICDzCCAcmgAwIBAgIBHDANBgkqcAACACJlLQwFADBlMRswGQYDVQQDDBJ3d3cu
bXlkb21fNTMzMC5jb20xFTATBgNVBAoMDE15IERvbSwgSW5jLjELMAkGA1UEBhMC
VVMxDzANBgNVBAgMBk9yZWdvbjERMA8GA1UEBwwIUG9ydGxhbmQwHhcNMTQwOTA0
MTY1OTA4WhcNMTUwOTA0MTY1OTA4WjBNMQswCQYDVQQGEwJVUzEPMA0GA1UECAwG
T3JlZ29uMRUwEwYDVQQKDAxNeSBEb20sIEluYy4xFjAUBgNVBAMMDXd3dy5teWRv
bS5jb20wXTAYBgoqcAACACJlLQIBBgoqcAACACJlLQMBA0EA6c6DiqvbqoGkKUXy
OHkUYSsjkf+riXRRP8cvOqCAMf/+hVF3J4Whqjy/WhwZccrrpIeYou6lalNw4CuV
ERYPhaN7MHkwCQYDVR0TBAIwADAsBglghkgBhvhCAQ0EHxYdT3BlblNTTCBHZW5l
cmF0ZWQgQ2VydGlmaWNhdGUwHQYDVR0OBBYEFAB1ISMWttYB2ESBccvRicqzztRZ
MB8GA1UdIwQYMBaAFPPfjz+GQn8Ci4SAw5Yh2/dMTLC6MA0GCSpwAAIAImUtDAUA
AzEAaqf1Bg7aFQF5ogcNqUagc3dS2dfUPVzhEE96JXr2a2qa1EXW2b8lYeEET912
WTeZ
-----END CERTIFICATE-----
