Certificate:
    Data:
        Version: 3 (0x2)
        Serial Number: 29 (0x1d)
    Signature Algorithm: bign-with-hbelt
        Issuer: CN=www.mydom_2454.com, O=My Dom, Inc., C=US, ST=Oregon, L=Portland
        Validity
            Not Before: Sep  4 16:59:08 2014 GMT
            Not After : Sep  4 16:59:08 2015 GMT
        Subject: C=US, ST=Oregon, O=My Dom, Inc., CN=www.mydom.com
        Subject Public Key Info:
            Public Key Algorithm: bign-pubkey
                Public key: F7219D6CDD9320850566557194C3087104854941D27554151A7834FAD2051EC7334EBCB9490087B7624AC7B463FA5382087EC84CD3ECDFCB9EA04D0A305A7460
                Parameter set: bign-curve256v1
        X509v3 extensions:
            X509v3 Basic Constraints: 
                CA:FALSE
            Netscape Comment: 
                OpenSSL Generated Certificate
            X509v3 Subject Key Identifier: 
                22:57:B4:EA:3F:6C:31:1C:6C:9D:38:71:1F:65:F7:80:1F:E1:9B:96
            X509v3 Authority Key Identifier: 
                keyid:C4:21:D3:0E:55:8A:E3:CD:A8:0E:64:FA:06:2F:E5:09:80:1D:04:A1

    Signature Algorithm: bign-with-hbelt
         bd:fc:70:64:cc:4b:18:c9:d9:3d:3f:9f:70:e9:3a:ff:f0:2d:
         58:46:a4:68:b5:e9:ad:ab:42:7c:bc:26:e0:f4:bd:82:68:13:
         f7:09:92:26:68:fa:a6:4a:db:fe:a6:d8
-----BEGIN CERTIFICATE-----
MIICDzCCAcmgAwIBAgIBHTANBgkqcAACACJlLQwFADBlMRswGQYDVQQDDBJ3d3cu
bXlkb21fMjQ1NC5jb20xFTATBgNVBAoMDE15IERvbSwgSW5jLjELMAkGA1UEBhMC
VVMxDzANBgNVBAgMBk9yZWdvbjERMA8GA1UEBwwIUG9ydGxhbmQwHhcNMTQwOTA0
MTY1OTA4WhcNMTUwOTA0MTY1OTA4WjBNMQswCQYDVQQGEwJVUzEPMA0GA1UECAwG
T3JlZ29uMRUwEwYDVQQKDAxNeSBEb20sIEluYy4xFjAUBgNVBAMMDXd3dy5teWRv
bS5jb20wXTAYBgoqcAACACJlLQIBBgoqcAACACJlLQMBA0EA9yGdbN2TIIUFZlVx
lMMIcQSFSUHSdVQVGng0+tIFHsczTry5SQCHt2JKx7Rj+lOCCH7ITNPs38ueoE0K
MFp0YKN7MHkwCQYDVR0TBAIwADAsBglghkgBhvhCAQ0EHxYdT3BlblNTTCBHZW5l
cmF0ZWQgQ2VydGlmaWNhdGUwHQYDVR0OBBYEFCJXtOo/bDEcbJ04cR9l94Af4ZuW
MB8GA1UdIwQYMBaAFMQh0w5ViuPNqA5k+gYv5QmAHQShMA0GCSpwAAIAImUtDAUA
AzEAvfxwZMxLGMnZPT+fcOk6//AtWEakaLXpratCfLwm4PS9gmgT9wmSJmj6pkrb
/qbY
-----END CERTIFICATE-----
