Certificate:
    Data:
        Version: 3 (0x2)
        Serial Number: 30 (0x1e)
    Signature Algorithm: bign-with-hbelt
        Issuer: CN=www.mydom_2454.com, O=My Dom, Inc., C=US, ST=Oregon, L=Portland
        Validity
            Not Before: Sep  4 16:59:08 2014 GMT
            Not After : Sep  4 16:59:08 2015 GMT
        Subject: C=US, ST=Oregon, O=My Dom, Inc., CN=www.mydom.com
        Subject Public Key Info:
            Public Key Algorithm: bign-pubkey
                Public key: F7219D6CDD9320850566557194C3087104854941D27554151A7834FAD2051EC7334EBCB9490087B7624AC7B463FA5382087EC84CD3ECDFCB9EA04D0A305A7460
                Parameter set: bign-curve256v1
        X509v3 extensions:
            X509v3 Basic Constraints: 
                CA:FALSE
            Netscape Comment: 
                OpenSSL Generated Certificate
            X509v3 Subject Key Identifier: 
                22:57:B4:EA:3F:6C:31:1C:6C:9D:38:71:1F:65:F7:80:1F:E1:9B:96
            X509v3 Authority Key Identifier: 
                keyid:C4:21:D3:0E:55:8A:E3:CD:A8:0E:64:FA:06:2F:E5:09:80:1D:04:A1

    Signature Algorithm: bign-with-hbelt
         b3:c4:5d:f7:66:c3:a9:99:d8:ca:cb:68:30:7b:72:e4:c7:4f:
         4c:46:9e:3b:07:46:59:e2:e9:26:7e:c3:02:70:46:d6:2e:7d:
         74:97:91:61:18:33:6d:fa:dc:91:29:28
-----BEGIN CERTIFICATE-----
MIICDzCCAcmgAwIBAgIBHjANBgkqcAACACJlLQwFADBlMRswGQYDVQQDDBJ3d3cu
bXlkb21fMjQ1NC5jb20xFTATBgNVBAoMDE15IERvbSwgSW5jLjELMAkGA1UEBhMC
VVMxDzANBgNVBAgMBk9yZWdvbjERMA8GA1UEBwwIUG9ydGxhbmQwHhcNMTQwOTA0
MTY1OTA4WhcNMTUwOTA0MTY1OTA4WjBNMQswCQYDVQQGEwJVUzEPMA0GA1UECAwG
T3JlZ29uMRUwEwYDVQQKDAxNeSBEb20sIEluYy4xFjAUBgNVBAMMDXd3dy5teWRv
bS5jb20wXTAYBgoqcAACACJlLQIBBgoqcAACACJlLQMBA0EA9yGdbN2TIIUFZlVx
lMMIcQSFSUHSdVQVGng0+tIFHsczTry5SQCHt2JKx7Rj+lOCCH7ITNPs38ueoE0K
MFp0YKN7MHkwCQYDVR0TBAIwADAsBglghkgBhvhCAQ0EHxYdT3BlblNTTCBHZW5l
cmF0ZWQgQ2VydGlmaWNhdGUwHQYDVR0OBBYEFCJXtOo/bDEcbJ04cR9l94Af4ZuW
MB8GA1UdIwQYMBaAFMQh0w5ViuPNqA5k+gYv5QmAHQShMA0GCSpwAAIAImUtDAUA
AzEAs8Rd92bDqZnYystoMHty5MdPTEaeOwdGWeLpJn7DAnBG1i59dJeRYRgzbfrc
kSko
-----END CERTIFICATE-----
