Certificate:
    Data:
        Version: 3 (0x2)
        Serial Number: 31 (0x1f)
    Signature Algorithm: bign-with-hbelt
        Issuer: CN=www.mydom_4738.com, O=My Dom, Inc., C=US, ST=Oregon, L=Portland
        Validity
            Not Before: Sep  9 15:12:46 2014 GMT
            Not After : Sep  9 15:12:46 2015 GMT
        Subject: C=US, ST=Oregon, O=My Dom, Inc., CN=www.mydom.com
        Subject Public Key Info:
            Public Key Algorithm: bign-pubkey
                Public key: 7282146C3721739C030B7DCD6C71097EA0769198E6DECD52B86EFA0545C6D127ECE66D8F0CCDF51D5DCA978913B8BDD4A68561018238B0B5377BA6D1417055F2
                Parameter set: bign-curve256v1
        X509v3 extensions:
            X509v3 Basic Constraints: 
                CA:FALSE
            Netscape Comment: 
                OpenSSL Generated Certificate
            X509v3 Subject Key Identifier: 
                1F:84:63:DF:6E:2D:3A:1E:25:6F:48:3D:87:6F:53:30:F2:8E:6E:47
            X509v3 Authority Key Identifier: 
                keyid:AC:E1:18:C1:61:A0:5A:CC:BD:20:29:E8:54:D0:1D:27:DF:14:87:F8

    Signature Algorithm: bign-with-hbelt
         59:33:21:13:5d:39:0b:41:58:05:5f:24:76:9d:47:d5:13:14:
         1a:65:95:d1:a5:e7:2e:6f:5f:73:e2:1f:74:ca:de:e9:db:ef:
         98:5b:d9:bf:7c:5f:41:ba:dc:dc:15:6e
-----BEGIN CERTIFICATE-----
MIICDzCCAcmgAwIBAgIBHzANBgkqcAACACJlLQwFADBlMRswGQYDVQQDDBJ3d3cu
bXlkb21fNDczOC5jb20xFTATBgNVBAoMDE15IERvbSwgSW5jLjELMAkGA1UEBhMC
VVMxDzANBgNVBAgMBk9yZWdvbjERMA8GA1UEBwwIUG9ydGxhbmQwHhcNMTQwOTA5
MTUxMjQ2WhcNMTUwOTA5MTUxMjQ2WjBNMQswCQYDVQQGEwJVUzEPMA0GA1UECAwG
T3JlZ29uMRUwEwYDVQQKDAxNeSBEb20sIEluYy4xFjAUBgNVBAMMDXd3dy5teWRv
bS5jb20wXTAYBgoqcAACACJlLQIBBgoqcAACACJlLQMBA0EAcoIUbDchc5wDC33N
bHEJfqB2kZjm3s1SuG76BUXG0Sfs5m2PDM31HV3Kl4kTuL3UpoVhAYI4sLU3e6bR
QXBV8qN7MHkwCQYDVR0TBAIwADAsBglghkgBhvhCAQ0EHxYdT3BlblNTTCBHZW5l
cmF0ZWQgQ2VydGlmaWNhdGUwHQYDVR0OBBYEFB+EY99uLToeJW9IPYdvUzDyjm5H
MB8GA1UdIwQYMBaAFKzhGMFhoFrMvSAp6FTQHSffFIf4MA0GCSpwAAIAImUtDAUA
AzEAWTMhE105C0FYBV8kdp1H1RMUGmWV0aXnLm9fc+IfdMre6dvvmFvZv3xfQbrc
3BVu
-----END CERTIFICATE-----
