Certificate:
    Data:
        Version: 3 (0x2)
        Serial Number: 32 (0x20)
    Signature Algorithm: bign-with-hbelt
        Issuer: CN=www.mydom_866.com, O=My Dom, Inc., C=US, ST=Oregon, L=Portland
        Validity
            Not Before: Sep  9 15:12:46 2014 GMT
            Not After : Sep  9 15:12:46 2015 GMT
        Subject: C=US, ST=Oregon, O=My Dom, Inc., CN=www.mydom.com
        Subject Public Key Info:
            Public Key Algorithm: bign-pubkey
                Public key: E6E9D9324DF352ACB14003ACAE002DB9C328A1F3D71418F61A424138727EEB5ACDBC20CF3BE493C2818A87FB3985FCFD35FDA96D158D05FAA4AF0AD5A29C2624
                Parameter set: bign-curve256v1
        X509v3 extensions:
            X509v3 Basic Constraints: 
                CA:FALSE
            Netscape Comment: 
                OpenSSL Generated Certificate
            X509v3 Subject Key Identifier: 
                02:4A:B7:0D:0E:FA:03:4A:49:D4:67:FB:67:55:6B:75:7F:74:95:BF
            X509v3 Authority Key Identifier: 
                keyid:04:0C:C3:22:96:CE:3A:58:82:CC:6E:20:DC:64:E2:EB:3E:08:EA:66

    Signature Algorithm: bign-with-hbelt
         9e:23:63:e7:c2:c7:1f:e4:d0:5f:c6:48:0c:31:f5:d3:fc:b6:
         90:b4:af:77:31:54:51:24:48:77:00:46:e8:ee:24:8c:ac:f2:
         a4:87:27:6a:f4:80:29:78:7e:fb:ad:9a
-----BEGIN CERTIFICATE-----
MIICDjCCAcigAwIBAgIBIDANBgkqcAACACJlLQwFADBkMRowGAYDVQQDDBF3d3cu
bXlkb21fODY2LmNvbTEVMBMGA1UECgwMTXkgRG9tLCBJbmMuMQswCQYDVQQGEwJV
UzEPMA0GA1UECAwGT3JlZ29uMREwDwYDVQQHDAhQb3J0bGFuZDAeFw0xNDA5MDkx
NTEyNDZaFw0xNTA5MDkxNTEyNDZaME0xCzAJBgNVBAYTAlVTMQ8wDQYDVQQIDAZP
cmVnb24xFTATBgNVBAoMDE15IERvbSwgSW5jLjEWMBQGA1UEAwwNd3d3Lm15ZG9t
LmNvbTBdMBgGCipwAAIAImUtAgEGCipwAAIAImUtAwEDQQDm6dkyTfNSrLFAA6yu
AC25wyih89cUGPYaQkE4cn7rWs28IM875JPCgYqH+zmF/P01/altFY0F+qSvCtWi
nCYko3sweTAJBgNVHRMEAjAAMCwGCWCGSAGG+EIBDQQfFh1PcGVuU1NMIEdlbmVy
YXRlZCBDZXJ0aWZpY2F0ZTAdBgNVHQ4EFgQUAkq3DQ76A0pJ1Gf7Z1VrdX90lb8w
HwYDVR0jBBgwFoAUBAzDIpbOOliCzG4g3GTi6z4I6mYwDQYJKnAAAgAiZS0MBQAD
MQCeI2Pnwscf5NBfxkgMMfXT/LaQtK93MVRRJEh3AEbo7iSMrPKkhydq9IApeH77
rZo=
-----END CERTIFICATE-----
