Certificate:
    Data:
        Version: 3 (0x2)
        Serial Number: 33 (0x21)
    Signature Algorithm: bign-with-hbelt
        Issuer: CN=www.mydom_866.com, O=My Dom, Inc., C=US, ST=Oregon, L=Portland
        Validity
            Not Before: Sep  9 15:12:46 2014 GMT
            Not After : Sep  9 15:12:46 2015 GMT
        Subject: C=US, ST=Oregon, O=My Dom, Inc., CN=www.mydom.com
        Subject Public Key Info:
            Public Key Algorithm: bign-pubkey
                Public key: E6E9D9324DF352ACB14003ACAE002DB9C328A1F3D71418F61A424138727EEB5ACDBC20CF3BE493C2818A87FB3985FCFD35FDA96D158D05FAA4AF0AD5A29C2624
                Parameter set: bign-curve256v1
        X509v3 extensions:
            X509v3 Basic Constraints: 
                CA:FALSE
            Netscape Comment: 
                OpenSSL Generated Certificate
            X509v3 Subject Key Identifier: 
                02:4A:B7:0D:0E:FA:03:4A:49:D4:67:FB:67:55:6B:75:7F:74:95:BF
            X509v3 Authority Key Identifier: 
                keyid:04:0C:C3:22:96:CE:3A:58:82:CC:6E:20:DC:64:E2:EB:3E:08:EA:66

    Signature Algorithm: bign-with-hbelt
         d7:79:b1:9a:ca:dc:2d:15:f8:d9:61:f4:e8:0f:6d:b4:ff:b1:
         49:be:6b:61:d1:6a:1a:44:88:29:75:82:9c:61:d2:ab:00:d6:
         77:64:14:87:c1:27:88:9b:82:07:b4:5b
-----BEGIN CERTIFICATE-----
MIICDjCCAcigAwIBAgIBITANBgkqcAACACJlLQwFADBkMRowGAYDVQQDDBF3d3cu
bXlkb21fODY2LmNvbTEVMBMGA1UECgwMTXkgRG9tLCBJbmMuMQswCQYDVQQGEwJV
UzEPMA0GA1UECAwGT3JlZ29uMREwDwYDVQQHDAhQb3J0bGFuZDAeFw0xNDA5MDkx
NTEyNDZaFw0xNTA5MDkxNTEyNDZaME0xCzAJBgNVBAYTAlVTMQ8wDQYDVQQIDAZP
cmVnb24xFTATBgNVBAoMDE15IERvbSwgSW5jLjEWMBQGA1UEAwwNd3d3Lm15ZG9t
LmNvbTBdMBgGCipwAAIAImUtAgEGCipwAAIAImUtAwEDQQDm6dkyTfNSrLFAA6yu
AC25wyih89cUGPYaQkE4cn7rWs28IM875JPCgYqH+zmF/P01/altFY0F+qSvCtWi
nCYko3sweTAJBgNVHRMEAjAAMCwGCWCGSAGG+EIBDQQfFh1PcGVuU1NMIEdlbmVy
YXRlZCBDZXJ0aWZpY2F0ZTAdBgNVHQ4EFgQUAkq3DQ76A0pJ1Gf7Z1VrdX90lb8w
HwYDVR0jBBgwFoAUBAzDIpbOOliCzG4g3GTi6z4I6mYwDQYJKnAAAgAiZS0MBQAD
MQDXebGaytwtFfjZYfToD220/7FJvmth0WoaRIgpdYKcYdKrANZ3ZBSHwSeIm4IH
tFs=
-----END CERTIFICATE-----
