Certificate:
    Data:
        Version: 3 (0x2)
        Serial Number: 34 (0x22)
    Signature Algorithm: bign-with-hbelt
        Issuer: CN=www.mydom_2783.com, O=My Dom, Inc., C=US, ST=Oregon, L=Portland
        Validity
            Not Before: Sep  9 15:13:21 2014 GMT
            Not After : Sep  9 15:13:21 2015 GMT
        Subject: C=US, ST=Oregon, O=My Dom, Inc., CN=www.mydom.com
        Subject Public Key Info:
            Public Key Algorithm: bign-pubkey
                Public key: EE4465BE48C94FC2BA088DF573C724FBA87519923374862BA77D69F58A99ABD75E2603B9EE015D7B1B7440B2C3070ECE25421A3260D667B7E922D206E4A55E86
                Parameter set: bign-curve256v1
        X509v3 extensions:
            X509v3 Basic Constraints: 
                CA:FALSE
            Netscape Comment: 
                OpenSSL Generated Certificate
            X509v3 Subject Key Identifier: 
                19:B2:9B:A8:11:B3:93:2A:58:A7:34:C4:57:F2:46:F6:01:8D:C0:60
            X509v3 Authority Key Identifier: 
                keyid:B2:AF:45:B8:B6:CC:3D:C3:1E:EB:33:B3:AE:EB:46:A3:65:33:CA:D8

    Signature Algorithm: bign-with-hbelt
         8e:c0:ff:29:68:52:ae:bc:fa:f0:2d:e0:35:46:87:74:18:43:
         16:0b:c0:3d:e5:ce:00:02:ed:9b:ea:02:07:cc:35:0e:f2:13:
         61:53:8b:ea:1f:47:88:0f:36:7b:2d:86
-----BEGIN CERTIFICATE-----
MIICDzCCAcmgAwIBAgIBIjANBgkqcAACACJlLQwFADBlMRswGQYDVQQDDBJ3d3cu
bXlkb21fMjc4My5jb20xFTATBgNVBAoMDE15IERvbSwgSW5jLjELMAkGA1UEBhMC
VVMxDzANBgNVBAgMBk9yZWdvbjERMA8GA1UEBwwIUG9ydGxhbmQwHhcNMTQwOTA5
MTUxMzIxWhcNMTUwOTA5MTUxMzIxWjBNMQswCQYDVQQGEwJVUzEPMA0GA1UECAwG
T3JlZ29uMRUwEwYDVQQKDAxNeSBEb20sIEluYy4xFjAUBgNVBAMMDXd3dy5teWRv
bS5jb20wXTAYBgoqcAACACJlLQIBBgoqcAACACJlLQMBA0EA7kRlvkjJT8K6CI31
c8ck+6h1GZIzdIYrp31p9YqZq9deJgO57gFdext0QLLDBw7OJUIaMmDWZ7fpItIG
5KVehqN7MHkwCQYDVR0TBAIwADAsBglghkgBhvhCAQ0EHxYdT3BlblNTTCBHZW5l
cmF0ZWQgQ2VydGlmaWNhdGUwHQYDVR0OBBYEFBmym6gRs5MqWKc0xFfyRvYBjcBg
MB8GA1UdIwQYMBaAFLKvRbi2zD3DHuszs67rRqNlM8rYMA0GCSpwAAIAImUtDAUA
AzEAjsD/KWhSrrz68C3gNUaHdBhDFgvAPeXOAALtm+oCB8w1DvITYVOL6h9HiA82
ey2G
-----END CERTIFICATE-----
