Certificate:
    Data:
        Version: 3 (0x2)
        Serial Number: 35 (0x23)
    Signature Algorithm: bign-with-hbelt
        Issuer: CN=www.mydom_7705.com, O=My Dom, Inc., C=US, ST=Oregon, L=Portland
        Validity
            Not Before: Sep  9 15:13:21 2014 GMT
            Not After : Sep  9 15:13:21 2015 GMT
        Subject: C=US, ST=Oregon, O=My Dom, Inc., CN=www.mydom.com
        Subject Public Key Info:
            Public Key Algorithm: bign-pubkey
                Public key: 17A1138AE607EDB2A4B67C6FF20D8ECF854C1EF36B157F4758E83C2A280842FB99252B3B33EF893B262A5F0827E99F8AA7BA8C1A0DE120162280C9757B66959B
                Parameter set: bign-curve256v1
        X509v3 extensions:
            X509v3 Basic Constraints: 
                CA:FALSE
            Netscape Comment: 
                OpenSSL Generated Certificate
            X509v3 Subject Key Identifier: 
                B2:C7:1D:E9:47:3C:04:75:FB:EE:90:9E:3A:F5:D6:68:9C:C6:4D:45
            X509v3 Authority Key Identifier: 
                keyid:1A:01:3E:67:7C:11:01:94:1F:12:C5:2C:EE:DC:A9:3A:B6:1A:0A:94

    Signature Algorithm: bign-with-hbelt
         22:96:9a:72:3c:fb:da:3b:01:bc:e1:6d:a0:5a:78:49:be:89:
         98:56:b7:c2:d1:52:0a:f0:f0:92:aa:f1:6e:c3:8d:3f:7c:be:
         3c:b1:b3:ea:c8:72:95:c5:f2:fc:8f:52
-----BEGIN CERTIFICATE-----
MIICDzCCAcmgAwIBAgIBIzANBgkqcAACACJlLQwFADBlMRswGQYDVQQDDBJ3d3cu
bXlkb21fNzcwNS5jb20xFTATBgNVBAoMDE15IERvbSwgSW5jLjELMAkGA1UEBhMC
VVMxDzANBgNVBAgMBk9yZWdvbjERMA8GA1UEBwwIUG9ydGxhbmQwHhcNMTQwOTA5
MTUxMzIxWhcNMTUwOTA5MTUxMzIxWjBNMQswCQYDVQQGEwJVUzEPMA0GA1UECAwG
T3JlZ29uMRUwEwYDVQQKDAxNeSBEb20sIEluYy4xFjAUBgNVBAMMDXd3dy5teWRv
bS5jb20wXTAYBgoqcAACACJlLQIBBgoqcAACACJlLQMBA0EAF6ETiuYH7bKktnxv
8g2Oz4VMHvNrFX9HWOg8KigIQvuZJSs7M++JOyYqXwgn6Z+Kp7qMGg3hIBYigMl1
e2aVm6N7MHkwCQYDVR0TBAIwADAsBglghkgBhvhCAQ0EHxYdT3BlblNTTCBHZW5l
cmF0ZWQgQ2VydGlmaWNhdGUwHQYDVR0OBBYEFLLHHelHPAR1++6Qnjr11micxk1F
MB8GA1UdIwQYMBaAFBoBPmd8EQGUHxLFLO7cqTq2GgqUMA0GCSpwAAIAImUtDAUA
AzEAIpaacjz72jsBvOFtoFp4Sb6JmFa3wtFSCvDwkqrxbsONP3y+PLGz6shylcXy
/I9S
-----END CERTIFICATE-----
