Certificate:
    Data:
        Version: 3 (0x2)
        Serial Number: 37 (0x25)
    Signature Algorithm: bign-with-hbelt
        Issuer: CN=www.mydom_3037.com, O=My Dom, Inc., C=US, ST=Oregon, L=Portland
        Validity
            Not Before: Sep  9 15:14:55 2014 GMT
            Not After : Sep  9 15:14:55 2015 GMT
        Subject: C=US, ST=Oregon, O=My Dom, Inc., CN=www.mydom.com
        Subject Public Key Info:
            Public Key Algorithm: bign-pubkey
                Public key: A1C655EF4D06C72823032695A4553054CE6C1096457CBD5A46BD762FE2AF122FCB6ED731F1400C2C1E8A9128320127D50858805ACBA286F9642412A9DBA6C8CC
                Parameter set: bign-curve256v1
        X509v3 extensions:
            X509v3 Basic Constraints: 
                CA:FALSE
            Netscape Comment: 
                OpenSSL Generated Certificate
            X509v3 Subject Key Identifier: 
                FF:E9:74:B1:03:95:EC:07:0D:A1:DA:27:15:AF:5B:08:5E:63:A3:DF
            X509v3 Authority Key Identifier: 
                keyid:2D:0B:65:37:A2:CA:83:53:6C:CF:6C:07:5D:61:65:FB:C4:21:6C:21

    Signature Algorithm: bign-with-hbelt
         c8:32:9e:86:f4:2c:0d:ca:18:a1:e3:b8:dc:4c:30:a8:01:aa:
         d0:69:3a:23:13:79:29:9d:bf:a3:e2:1b:86:19:e1:74:7f:39:
         98:a2:d4:16:73:09:73:45:e6:5c:f3:5c
-----BEGIN CERTIFICATE-----
MIICDzCCAcmgAwIBAgIBJTANBgkqcAACACJlLQwFADBlMRswGQYDVQQDDBJ3d3cu
bXlkb21fMzAzNy5jb20xFTATBgNVBAoMDE15IERvbSwgSW5jLjELMAkGA1UEBhMC
VVMxDzANBgNVBAgMBk9yZWdvbjERMA8GA1UEBwwIUG9ydGxhbmQwHhcNMTQwOTA5
MTUxNDU1WhcNMTUwOTA5MTUxNDU1WjBNMQswCQYDVQQGEwJVUzEPMA0GA1UECAwG
T3JlZ29uMRUwEwYDVQQKDAxNeSBEb20sIEluYy4xFjAUBgNVBAMMDXd3dy5teWRv
bS5jb20wXTAYBgoqcAACACJlLQIBBgoqcAACACJlLQMBA0EAocZV700GxygjAyaV
pFUwVM5sEJZFfL1aRr12L+KvEi/Lbtcx8UAMLB6KkSgyASfVCFiAWsuihvlkJBKp
26bIzKN7MHkwCQYDVR0TBAIwADAsBglghkgBhvhCAQ0EHxYdT3BlblNTTCBHZW5l
cmF0ZWQgQ2VydGlmaWNhdGUwHQYDVR0OBBYEFP/pdLEDlewHDaHaJxWvWwheY6Pf
MB8GA1UdIwQYMBaAFC0LZTeiyoNTbM9sB11hZfvEIWwhMA0GCSpwAAIAImUtDAUA
AzEAyDKehvQsDcoYoeO43EwwqAGq0Gk6IxN5KZ2/o+IbhhnhdH85mKLUFnMJc0Xm
XPNc
-----END CERTIFICATE-----
