Certificate:
    Data:
        Version: 3 (0x2)
        Serial Number: 38 (0x26)
    Signature Algorithm: bign-with-hbelt
        Issuer: CN=www.mydom_387.com, O=My Dom, Inc., C=US, ST=Oregon, L=Portland
        Validity
            Not Before: Sep  9 15:14:55 2014 GMT
            Not After : Sep  9 15:14:55 2015 GMT
        Subject: C=US, ST=Oregon, O=My Dom, Inc., CN=www.mydom.com
        Subject Public Key Info:
            Public Key Algorithm: bign-pubkey
                Public key: C588507187D1C68BC2A401B47ACEEA3C4776C180788F9FD5B791298C5E20633A89293A67631951BE4532D90E6A8D591170A818B4FE45CB475721593FBEE8EF01
                Parameter set: bign-curve256v1
        X509v3 extensions:
            X509v3 Basic Constraints: 
                CA:FALSE
            Netscape Comment: 
                OpenSSL Generated Certificate
            X509v3 Subject Key Identifier: 
                52:3A:D3:C5:B6:9B:71:50:E3:55:7F:68:80:54:44:EE:42:E2:A7:AB
            X509v3 Authority Key Identifier: 
                keyid:FA:39:3C:22:FD:CE:79:66:32:DB:48:2C:3D:6D:43:FF:3E:B2:6F:30

    Signature Algorithm: bign-with-hbelt
         35:8c:55:b2:ed:36:c2:a3:63:c4:96:03:3e:8d:9c:ed:f6:3f:
         38:69:07:5c:6d:ac:a7:d6:e5:48:b7:1c:75:d2:4b:7f:15:fb:
         fa:d8:9a:7e:9c:ff:c8:0e:73:ed:64:1e
-----BEGIN CERTIFICATE-----
MIICDjCCAcigAwIBAgIBJjANBgkqcAACACJlLQwFADBkMRowGAYDVQQDDBF3d3cu
bXlkb21fMzg3LmNvbTEVMBMGA1UECgwMTXkgRG9tLCBJbmMuMQswCQYDVQQGEwJV
UzEPMA0GA1UECAwGT3JlZ29uMREwDwYDVQQHDAhQb3J0bGFuZDAeFw0xNDA5MDkx
NTE0NTVaFw0xNTA5MDkxNTE0NTVaME0xCzAJBgNVBAYTAlVTMQ8wDQYDVQQIDAZP
cmVnb24xFTATBgNVBAoMDE15IERvbSwgSW5jLjEWMBQGA1UEAwwNd3d3Lm15ZG9t
LmNvbTBdMBgGCipwAAIAImUtAgEGCipwAAIAImUtAwEDQQDFiFBxh9HGi8KkAbR6
zuo8R3bBgHiPn9W3kSmMXiBjOokpOmdjGVG+RTLZDmqNWRFwqBi0/kXLR1chWT++
6O8Bo3sweTAJBgNVHRMEAjAAMCwGCWCGSAGG+EIBDQQfFh1PcGVuU1NMIEdlbmVy
YXRlZCBDZXJ0aWZpY2F0ZTAdBgNVHQ4EFgQUUjrTxbabcVDjVX9ogFRE7kLip6sw
HwYDVR0jBBgwFoAU+jk8Iv3OeWYy20gsPW1D/z6ybzAwDQYJKnAAAgAiZS0MBQAD
MQA1jFWy7TbCo2PElgM+jZzt9j84aQdcbayn1uVItxx10kt/Ffv62Jp+nP/IDnPt
ZB4=
-----END CERTIFICATE-----
