Certificate:
    Data:
        Version: 3 (0x2)
        Serial Number: 39 (0x27)
    Signature Algorithm: bign-with-hbelt
        Issuer: CN=www.mydom_387.com, O=My Dom, Inc., C=US, ST=Oregon, L=Portland
        Validity
            Not Before: Sep  9 15:14:55 2014 GMT
            Not After : Sep  9 15:14:55 2015 GMT
        Subject: C=US, ST=Oregon, O=My Dom, Inc., CN=www.mydom.com
        Subject Public Key Info:
            Public Key Algorithm: bign-pubkey
                Public key: C588507187D1C68BC2A401B47ACEEA3C4776C180788F9FD5B791298C5E20633A89293A67631951BE4532D90E6A8D591170A818B4FE45CB475721593FBEE8EF01
                Parameter set: bign-curve256v1
        X509v3 extensions:
            X509v3 Basic Constraints: 
                CA:FALSE
            Netscape Comment: 
                OpenSSL Generated Certificate
            X509v3 Subject Key Identifier: 
                52:3A:D3:C5:B6:9B:71:50:E3:55:7F:68:80:54:44:EE:42:E2:A7:AB
            X509v3 Authority Key Identifier: 
                keyid:FA:39:3C:22:FD:CE:79:66:32:DB:48:2C:3D:6D:43:FF:3E:B2:6F:30

    Signature Algorithm: bign-with-hbelt
         60:3f:b0:93:37:48:54:8a:86:d0:7b:4b:13:86:4f:5e:e5:b7:
         fd:93:a6:42:d3:ff:b3:ea:5d:0c:43:fe:0f:87:36:47:a6:f4:
         e2:76:9a:1c:f4:af:a8:18:13:a6:5b:80
-----BEGIN CERTIFICATE-----
MIICDjCCAcigAwIBAgIBJzANBgkqcAACACJlLQwFADBkMRowGAYDVQQDDBF3d3cu
bXlkb21fMzg3LmNvbTEVMBMGA1UECgwMTXkgRG9tLCBJbmMuMQswCQYDVQQGEwJV
UzEPMA0GA1UECAwGT3JlZ29uMREwDwYDVQQHDAhQb3J0bGFuZDAeFw0xNDA5MDkx
NTE0NTVaFw0xNTA5MDkxNTE0NTVaME0xCzAJBgNVBAYTAlVTMQ8wDQYDVQQIDAZP
cmVnb24xFTATBgNVBAoMDE15IERvbSwgSW5jLjEWMBQGA1UEAwwNd3d3Lm15ZG9t
LmNvbTBdMBgGCipwAAIAImUtAgEGCipwAAIAImUtAwEDQQDFiFBxh9HGi8KkAbR6
zuo8R3bBgHiPn9W3kSmMXiBjOokpOmdjGVG+RTLZDmqNWRFwqBi0/kXLR1chWT++
6O8Bo3sweTAJBgNVHRMEAjAAMCwGCWCGSAGG+EIBDQQfFh1PcGVuU1NMIEdlbmVy
YXRlZCBDZXJ0aWZpY2F0ZTAdBgNVHQ4EFgQUUjrTxbabcVDjVX9ogFRE7kLip6sw
HwYDVR0jBBgwFoAU+jk8Iv3OeWYy20gsPW1D/z6ybzAwDQYJKnAAAgAiZS0MBQAD
MQBgP7CTN0hUiobQe0sThk9e5bf9k6ZC0/+z6l0MQ/4PhzZHpvTidpoc9K+oGBOm
W4A=
-----END CERTIFICATE-----
