Certificate:
    Data:
        Version: 3 (0x2)
        Serial Number: 40 (0x28)
    Signature Algorithm: bign-with-hbelt
        Issuer: CN=www.mydom_9798.com, O=My Dom, Inc., C=US, ST=Oregon, L=Portland
        Validity
            Not Before: Sep  9 15:14:58 2014 GMT
            Not After : Sep  9 15:14:58 2015 GMT
        Subject: C=US, ST=Oregon, O=My Dom, Inc., CN=www.mydom.com
        Subject Public Key Info:
            Public Key Algorithm: bign-pubkey
                Public key: 7FBEFF6F99E3E0BFE6053C91F8D34E3F6BCD82385A20E89D49755501EE1E8D4BC7DBC760C378EB57CBCAB5EDD545630F8742443C23EF59E4D6FE6178DC247668
                Parameter set: bign-curve256v1
        X509v3 extensions:
            X509v3 Basic Constraints: 
                CA:FALSE
            Netscape Comment: 
                OpenSSL Generated Certificate
            X509v3 Subject Key Identifier: 
                BF:AE:76:BE:B7:57:78:07:4C:A4:7F:F5:1E:E7:BA:7F:07:B6:B2:09
            X509v3 Authority Key Identifier: 
                keyid:21:8E:98:6E:2E:AB:B7:F8:CC:BA:66:A2:96:5B:35:28:01:6E:6B:DB

    Signature Algorithm: bign-with-hbelt
         0d:0d:6a:9c:a3:cb:a1:15:56:aa:75:47:ee:19:df:69:21:0d:
         ef:06:e1:83:e9:43:1f:10:d5:fe:a6:63:07:4e:45:77:66:1b:
         33:c9:eb:82:80:0c:1e:fb:3d:4e:ee:fd
-----BEGIN CERTIFICATE-----
MIICDzCCAcmgAwIBAgIBKDANBgkqcAACACJlLQwFADBlMRswGQYDVQQDDBJ3d3cu
bXlkb21fOTc5OC5jb20xFTATBgNVBAoMDE15IERvbSwgSW5jLjELMAkGA1UEBhMC
VVMxDzANBgNVBAgMBk9yZWdvbjERMA8GA1UEBwwIUG9ydGxhbmQwHhcNMTQwOTA5
MTUxNDU4WhcNMTUwOTA5MTUxNDU4WjBNMQswCQYDVQQGEwJVUzEPMA0GA1UECAwG
T3JlZ29uMRUwEwYDVQQKDAxNeSBEb20sIEluYy4xFjAUBgNVBAMMDXd3dy5teWRv
bS5jb20wXTAYBgoqcAACACJlLQIBBgoqcAACACJlLQMBA0EAf77/b5nj4L/mBTyR
+NNOP2vNgjhaIOidSXVVAe4ejUvH28dgw3jrV8vKte3VRWMPh0JEPCPvWeTW/mF4
3CR2aKN7MHkwCQYDVR0TBAIwADAsBglghkgBhvhCAQ0EHxYdT3BlblNTTCBHZW5l
cmF0ZWQgQ2VydGlmaWNhdGUwHQYDVR0OBBYEFL+udr63V3gHTKR/9R7nun8HtrIJ
MB8GA1UdIwQYMBaAFCGOmG4uq7f4zLpmopZbNSgBbmvbMA0GCSpwAAIAImUtDAUA
AzEADQ1qnKPLoRVWqnVH7hnfaSEN7wbhg+lDHxDV/qZjB05Fd2YbM8nrgoAMHvs9
Tu79
-----END CERTIFICATE-----
