Certificate:
    Data:
        Version: 3 (0x2)
        Serial Number: 42 (0x2a)
    Signature Algorithm: bign-with-hbelt
        Issuer: CN=www.mydom_54.com, O=My Dom, Inc., C=US, ST=Oregon, L=Portland
        Validity
            Not Before: Sep  9 15:14:59 2014 GMT
            Not After : Sep  9 15:14:59 2015 GMT
        Subject: C=US, ST=Oregon, O=My Dom, Inc., CN=www.mydom.com
        Subject Public Key Info:
            Public Key Algorithm: bign-pubkey
                Public key: E2C73526418952666949CE0D012F5E7724990D440FA76BD9C0BD48619ADE63B5CAC6D96628AAEA8C5F98F991D55A29D6358014182D2B86213810FCDB3E203B54
                Parameter set: bign-curve256v1
        X509v3 extensions:
            X509v3 Basic Constraints: 
                CA:FALSE
            Netscape Comment: 
                OpenSSL Generated Certificate
            X509v3 Subject Key Identifier: 
                54:B3:0F:39:DA:5C:77:DC:77:69:04:2E:B2:8F:CE:41:85:75:F2:4C
            X509v3 Authority Key Identifier: 
                keyid:9B:EE:5B:5B:5B:47:56:D5:FC:F2:39:09:83:FC:17:BC:E4:36:59:F0

    Signature Algorithm: bign-with-hbelt
         d7:6c:50:05:40:b6:e9:dd:ea:87:84:9d:97:41:67:28:60:e0:
         cc:df:ad:72:ec:cf:86:f5:92:a0:e1:5e:51:ec:d7:35:67:ae:
         cc:ac:6e:a3:41:95:23:2d:69:dc:70:bb
-----BEGIN CERTIFICATE-----
MIICDTCCAcegAwIBAgIBKjANBgkqcAACACJlLQwFADBjMRkwFwYDVQQDDBB3d3cu
bXlkb21fNTQuY29tMRUwEwYDVQQKDAxNeSBEb20sIEluYy4xCzAJBgNVBAYTAlVT
MQ8wDQYDVQQIDAZPcmVnb24xETAPBgNVBAcMCFBvcnRsYW5kMB4XDTE0MDkwOTE1
MTQ1OVoXDTE1MDkwOTE1MTQ1OVowTTELMAkGA1UEBhMCVVMxDzANBgNVBAgMBk9y
ZWdvbjEVMBMGA1UECgwMTXkgRG9tLCBJbmMuMRYwFAYDVQQDDA13d3cubXlkb20u
Y29tMF0wGAYKKnAAAgAiZS0CAQYKKnAAAgAiZS0DAQNBAOLHNSZBiVJmaUnODQEv
XnckmQ1ED6dr2cC9SGGa3mO1ysbZZiiq6oxfmPmR1Vop1jWAFBgtK4YhOBD82z4g
O1SjezB5MAkGA1UdEwQCMAAwLAYJYIZIAYb4QgENBB8WHU9wZW5TU0wgR2VuZXJh
dGVkIENlcnRpZmljYXRlMB0GA1UdDgQWBBRUsw852lx33HdpBC6yj85BhXXyTDAf
BgNVHSMEGDAWgBSb7ltbW0dW1fzyOQmD/Be85DZZ8DANBgkqcAACACJlLQwFAAMx
ANdsUAVAtund6oeEnZdBZyhg4MzfrXLsz4b1kqDhXlHs1zVnrsysbqNBlSMtadxw
uw==
-----END CERTIFICATE-----
