Certificate:
    Data:
        Version: 3 (0x2)
        Serial Number: 43 (0x2b)
    Signature Algorithm: bign-with-hbelt
        Issuer: CN=www.mydom_9370.com, O=My Dom, Inc., C=US, ST=Oregon, L=Portland
        Validity
            Not Before: Sep 10 09:17:55 2014 GMT
            Not After : Sep 10 09:17:55 2015 GMT
        Subject: C=US, ST=Oregon, O=My Dom, Inc., CN=www.mydom.com
        Subject Public Key Info:
            Public Key Algorithm: bign-pubkey
                Public key: 058648B9D75C17A9178289EFE0D1467E0560E0D13B0598D05A84C6D86FD037B858982326A3FCA4F4DC6855E9DF45FDF361658F803DB803B1E90E8770CE10A2F8
                Parameter set: bign-curve256v1
        X509v3 extensions:
            X509v3 Basic Constraints: 
                CA:FALSE
            Netscape Comment: 
                OpenSSL Generated Certificate
            X509v3 Subject Key Identifier: 
                94:4E:85:64:5F:5D:60:16:52:E7:60:FA:9B:02:1D:08:01:EB:AA:6A
            X509v3 Authority Key Identifier: 
                keyid:F5:92:5C:0E:4B:3C:01:C7:8E:05:08:87:1F:2D:45:F7:2E:35:D9:10

    Signature Algorithm: bign-with-hbelt
         ac:f0:90:70:8c:2b:54:55:c6:7d:3c:ad:fb:01:5a:f0:57:eb:
         0f:2f:40:94:4c:65:2c:64:1b:b7:05:52:02:85:07:58:dd:00:
         bd:41:a5:6e:b1:81:42:0c:45:db:2d:5a
-----BEGIN CERTIFICATE-----
MIICDzCCAcmgAwIBAgIBKzANBgkqcAACACJlLQwFADBlMRswGQYDVQQDDBJ3d3cu
bXlkb21fOTM3MC5jb20xFTATBgNVBAoMDE15IERvbSwgSW5jLjELMAkGA1UEBhMC
VVMxDzANBgNVBAgMBk9yZWdvbjERMA8GA1UEBwwIUG9ydGxhbmQwHhcNMTQwOTEw
MDkxNzU1WhcNMTUwOTEwMDkxNzU1WjBNMQswCQYDVQQGEwJVUzEPMA0GA1UECAwG
T3JlZ29uMRUwEwYDVQQKDAxNeSBEb20sIEluYy4xFjAUBgNVBAMMDXd3dy5teWRv
bS5jb20wXTAYBgoqcAACACJlLQIBBgoqcAACACJlLQMBA0EABYZIuddcF6kXgonv
4NFGfgVg4NE7BZjQWoTG2G/QN7hYmCMmo/yk9NxoVenfRf3zYWWPgD24A7HpDodw
zhCi+KN7MHkwCQYDVR0TBAIwADAsBglghkgBhvhCAQ0EHxYdT3BlblNTTCBHZW5l
cmF0ZWQgQ2VydGlmaWNhdGUwHQYDVR0OBBYEFJROhWRfXWAWUudg+psCHQgB66pq
MB8GA1UdIwQYMBaAFPWSXA5LPAHHjgUIhx8tRfcuNdkQMA0GCSpwAAIAImUtDAUA
AzEArPCQcIwrVFXGfTyt+wFa8FfrDy9AlExlLGQbtwVSAoUHWN0AvUGlbrGBQgxF
2y1a
-----END CERTIFICATE-----
