Certificate:
    Data:
        Version: 3 (0x2)
        Serial Number: 45 (0x2d)
    Signature Algorithm: bign-with-hbelt
        Issuer: CN=www.mydom_3832.com, O=My Dom, Inc., C=US, ST=Oregon, L=Portland
        Validity
            Not Before: Sep 10 09:17:55 2014 GMT
            Not After : Sep 10 09:17:55 2015 GMT
        Subject: C=US, ST=Oregon, O=My Dom, Inc., CN=www.mydom.com
        Subject Public Key Info:
            Public Key Algorithm: bign-pubkey
                Public key: 6335C1F1B339CC283EB9C6E328ABA320D1916E02A9A37C2998474072B9FA7D99A5F9820CFF497424A3BCDE6F4BAB0D348D9E2631CE91078415C25ECE894B7819
                Parameter set: bign-curve256v1
        X509v3 extensions:
            X509v3 Basic Constraints: 
                CA:FALSE
            Netscape Comment: 
                OpenSSL Generated Certificate
            X509v3 Subject Key Identifier: 
                5D:EA:AE:67:31:3B:48:74:FC:28:DB:EB:91:E3:EF:A1:7B:F0:FE:46
            X509v3 Authority Key Identifier: 
                keyid:40:54:91:61:24:29:93:53:68:9E:67:DD:8C:C0:F4:35:E6:E1:F8:23

    Signature Algorithm: bign-with-hbelt
         7f:90:d5:d4:11:70:18:ac:fc:23:0a:df:98:e2:68:8b:d9:25:
         2d:b5:f7:01:d0:f2:8a:dd:04:fe:76:6a:af:26:3c:3d:bf:78:
         90:a0:7a:3d:c6:be:d6:9b:76:51:4e:b3
-----BEGIN CERTIFICATE-----
MIICDzCCAcmgAwIBAgIBLTANBgkqcAACACJlLQwFADBlMRswGQYDVQQDDBJ3d3cu
bXlkb21fMzgzMi5jb20xFTATBgNVBAoMDE15IERvbSwgSW5jLjELMAkGA1UEBhMC
VVMxDzANBgNVBAgMBk9yZWdvbjERMA8GA1UEBwwIUG9ydGxhbmQwHhcNMTQwOTEw
MDkxNzU1WhcNMTUwOTEwMDkxNzU1WjBNMQswCQYDVQQGEwJVUzEPMA0GA1UECAwG
T3JlZ29uMRUwEwYDVQQKDAxNeSBEb20sIEluYy4xFjAUBgNVBAMMDXd3dy5teWRv
bS5jb20wXTAYBgoqcAACACJlLQIBBgoqcAACACJlLQMBA0EAYzXB8bM5zCg+ucbj
KKujINGRbgKpo3wpmEdAcrn6fZml+YIM/0l0JKO83m9Lqw00jZ4mMc6RB4QVwl7O
iUt4GaN7MHkwCQYDVR0TBAIwADAsBglghkgBhvhCAQ0EHxYdT3BlblNTTCBHZW5l
cmF0ZWQgQ2VydGlmaWNhdGUwHQYDVR0OBBYEFF3qrmcxO0h0/Cjb65Hj76F78P5G
MB8GA1UdIwQYMBaAFEBUkWEkKZNTaJ5n3YzA9DXm4fgjMA0GCSpwAAIAImUtDAUA
AzEAf5DV1BFwGKz8IwrfmOJoi9klLbX3AdDyit0E/nZqryY8Pb94kKB6Pca+1pt2
UU6z
-----END CERTIFICATE-----
