Certificate:
    Data:
        Version: 3 (0x2)
        Serial Number: 46 (0x2e)
    Signature Algorithm: bign-with-hbelt
        Issuer: CN=www.mydom_7870.com, O=My Dom, Inc., C=US, ST=Oregon, L=Portland
        Validity
            Not Before: Sep 10 14:08:19 2014 GMT
            Not After : Sep 10 14:08:19 2015 GMT
        Subject: C=US, ST=Oregon, O=My Dom, Inc., CN=www.mydom.com
        Subject Public Key Info:
            Public Key Algorithm: bign-pubkey
                Public key: EBEA35715F40E3B180ABB23EA35A43DDA965A5C9AD162C7B759A91DCC14E6F3956BAD169F04926104F19B2C51D620367D00EA88045A9259398E26036AB146AEC
                Parameter set: bign-curve256v1
        X509v3 extensions:
            X509v3 Basic Constraints: 
                CA:FALSE
            Netscape Comment: 
                OpenSSL Generated Certificate
            X509v3 Subject Key Identifier: 
                65:B5:A7:AD:D8:6D:7E:4D:8F:91:6C:8C:0E:A8:8E:C4:44:AF:99:8B
            X509v3 Authority Key Identifier: 
                keyid:EC:FC:AD:63:33:F9:78:30:05:FE:AD:23:A3:CD:D4:E2:C4:FB:D5:EA

    Signature Algorithm: bign-with-hbelt
         82:13:7a:1d:80:6a:fc:57:37:9f:eb:c8:58:b9:c0:6b:81:48:
         d8:2a:06:fc:f3:b5:e5:d1:f5:1a:74:21:3c:8d:16:e3:f7:c2:
         d8:32:3a:d9:a6:33:df:6c:91:c0:0f:52
-----BEGIN CERTIFICATE-----
MIICDzCCAcmgAwIBAgIBLjANBgkqcAACACJlLQwFADBlMRswGQYDVQQDDBJ3d3cu
bXlkb21fNzg3MC5jb20xFTATBgNVBAoMDE15IERvbSwgSW5jLjELMAkGA1UEBhMC
VVMxDzANBgNVBAgMBk9yZWdvbjERMA8GA1UEBwwIUG9ydGxhbmQwHhcNMTQwOTEw
MTQwODE5WhcNMTUwOTEwMTQwODE5WjBNMQswCQYDVQQGEwJVUzEPMA0GA1UECAwG
T3JlZ29uMRUwEwYDVQQKDAxNeSBEb20sIEluYy4xFjAUBgNVBAMMDXd3dy5teWRv
bS5jb20wXTAYBgoqcAACACJlLQIBBgoqcAACACJlLQMBA0EA6+o1cV9A47GAq7I+
o1pD3allpcmtFix7dZqR3MFObzlWutFp8EkmEE8ZssUdYgNn0A6ogEWpJZOY4mA2
qxRq7KN7MHkwCQYDVR0TBAIwADAsBglghkgBhvhCAQ0EHxYdT3BlblNTTCBHZW5l
cmF0ZWQgQ2VydGlmaWNhdGUwHQYDVR0OBBYEFGW1p63YbX5Nj5FsjA6ojsREr5mL
MB8GA1UdIwQYMBaAFOz8rWMz+XgwBf6tI6PN1OLE+9XqMA0GCSpwAAIAImUtDAUA
AzEAghN6HYBq/Fc3n+vIWLnAa4FI2CoG/PO15dH1GnQhPI0W4/fC2DI62aYz32yR
wA9S
-----END CERTIFICATE-----
