Certificate:
    Data:
        Version: 3 (0x2)
        Serial Number: 47 (0x2f)
    Signature Algorithm: bign-with-hbelt
        Issuer: CN=www.mydom_6678.com, O=My Dom, Inc., C=US, ST=Oregon, L=Portland
        Validity
            Not Before: Sep 10 14:08:19 2014 GMT
            Not After : Sep 10 14:08:19 2015 GMT
        Subject: C=US, ST=Oregon, O=My Dom, Inc., CN=www.mydom.com
        Subject Public Key Info:
            Public Key Algorithm: bign-pubkey
                Public key: 649226D269FD61734621D44A964074E4F56F4A6B82470AED4BCB785B7F5DEA79B4504C0FD2A23CBC8D0BF0C9B984674AFBF85848F71A7A91266C20EA0D49FF45
                Parameter set: bign-curve256v1
        X509v3 extensions:
            X509v3 Basic Constraints: 
                CA:FALSE
            Netscape Comment: 
                OpenSSL Generated Certificate
            X509v3 Subject Key Identifier: 
                F4:50:E9:D2:E0:28:49:88:A9:3F:CB:88:A4:E8:49:55:9D:70:26:73
            X509v3 Authority Key Identifier: 
                keyid:B2:A2:82:79:FA:16:B2:C3:6D:2B:F6:5F:DF:62:57:0E:CE:4D:C8:55

    Signature Algorithm: bign-with-hbelt
         40:cd:fb:a9:4c:76:fb:da:29:87:c9:73:33:8f:1c:68:f7:95:
         aa:05:d2:e0:89:aa:40:9a:b9:19:47:c5:2d:1e:e1:69:01:1a:
         82:17:70:90:d6:44:c5:02:18:2c:c0:e4
-----BEGIN CERTIFICATE-----
MIICDzCCAcmgAwIBAgIBLzANBgkqcAACACJlLQwFADBlMRswGQYDVQQDDBJ3d3cu
bXlkb21fNjY3OC5jb20xFTATBgNVBAoMDE15IERvbSwgSW5jLjELMAkGA1UEBhMC
VVMxDzANBgNVBAgMBk9yZWdvbjERMA8GA1UEBwwIUG9ydGxhbmQwHhcNMTQwOTEw
MTQwODE5WhcNMTUwOTEwMTQwODE5WjBNMQswCQYDVQQGEwJVUzEPMA0GA1UECAwG
T3JlZ29uMRUwEwYDVQQKDAxNeSBEb20sIEluYy4xFjAUBgNVBAMMDXd3dy5teWRv
bS5jb20wXTAYBgoqcAACACJlLQIBBgoqcAACACJlLQMBA0EAZJIm0mn9YXNGIdRK
lkB05PVvSmuCRwrtS8t4W39d6nm0UEwP0qI8vI0L8Mm5hGdK+/hYSPcaepEmbCDq
DUn/RaN7MHkwCQYDVR0TBAIwADAsBglghkgBhvhCAQ0EHxYdT3BlblNTTCBHZW5l
cmF0ZWQgQ2VydGlmaWNhdGUwHQYDVR0OBBYEFPRQ6dLgKEmIqT/LiKToSVWdcCZz
MB8GA1UdIwQYMBaAFLKignn6FrLDbSv2X99iVw7OTchVMA0GCSpwAAIAImUtDAUA
AzEAQM37qUx2+9oph8lzM48caPeVqgXS4ImqQJq5GUfFLR7haQEaghdwkNZExQIY
LMDk
-----END CERTIFICATE-----
