Certificate:
    Data:
        Version: 3 (0x2)
        Serial Number: 49 (0x31)
    Signature Algorithm: bign-with-hbelt
        Issuer: CN=www.mydom_7602.com, O=My Dom, Inc., C=US, ST=Oregon, L=Portland
        Validity
            Not Before: Sep 10 14:09:02 2014 GMT
            Not After : Sep 10 14:09:02 2015 GMT
        Subject: C=US, ST=Oregon, O=My Dom, Inc., CN=www.mydom.com
        Subject Public Key Info:
            Public Key Algorithm: bign-pubkey
                Public key: C7DBEC825D7225961C5A808703D5739C18726E99B557B5E0C141F3F207871E5578F20F7C1AAEC53C5AFA4297B049F8CDADADB9A37A91D823BF7E30673FD8CD66
                Parameter set: bign-curve256v1
        X509v3 extensions:
            X509v3 Basic Constraints: 
                CA:FALSE
            Netscape Comment: 
                OpenSSL Generated Certificate
            X509v3 Subject Key Identifier: 
                31:01:C1:D7:6E:D9:35:B3:D2:E7:75:F0:E2:6D:09:3C:42:F6:19:E5
            X509v3 Authority Key Identifier: 
                keyid:42:F9:D9:2A:F9:BD:9D:6C:08:32:39:22:09:D8:C7:66:44:03:55:7C

    Signature Algorithm: bign-with-hbelt
         f7:40:c0:c4:ae:86:be:70:35:63:b1:e4:e9:33:b6:d4:66:e0:
         e0:4a:a8:bf:fc:17:d5:81:f1:9b:67:07:c8:f5:95:37:73:34:
         c2:db:35:04:8c:60:59:15:96:96:e1:39
-----BEGIN CERTIFICATE-----
MIICDzCCAcmgAwIBAgIBMTANBgkqcAACACJlLQwFADBlMRswGQYDVQQDDBJ3d3cu
bXlkb21fNzYwMi5jb20xFTATBgNVBAoMDE15IERvbSwgSW5jLjELMAkGA1UEBhMC
VVMxDzANBgNVBAgMBk9yZWdvbjERMA8GA1UEBwwIUG9ydGxhbmQwHhcNMTQwOTEw
MTQwOTAyWhcNMTUwOTEwMTQwOTAyWjBNMQswCQYDVQQGEwJVUzEPMA0GA1UECAwG
T3JlZ29uMRUwEwYDVQQKDAxNeSBEb20sIEluYy4xFjAUBgNVBAMMDXd3dy5teWRv
bS5jb20wXTAYBgoqcAACACJlLQIBBgoqcAACACJlLQMBA0EAx9vsgl1yJZYcWoCH
A9VznBhybpm1V7XgwUHz8geHHlV48g98Gq7FPFr6QpewSfjNra25o3qR2CO/fjBn
P9jNZqN7MHkwCQYDVR0TBAIwADAsBglghkgBhvhCAQ0EHxYdT3BlblNTTCBHZW5l
cmF0ZWQgQ2VydGlmaWNhdGUwHQYDVR0OBBYEFDEBwddu2TWz0ud18OJtCTxC9hnl
MB8GA1UdIwQYMBaAFEL52Sr5vZ1sCDI5IgnYx2ZEA1V8MA0GCSpwAAIAImUtDAUA
AzEA90DAxK6GvnA1Y7Hk6TO21Gbg4Eqov/wX1YHxm2cHyPWVN3M0wts1BIxgWRWW
luE5
-----END CERTIFICATE-----
