Certificate:
    Data:
        Version: 3 (0x2)
        Serial Number: 50 (0x32)
    Signature Algorithm: bign-with-hbelt
        Issuer: CN=www.mydom_2113.com, O=My Dom, Inc., C=US, ST=Oregon, L=Portland
        Validity
            Not Before: Sep 10 14:09:03 2014 GMT
            Not After : Sep 10 14:09:03 2015 GMT
        Subject: C=US, ST=Oregon, O=My Dom, Inc., CN=www.mydom.com
        Subject Public Key Info:
            Public Key Algorithm: bign-pubkey
                Public key: 15E922398FA690C3194CAFE8A7F7BB4EABBDBDD824FD40944AB633F7137E735E00D9F7D909758EC06834D5DECBF49574AF37C6FBD1E0D9AAC8577742D44C9E6C
                Parameter set: bign-curve256v1
        X509v3 extensions:
            X509v3 Basic Constraints: 
                CA:FALSE
            Netscape Comment: 
                OpenSSL Generated Certificate
            X509v3 Subject Key Identifier: 
                1E:50:E8:2E:88:E8:26:CB:1D:B7:63:AD:C0:49:C7:4B:BB:A5:73:34
            X509v3 Authority Key Identifier: 
                keyid:8C:D5:FC:43:56:8E:49:28:6C:E3:82:B5:F3:0A:54:A3:45:A1:E8:F9

    Signature Algorithm: bign-with-hbelt
         46:fa:18:eb:a2:05:51:ca:15:aa:5f:a1:26:c5:e6:a1:9d:94:
         d2:97:2d:f3:f0:59:08:64:f4:60:fb:27:80:f1:1d:2f:18:36:
         b7:fd:ce:f0:ab:ed:e4:3a:d3:d3:2b:4b
-----BEGIN CERTIFICATE-----
MIICDzCCAcmgAwIBAgIBMjANBgkqcAACACJlLQwFADBlMRswGQYDVQQDDBJ3d3cu
bXlkb21fMjExMy5jb20xFTATBgNVBAoMDE15IERvbSwgSW5jLjELMAkGA1UEBhMC
VVMxDzANBgNVBAgMBk9yZWdvbjERMA8GA1UEBwwIUG9ydGxhbmQwHhcNMTQwOTEw
MTQwOTAzWhcNMTUwOTEwMTQwOTAzWjBNMQswCQYDVQQGEwJVUzEPMA0GA1UECAwG
T3JlZ29uMRUwEwYDVQQKDAxNeSBEb20sIEluYy4xFjAUBgNVBAMMDXd3dy5teWRv
bS5jb20wXTAYBgoqcAACACJlLQIBBgoqcAACACJlLQMBA0EAFekiOY+mkMMZTK/o
p/e7Tqu9vdgk/UCUSrYz9xN+c14A2ffZCXWOwGg01d7L9JV0rzfG+9Hg2arIV3dC
1EyebKN7MHkwCQYDVR0TBAIwADAsBglghkgBhvhCAQ0EHxYdT3BlblNTTCBHZW5l
cmF0ZWQgQ2VydGlmaWNhdGUwHQYDVR0OBBYEFB5Q6C6I6CbLHbdjrcBJx0u7pXM0
MB8GA1UdIwQYMBaAFIzV/ENWjkkobOOCtfMKVKNFoej5MA0GCSpwAAIAImUtDAUA
AzEARvoY66IFUcoVql+hJsXmoZ2U0pct8/BZCGT0YPsngPEdLxg2t/3O8Kvt5DrT
0ytL
-----END CERTIFICATE-----
