Certificate:
    Data:
        Version: 3 (0x2)
        Serial Number: 51 (0x33)
    Signature Algorithm: bign-with-hbelt
        Issuer: CN=www.mydom_2113.com, O=My Dom, Inc., C=US, ST=Oregon, L=Portland
        Validity
            Not Before: Sep 10 14:09:03 2014 GMT
            Not After : Sep 10 14:09:03 2015 GMT
        Subject: C=US, ST=Oregon, O=My Dom, Inc., CN=www.mydom.com
        Subject Public Key Info:
            Public Key Algorithm: bign-pubkey
                Public key: 15E922398FA690C3194CAFE8A7F7BB4EABBDBDD824FD40944AB633F7137E735E00D9F7D909758EC06834D5DECBF49574AF37C6FBD1E0D9AAC8577742D44C9E6C
                Parameter set: bign-curve256v1
        X509v3 extensions:
            X509v3 Basic Constraints: 
                CA:FALSE
            Netscape Comment: 
                OpenSSL Generated Certificate
            X509v3 Subject Key Identifier: 
                1E:50:E8:2E:88:E8:26:CB:1D:B7:63:AD:C0:49:C7:4B:BB:A5:73:34
            X509v3 Authority Key Identifier: 
                keyid:8C:D5:FC:43:56:8E:49:28:6C:E3:82:B5:F3:0A:54:A3:45:A1:E8:F9

    Signature Algorithm: bign-with-hbelt
         eb:91:cf:70:4f:a5:74:52:1d:4e:60:f9:23:c5:4c:59:2c:88:
         70:19:0c:9d:d4:ce:9a:f9:43:33:60:1e:fd:57:ad:d9:64:da:
         88:9a:d6:a9:cc:12:40:82:ca:ff:e8:37
-----BEGIN CERTIFICATE-----
MIICDzCCAcmgAwIBAgIBMzANBgkqcAACACJlLQwFADBlMRswGQYDVQQDDBJ3d3cu
bXlkb21fMjExMy5jb20xFTATBgNVBAoMDE15IERvbSwgSW5jLjELMAkGA1UEBhMC
VVMxDzANBgNVBAgMBk9yZWdvbjERMA8GA1UEBwwIUG9ydGxhbmQwHhcNMTQwOTEw
MTQwOTAzWhcNMTUwOTEwMTQwOTAzWjBNMQswCQYDVQQGEwJVUzEPMA0GA1UECAwG
T3JlZ29uMRUwEwYDVQQKDAxNeSBEb20sIEluYy4xFjAUBgNVBAMMDXd3dy5teWRv
bS5jb20wXTAYBgoqcAACACJlLQIBBgoqcAACACJlLQMBA0EAFekiOY+mkMMZTK/o
p/e7Tqu9vdgk/UCUSrYz9xN+c14A2ffZCXWOwGg01d7L9JV0rzfG+9Hg2arIV3dC
1EyebKN7MHkwCQYDVR0TBAIwADAsBglghkgBhvhCAQ0EHxYdT3BlblNTTCBHZW5l
cmF0ZWQgQ2VydGlmaWNhdGUwHQYDVR0OBBYEFB5Q6C6I6CbLHbdjrcBJx0u7pXM0
MB8GA1UdIwQYMBaAFIzV/ENWjkkobOOCtfMKVKNFoej5MA0GCSpwAAIAImUtDAUA
AzEA65HPcE+ldFIdTmD5I8VMWSyIcBkMndTOmvlDM2Ae/Vet2WTaiJrWqcwSQILK
/+g3
-----END CERTIFICATE-----
