Certificate:
    Data:
        Version: 3 (0x2)
        Serial Number: 52 (0x34)
    Signature Algorithm: bign-with-hbelt
        Issuer: CN=www.mydom_3641.com, O=My Dom, Inc., C=US, ST=Oregon, L=Portland
        Validity
            Not Before: Sep 10 14:10:09 2014 GMT
            Not After : Sep 10 14:10:09 2015 GMT
        Subject: C=US, ST=Oregon, O=My Dom, Inc., CN=www.mydom.com
        Subject Public Key Info:
            Public Key Algorithm: bign-pubkey
                Public key: A0B5F66104DB6C3E5C5F8A9BCB4EE9B8E027EB40BB7404A2F5351C7B499EFCA731BE12CE85F9DACD4563882BC5C16F44203BF31BB648292200DD57EEE0E0B58A
                Parameter set: bign-curve256v1
        X509v3 extensions:
            X509v3 Basic Constraints: 
                CA:FALSE
            Netscape Comment: 
                OpenSSL Generated Certificate
            X509v3 Subject Key Identifier: 
                88:F0:D1:1F:F0:2F:07:C3:B4:2F:51:18:19:18:78:A2:72:83:25:BE
            X509v3 Authority Key Identifier: 
                keyid:A6:3C:7D:98:1C:9C:07:CD:FC:2C:CF:6E:32:BB:D0:D2:8C:DC:2A:9C

    Signature Algorithm: bign-with-hbelt
         6f:af:76:4b:0d:a3:80:00:c7:17:db:6e:3b:e6:a5:23:7c:ea:
         83:aa:89:c9:3a:f4:96:34:dd:10:f7:c7:0c:59:7b:5b:3e:4e:
         18:15:71:0d:c8:e9:0d:0a:cf:10:bd:3c
-----BEGIN CERTIFICATE-----
MIICDzCCAcmgAwIBAgIBNDANBgkqcAACACJlLQwFADBlMRswGQYDVQQDDBJ3d3cu
bXlkb21fMzY0MS5jb20xFTATBgNVBAoMDE15IERvbSwgSW5jLjELMAkGA1UEBhMC
VVMxDzANBgNVBAgMBk9yZWdvbjERMA8GA1UEBwwIUG9ydGxhbmQwHhcNMTQwOTEw
MTQxMDA5WhcNMTUwOTEwMTQxMDA5WjBNMQswCQYDVQQGEwJVUzEPMA0GA1UECAwG
T3JlZ29uMRUwEwYDVQQKDAxNeSBEb20sIEluYy4xFjAUBgNVBAMMDXd3dy5teWRv
bS5jb20wXTAYBgoqcAACACJlLQIBBgoqcAACACJlLQMBA0EAoLX2YQTbbD5cX4qb
y07puOAn60C7dASi9TUce0me/KcxvhLOhfnazUVjiCvFwW9EIDvzG7ZIKSIA3Vfu
4OC1iqN7MHkwCQYDVR0TBAIwADAsBglghkgBhvhCAQ0EHxYdT3BlblNTTCBHZW5l
cmF0ZWQgQ2VydGlmaWNhdGUwHQYDVR0OBBYEFIjw0R/wLwfDtC9RGBkYeKJygyW+
MB8GA1UdIwQYMBaAFKY8fZgcnAfN/CzPbjK70NKM3CqcMA0GCSpwAAIAImUtDAUA
AzEAb692Sw2jgADHF9tuO+alI3zqg6qJyTr0ljTdEPfHDFl7Wz5OGBVxDcjpDQrP
EL08
-----END CERTIFICATE-----
