Certificate:
    Data:
        Version: 3 (0x2)
        Serial Number: 53 (0x35)
    Signature Algorithm: bign-with-hbelt
        Issuer: CN=www.mydom_4822.com, O=My Dom, Inc., C=US, ST=Oregon, L=Portland
        Validity
            Not Before: Sep 10 14:10:09 2014 GMT
            Not After : Sep 10 14:10:09 2015 GMT
        Subject: C=US, ST=Oregon, O=My Dom, Inc., CN=www.mydom.com
        Subject Public Key Info:
            Public Key Algorithm: bign-pubkey
                Public key: DB796C07C1F790D329CE27E3958D9C015174087E361BC415D50FA9C4FCDA4395F0120E1449DAED57A86CB3663FEE036FEA9EE757FAD17D746F2DECE7B42FD585
                Parameter set: bign-curve256v1
        X509v3 extensions:
            X509v3 Basic Constraints: 
                CA:FALSE
            Netscape Comment: 
                OpenSSL Generated Certificate
            X509v3 Subject Key Identifier: 
                34:F9:BF:5E:B1:4A:0E:89:53:1E:6E:6F:65:0A:9E:CD:95:BE:69:34
            X509v3 Authority Key Identifier: 
                keyid:98:F6:71:B0:5E:F5:6F:8A:B8:8F:6E:58:FC:4A:1C:4C:3C:3C:D6:78

    Signature Algorithm: bign-with-hbelt
         7e:c5:13:97:92:cf:f3:c0:aa:42:7c:08:05:3d:3b:18:d0:6b:
         d7:fc:6f:03:22:78:d5:b9:15:1f:7d:5d:ab:d6:09:d9:5f:ab:
         1b:42:1c:30:aa:6e:e7:5a:66:1d:ab:c7
-----BEGIN CERTIFICATE-----
MIICDzCCAcmgAwIBAgIBNTANBgkqcAACACJlLQwFADBlMRswGQYDVQQDDBJ3d3cu
bXlkb21fNDgyMi5jb20xFTATBgNVBAoMDE15IERvbSwgSW5jLjELMAkGA1UEBhMC
VVMxDzANBgNVBAgMBk9yZWdvbjERMA8GA1UEBwwIUG9ydGxhbmQwHhcNMTQwOTEw
MTQxMDA5WhcNMTUwOTEwMTQxMDA5WjBNMQswCQYDVQQGEwJVUzEPMA0GA1UECAwG
T3JlZ29uMRUwEwYDVQQKDAxNeSBEb20sIEluYy4xFjAUBgNVBAMMDXd3dy5teWRv
bS5jb20wXTAYBgoqcAACACJlLQIBBgoqcAACACJlLQMBA0EA23lsB8H3kNMpzifj
lY2cAVF0CH42G8QV1Q+pxPzaQ5XwEg4USdrtV6hss2Y/7gNv6p7nV/rRfXRvLezn
tC/VhaN7MHkwCQYDVR0TBAIwADAsBglghkgBhvhCAQ0EHxYdT3BlblNTTCBHZW5l
cmF0ZWQgQ2VydGlmaWNhdGUwHQYDVR0OBBYEFDT5v16xSg6JUx5ub2UKns2Vvmk0
MB8GA1UdIwQYMBaAFJj2cbBe9W+KuI9uWPxKHEw8PNZ4MA0GCSpwAAIAImUtDAUA
AzEAfsUTl5LP88CqQnwIBT07GNBr1/xvAyJ41bkVH31dq9YJ2V+rG0IcMKpu51pm
HavH
-----END CERTIFICATE-----
