Certificate:
    Data:
        Version: 3 (0x2)
        Serial Number: 54 (0x36)
    Signature Algorithm: bign-with-hbelt
        Issuer: CN=www.mydom_4822.com, O=My Dom, Inc., C=US, ST=Oregon, L=Portland
        Validity
            Not Before: Sep 10 14:10:09 2014 GMT
            Not After : Sep 10 14:10:09 2015 GMT
        Subject: C=US, ST=Oregon, O=My Dom, Inc., CN=www.mydom.com
        Subject Public Key Info:
            Public Key Algorithm: bign-pubkey
                Public key: DB796C07C1F790D329CE27E3958D9C015174087E361BC415D50FA9C4FCDA4395F0120E1449DAED57A86CB3663FEE036FEA9EE757FAD17D746F2DECE7B42FD585
                Parameter set: bign-curve256v1
        X509v3 extensions:
            X509v3 Basic Constraints: 
                CA:FALSE
            Netscape Comment: 
                OpenSSL Generated Certificate
            X509v3 Subject Key Identifier: 
                34:F9:BF:5E:B1:4A:0E:89:53:1E:6E:6F:65:0A:9E:CD:95:BE:69:34
            X509v3 Authority Key Identifier: 
                keyid:98:F6:71:B0:5E:F5:6F:8A:B8:8F:6E:58:FC:4A:1C:4C:3C:3C:D6:78

    Signature Algorithm: bign-with-hbelt
         d7:70:92:87:b3:43:2e:12:13:de:e0:ae:1e:a7:cd:53:53:a6:
         89:65:cc:e7:e3:f0:48:a4:9b:f0:a4:a9:27:47:5a:be:83:e0:
         53:52:3d:83:41:c2:c1:36:ed:28:e5:e4
-----BEGIN CERTIFICATE-----
MIICDzCCAcmgAwIBAgIBNjANBgkqcAACACJlLQwFADBlMRswGQYDVQQDDBJ3d3cu
bXlkb21fNDgyMi5jb20xFTATBgNVBAoMDE15IERvbSwgSW5jLjELMAkGA1UEBhMC
VVMxDzANBgNVBAgMBk9yZWdvbjERMA8GA1UEBwwIUG9ydGxhbmQwHhcNMTQwOTEw
MTQxMDA5WhcNMTUwOTEwMTQxMDA5WjBNMQswCQYDVQQGEwJVUzEPMA0GA1UECAwG
T3JlZ29uMRUwEwYDVQQKDAxNeSBEb20sIEluYy4xFjAUBgNVBAMMDXd3dy5teWRv
bS5jb20wXTAYBgoqcAACACJlLQIBBgoqcAACACJlLQMBA0EA23lsB8H3kNMpzifj
lY2cAVF0CH42G8QV1Q+pxPzaQ5XwEg4USdrtV6hss2Y/7gNv6p7nV/rRfXRvLezn
tC/VhaN7MHkwCQYDVR0TBAIwADAsBglghkgBhvhCAQ0EHxYdT3BlblNTTCBHZW5l
cmF0ZWQgQ2VydGlmaWNhdGUwHQYDVR0OBBYEFDT5v16xSg6JUx5ub2UKns2Vvmk0
MB8GA1UdIwQYMBaAFJj2cbBe9W+KuI9uWPxKHEw8PNZ4MA0GCSpwAAIAImUtDAUA
AzEA13CSh7NDLhIT3uCuHqfNU1OmiWXM5+PwSKSb8KSpJ0davoPgU1I9g0HCwTbt
KOXk
-----END CERTIFICATE-----
