Certificate:
    Data:
        Version: 3 (0x2)
        Serial Number: 55 (0x37)
    Signature Algorithm: bign-with-hbelt
        Issuer: CN=www.mydom_5856.com, O=My Dom, Inc., C=US, ST=Oregon, L=Portland
        Validity
            Not Before: Sep 10 14:10:14 2014 GMT
            Not After : Sep 10 14:10:14 2015 GMT
        Subject: C=US, ST=Oregon, O=My Dom, Inc., CN=www.mydom.com
        Subject Public Key Info:
            Public Key Algorithm: bign-pubkey
                Public key: B53F8AB1122CB2CCEF0E87E5B4D1415B66668EC76E3D83F653B2ACBAA8A68AA82AE071158C29716673918703260156FFA9398530BEF2B232A956C8D9027D6479
                Parameter set: bign-curve256v1
        X509v3 extensions:
            X509v3 Basic Constraints: 
                CA:FALSE
            Netscape Comment: 
                OpenSSL Generated Certificate
            X509v3 Subject Key Identifier: 
                0D:A4:50:56:E1:47:2F:0F:55:25:FF:B8:42:6B:79:A2:DF:2D:A3:54
            X509v3 Authority Key Identifier: 
                keyid:56:FB:C4:FB:8A:EE:8F:B3:9B:EB:D7:DB:EC:E3:01:3D:B1:AE:96:B4

    Signature Algorithm: bign-with-hbelt
         70:a0:4e:a6:d0:07:13:99:89:35:cd:a4:c2:2c:7c:d1:8a:76:
         58:6f:b5:bf:d4:e7:dd:cb:ab:da:53:0a:8a:45:c7:f8:3a:fe:
         9f:af:54:16:c3:ec:ea:e4:41:3c:b0:5c
-----BEGIN CERTIFICATE-----
MIICDzCCAcmgAwIBAgIBNzANBgkqcAACACJlLQwFADBlMRswGQYDVQQDDBJ3d3cu
bXlkb21fNTg1Ni5jb20xFTATBgNVBAoMDE15IERvbSwgSW5jLjELMAkGA1UEBhMC
VVMxDzANBgNVBAgMBk9yZWdvbjERMA8GA1UEBwwIUG9ydGxhbmQwHhcNMTQwOTEw
MTQxMDE0WhcNMTUwOTEwMTQxMDE0WjBNMQswCQYDVQQGEwJVUzEPMA0GA1UECAwG
T3JlZ29uMRUwEwYDVQQKDAxNeSBEb20sIEluYy4xFjAUBgNVBAMMDXd3dy5teWRv
bS5jb20wXTAYBgoqcAACACJlLQIBBgoqcAACACJlLQMBA0EAtT+KsRIssszvDofl
tNFBW2ZmjsduPYP2U7Ksuqimiqgq4HEVjClxZnORhwMmAVb/qTmFML7ysjKpVsjZ
An1keaN7MHkwCQYDVR0TBAIwADAsBglghkgBhvhCAQ0EHxYdT3BlblNTTCBHZW5l
cmF0ZWQgQ2VydGlmaWNhdGUwHQYDVR0OBBYEFA2kUFbhRy8PVSX/uEJreaLfLaNU
MB8GA1UdIwQYMBaAFFb7xPuK7o+zm+vX2+zjAT2xrpa0MA0GCSpwAAIAImUtDAUA
AzEAcKBOptAHE5mJNc2kwix80Yp2WG+1v9Tn3cur2lMKikXH+Dr+n69UFsPs6uRB
PLBc
-----END CERTIFICATE-----
