Certificate:
    Data:
        Version: 3 (0x2)
        Serial Number: 56 (0x38)
    Signature Algorithm: bign-with-hbelt
        Issuer: CN=www.mydom_4932.com, O=My Dom, Inc., C=US, ST=Oregon, L=Portland
        Validity
            Not Before: Sep 10 14:10:14 2014 GMT
            Not After : Sep 10 14:10:14 2015 GMT
        Subject: C=US, ST=Oregon, O=My Dom, Inc., CN=www.mydom.com
        Subject Public Key Info:
            Public Key Algorithm: bign-pubkey
                Public key: 30DE684EE20999ABE8FB1C890AA47B3D75A3A8DD41B2EA495C7215726F8E56B12D9A691B55C14DBC35F66338F618276A62DE356666AE5BD7AC33E173EBEE1A98
                Parameter set: bign-curve256v1
        X509v3 extensions:
            X509v3 Basic Constraints: 
                CA:FALSE
            Netscape Comment: 
                OpenSSL Generated Certificate
            X509v3 Subject Key Identifier: 
                B2:86:FA:77:AF:F0:6D:25:28:F5:59:20:CB:71:AE:E1:C6:C3:39:C7
            X509v3 Authority Key Identifier: 
                keyid:19:4A:25:9D:78:E8:D6:03:71:A2:6C:DF:4F:E9:8C:9A:37:1A:F5:FA

    Signature Algorithm: bign-with-hbelt
         11:5d:33:78:22:9d:36:e0:b9:27:c7:90:a3:32:da:31:b4:df:
         e0:0b:03:63:79:9e:ec:48:85:5b:9c:2f:83:3e:85:da:37:fe:
         87:d6:e2:28:7d:87:3e:92:ed:5d:41:93
-----BEGIN CERTIFICATE-----
MIICDzCCAcmgAwIBAgIBODANBgkqcAACACJlLQwFADBlMRswGQYDVQQDDBJ3d3cu
bXlkb21fNDkzMi5jb20xFTATBgNVBAoMDE15IERvbSwgSW5jLjELMAkGA1UEBhMC
VVMxDzANBgNVBAgMBk9yZWdvbjERMA8GA1UEBwwIUG9ydGxhbmQwHhcNMTQwOTEw
MTQxMDE0WhcNMTUwOTEwMTQxMDE0WjBNMQswCQYDVQQGEwJVUzEPMA0GA1UECAwG
T3JlZ29uMRUwEwYDVQQKDAxNeSBEb20sIEluYy4xFjAUBgNVBAMMDXd3dy5teWRv
bS5jb20wXTAYBgoqcAACACJlLQIBBgoqcAACACJlLQMBA0EAMN5oTuIJmavo+xyJ
CqR7PXWjqN1BsupJXHIVcm+OVrEtmmkbVcFNvDX2Yzj2GCdqYt41ZmauW9esM+Fz
6+4amKN7MHkwCQYDVR0TBAIwADAsBglghkgBhvhCAQ0EHxYdT3BlblNTTCBHZW5l
cmF0ZWQgQ2VydGlmaWNhdGUwHQYDVR0OBBYEFLKG+nev8G0lKPVZIMtxruHGwznH
MB8GA1UdIwQYMBaAFBlKJZ146NYDcaJs30/pjJo3GvX6MA0GCSpwAAIAImUtDAUA
AzEAEV0zeCKdNuC5J8eQozLaMbTf4AsDY3me7EiFW5wvgz6F2jf+h9biKH2HPpLt
XUGT
-----END CERTIFICATE-----
