Certificate:
    Data:
        Version: 3 (0x2)
        Serial Number: 57 (0x39)
    Signature Algorithm: bign-with-hbelt
        Issuer: CN=www.mydom_4932.com, O=My Dom, Inc., C=US, ST=Oregon, L=Portland
        Validity
            Not Before: Sep 10 14:10:14 2014 GMT
            Not After : Sep 10 14:10:14 2015 GMT
        Subject: C=US, ST=Oregon, O=My Dom, Inc., CN=www.mydom.com
        Subject Public Key Info:
            Public Key Algorithm: bign-pubkey
                Public key: 30DE684EE20999ABE8FB1C890AA47B3D75A3A8DD41B2EA495C7215726F8E56B12D9A691B55C14DBC35F66338F618276A62DE356666AE5BD7AC33E173EBEE1A98
                Parameter set: bign-curve256v1
        X509v3 extensions:
            X509v3 Basic Constraints: 
                CA:FALSE
            Netscape Comment: 
                OpenSSL Generated Certificate
            X509v3 Subject Key Identifier: 
                B2:86:FA:77:AF:F0:6D:25:28:F5:59:20:CB:71:AE:E1:C6:C3:39:C7
            X509v3 Authority Key Identifier: 
                keyid:19:4A:25:9D:78:E8:D6:03:71:A2:6C:DF:4F:E9:8C:9A:37:1A:F5:FA

    Signature Algorithm: bign-with-hbelt
         b2:46:ce:06:21:b8:e8:b9:25:41:a1:5b:6c:95:e8:91:ac:f9:
         ad:a3:ee:f7:8c:ae:4a:e3:c4:24:c4:24:46:4e:be:b9:a6:aa:
         7c:fe:14:3f:21:7f:b2:b6:bb:69:32:1e
-----BEGIN CERTIFICATE-----
MIICDzCCAcmgAwIBAgIBOTANBgkqcAACACJlLQwFADBlMRswGQYDVQQDDBJ3d3cu
bXlkb21fNDkzMi5jb20xFTATBgNVBAoMDE15IERvbSwgSW5jLjELMAkGA1UEBhMC
VVMxDzANBgNVBAgMBk9yZWdvbjERMA8GA1UEBwwIUG9ydGxhbmQwHhcNMTQwOTEw
MTQxMDE0WhcNMTUwOTEwMTQxMDE0WjBNMQswCQYDVQQGEwJVUzEPMA0GA1UECAwG
T3JlZ29uMRUwEwYDVQQKDAxNeSBEb20sIEluYy4xFjAUBgNVBAMMDXd3dy5teWRv
bS5jb20wXTAYBgoqcAACACJlLQIBBgoqcAACACJlLQMBA0EAMN5oTuIJmavo+xyJ
CqR7PXWjqN1BsupJXHIVcm+OVrEtmmkbVcFNvDX2Yzj2GCdqYt41ZmauW9esM+Fz
6+4amKN7MHkwCQYDVR0TBAIwADAsBglghkgBhvhCAQ0EHxYdT3BlblNTTCBHZW5l
cmF0ZWQgQ2VydGlmaWNhdGUwHQYDVR0OBBYEFLKG+nev8G0lKPVZIMtxruHGwznH
MB8GA1UdIwQYMBaAFBlKJZ146NYDcaJs30/pjJo3GvX6MA0GCSpwAAIAImUtDAUA
AzEAskbOBiG46LklQaFbbJXokaz5raPu94yuSuPEJMQkRk6+uaaqfP4UPyF/sra7
aTIe
-----END CERTIFICATE-----
