Certificate:
    Data:
        Version: 3 (0x2)
        Serial Number: 58 (0x3a)
    Signature Algorithm: bign-with-hbelt
        Issuer: CN=www.mydom_8660.com, O=My Dom, Inc., C=US, ST=Oregon, L=Portland
        Validity
            Not Before: Sep 10 14:10:18 2014 GMT
            Not After : Sep 10 14:10:18 2015 GMT
        Subject: C=US, ST=Oregon, O=My Dom, Inc., CN=www.mydom.com
        Subject Public Key Info:
            Public Key Algorithm: bign-pubkey
                Public key: 411CBFBD717D1A8E09AEA4EC288681F487D020B02343A33F419740193FBE3E0085D8BCF97C4692211571464A4F475932491E5CB1C9BD6D0B46A72930B661BCA5
                Parameter set: bign-curve256v1
        X509v3 extensions:
            X509v3 Basic Constraints: 
                CA:FALSE
            Netscape Comment: 
                OpenSSL Generated Certificate
            X509v3 Subject Key Identifier: 
                64:2A:21:85:B9:6F:DE:99:12:83:DE:56:DC:BF:69:12:AD:BA:91:E2
            X509v3 Authority Key Identifier: 
                keyid:3A:38:08:28:2C:12:2C:DC:B9:70:DB:23:96:B8:4B:42:02:EF:B0:13

    Signature Algorithm: bign-with-hbelt
         2c:73:4a:63:a0:09:f8:d1:c5:5f:09:8e:30:a2:01:8e:08:cc:
         c7:c8:d1:cb:6b:8b:c7:b3:f8:07:9c:44:cf:05:3a:ab:df:a6:
         56:32:a8:30:58:45:65:ef:7d:30:0a:d5
-----BEGIN CERTIFICATE-----
MIICDzCCAcmgAwIBAgIBOjANBgkqcAACACJlLQwFADBlMRswGQYDVQQDDBJ3d3cu
bXlkb21fODY2MC5jb20xFTATBgNVBAoMDE15IERvbSwgSW5jLjELMAkGA1UEBhMC
VVMxDzANBgNVBAgMBk9yZWdvbjERMA8GA1UEBwwIUG9ydGxhbmQwHhcNMTQwOTEw
MTQxMDE4WhcNMTUwOTEwMTQxMDE4WjBNMQswCQYDVQQGEwJVUzEPMA0GA1UECAwG
T3JlZ29uMRUwEwYDVQQKDAxNeSBEb20sIEluYy4xFjAUBgNVBAMMDXd3dy5teWRv
bS5jb20wXTAYBgoqcAACACJlLQIBBgoqcAACACJlLQMBA0EAQRy/vXF9Go4JrqTs
KIaB9IfQILAjQ6M/QZdAGT++PgCF2Lz5fEaSIRVxRkpPR1kySR5cscm9bQtGpykw
tmG8paN7MHkwCQYDVR0TBAIwADAsBglghkgBhvhCAQ0EHxYdT3BlblNTTCBHZW5l
cmF0ZWQgQ2VydGlmaWNhdGUwHQYDVR0OBBYEFGQqIYW5b96ZEoPeVty/aRKtupHi
MB8GA1UdIwQYMBaAFDo4CCgsEizcuXDbI5a4S0IC77ATMA0GCSpwAAIAImUtDAUA
AzEALHNKY6AJ+NHFXwmOMKIBjgjMx8jRy2uLx7P4B5xEzwU6q9+mVjKoMFhFZe99
MArV
-----END CERTIFICATE-----
