Certificate:
    Data:
        Version: 3 (0x2)
        Serial Number: 59 (0x3b)
    Signature Algorithm: bign-with-hbelt
        Issuer: CN=www.mydom_96.com, O=My Dom, Inc., C=US, ST=Oregon, L=Portland
        Validity
            Not Before: Sep 10 14:10:18 2014 GMT
            Not After : Sep 10 14:10:18 2015 GMT
        Subject: C=US, ST=Oregon, O=My Dom, Inc., CN=www.mydom.com
        Subject Public Key Info:
            Public Key Algorithm: bign-pubkey
                Public key: E1B712673CBCCE47057B8C2E27485A16AD398B6AEFA4EB60DA6285C9935DD70C99D8B3363A212A4C87DF65724E5E39AD93BFE760E028578778DBC75EF4BE1CC1
                Parameter set: bign-curve256v1
        X509v3 extensions:
            X509v3 Basic Constraints: 
                CA:FALSE
            Netscape Comment: 
                OpenSSL Generated Certificate
            X509v3 Subject Key Identifier: 
                4E:6F:C8:23:7B:6D:1C:8A:B8:49:69:A1:F4:F0:59:F1:67:65:1F:CF
            X509v3 Authority Key Identifier: 
                keyid:FB:3D:9C:EB:54:54:7D:70:A4:10:8E:0C:E1:C8:2F:18:73:07:D9:68

    Signature Algorithm: bign-with-hbelt
         a1:18:e3:7f:2d:b8:26:0b:27:18:b2:4f:ba:39:b1:53:f0:b0:
         e5:64:e6:5c:02:6b:a6:ba:ad:3f:7a:3a:0f:b5:03:f6:90:05:
         c0:08:d5:35:63:c0:84:d0:06:9d:dd:23
-----BEGIN CERTIFICATE-----
MIICDTCCAcegAwIBAgIBOzANBgkqcAACACJlLQwFADBjMRkwFwYDVQQDDBB3d3cu
bXlkb21fOTYuY29tMRUwEwYDVQQKDAxNeSBEb20sIEluYy4xCzAJBgNVBAYTAlVT
MQ8wDQYDVQQIDAZPcmVnb24xETAPBgNVBAcMCFBvcnRsYW5kMB4XDTE0MDkxMDE0
MTAxOFoXDTE1MDkxMDE0MTAxOFowTTELMAkGA1UEBhMCVVMxDzANBgNVBAgMBk9y
ZWdvbjEVMBMGA1UECgwMTXkgRG9tLCBJbmMuMRYwFAYDVQQDDA13d3cubXlkb20u
Y29tMF0wGAYKKnAAAgAiZS0CAQYKKnAAAgAiZS0DAQNBAOG3Emc8vM5HBXuMLidI
WhatOYtq76TrYNpihcmTXdcMmdizNjohKkyH32VyTl45rZO/52DgKFeHeNvHXvS+
HMGjezB5MAkGA1UdEwQCMAAwLAYJYIZIAYb4QgENBB8WHU9wZW5TU0wgR2VuZXJh
dGVkIENlcnRpZmljYXRlMB0GA1UdDgQWBBROb8gje20cirhJaaH08FnxZ2UfzzAf
BgNVHSMEGDAWgBT7PZzrVFR9cKQQjgzhyC8YcwfZaDANBgkqcAACACJlLQwFAAMx
AKEY438tuCYLJxiyT7o5sVPwsOVk5lwCa6a6rT96Og+1A/aQBcAI1TVjwITQBp3d
Iw==
-----END CERTIFICATE-----
