Certificate:
    Data:
        Version: 3 (0x2)
        Serial Number: 60 (0x3c)
    Signature Algorithm: bign-with-hbelt
        Issuer: CN=www.mydom_96.com, O=My Dom, Inc., C=US, ST=Oregon, L=Portland
        Validity
            Not Before: Sep 10 14:10:18 2014 GMT
            Not After : Sep 10 14:10:18 2015 GMT
        Subject: C=US, ST=Oregon, O=My Dom, Inc., CN=www.mydom.com
        Subject Public Key Info:
            Public Key Algorithm: bign-pubkey
                Public key: E1B712673CBCCE47057B8C2E27485A16AD398B6AEFA4EB60DA6285C9935DD70C99D8B3363A212A4C87DF65724E5E39AD93BFE760E028578778DBC75EF4BE1CC1
                Parameter set: bign-curve256v1
        X509v3 extensions:
            X509v3 Basic Constraints: 
                CA:FALSE
            Netscape Comment: 
                OpenSSL Generated Certificate
            X509v3 Subject Key Identifier: 
                4E:6F:C8:23:7B:6D:1C:8A:B8:49:69:A1:F4:F0:59:F1:67:65:1F:CF
            X509v3 Authority Key Identifier: 
                keyid:FB:3D:9C:EB:54:54:7D:70:A4:10:8E:0C:E1:C8:2F:18:73:07:D9:68

    Signature Algorithm: bign-with-hbelt
         bb:dd:f0:75:39:f7:8d:c7:11:97:11:84:ed:b4:e6:67:de:f2:
         69:38:8a:47:e5:46:03:0c:bc:6a:c2:89:a9:a3:de:d7:af:f1:
         92:6b:d7:8a:87:cc:e0:1b:0e:ab:3d:0b
-----BEGIN CERTIFICATE-----
MIICDTCCAcegAwIBAgIBPDANBgkqcAACACJlLQwFADBjMRkwFwYDVQQDDBB3d3cu
bXlkb21fOTYuY29tMRUwEwYDVQQKDAxNeSBEb20sIEluYy4xCzAJBgNVBAYTAlVT
MQ8wDQYDVQQIDAZPcmVnb24xETAPBgNVBAcMCFBvcnRsYW5kMB4XDTE0MDkxMDE0
MTAxOFoXDTE1MDkxMDE0MTAxOFowTTELMAkGA1UEBhMCVVMxDzANBgNVBAgMBk9y
ZWdvbjEVMBMGA1UECgwMTXkgRG9tLCBJbmMuMRYwFAYDVQQDDA13d3cubXlkb20u
Y29tMF0wGAYKKnAAAgAiZS0CAQYKKnAAAgAiZS0DAQNBAOG3Emc8vM5HBXuMLidI
WhatOYtq76TrYNpihcmTXdcMmdizNjohKkyH32VyTl45rZO/52DgKFeHeNvHXvS+
HMGjezB5MAkGA1UdEwQCMAAwLAYJYIZIAYb4QgENBB8WHU9wZW5TU0wgR2VuZXJh
dGVkIENlcnRpZmljYXRlMB0GA1UdDgQWBBROb8gje20cirhJaaH08FnxZ2UfzzAf
BgNVHSMEGDAWgBT7PZzrVFR9cKQQjgzhyC8YcwfZaDANBgkqcAACACJlLQwFAAMx
ALvd8HU5943HEZcRhO205mfe8mk4ikflRgMMvGrCiamj3tev8ZJr14qHzOAbDqs9
Cw==
-----END CERTIFICATE-----
