Certificate:
    Data:
        Version: 3 (0x2)
        Serial Number: 61 (0x3d)
    Signature Algorithm: bign-with-hbelt
        Issuer: CN=www.mydom_43.com, O=My Dom, Inc., C=US, ST=Oregon, L=Portland
        Validity
            Not Before: Sep 10 14:11:29 2014 GMT
            Not After : Sep 10 14:11:29 2015 GMT
        Subject: C=US, ST=Oregon, O=My Dom, Inc., CN=www.mydom.com
        Subject Public Key Info:
            Public Key Algorithm: bign-pubkey
                Public key: 7091C3BA9ACE3CBF467EC382314DA6028FF3BDD7557E57FA9A36055222523FAC3E042F676CCEDD06B1E2E370EEF7AFB8A0D8D283DCDD6F9A001CA83D4A075FAF
                Parameter set: bign-curve256v1
        X509v3 extensions:
            X509v3 Basic Constraints: 
                CA:FALSE
            Netscape Comment: 
                OpenSSL Generated Certificate
            X509v3 Subject Key Identifier: 
                A7:DE:FD:B3:29:0D:4E:2D:6E:EB:E1:9D:38:49:4F:68:D9:50:DF:6A
            X509v3 Authority Key Identifier: 
                keyid:A4:56:E7:5A:4C:F8:B4:45:7D:AD:FB:45:3E:D4:73:30:6A:EE:4F:A2

    Signature Algorithm: bign-with-hbelt
         8c:3c:03:2c:ab:e0:15:9c:34:c9:9a:5e:31:6a:17:a5:64:db:
         2b:88:ff:e3:71:ce:81:50:27:fd:20:fb:b2:c0:cc:ba:f4:b5:
         f8:da:50:3f:fd:75:1a:5e:db:91:94:39
-----BEGIN CERTIFICATE-----
MIICDTCCAcegAwIBAgIBPTANBgkqcAACACJlLQwFADBjMRkwFwYDVQQDDBB3d3cu
bXlkb21fNDMuY29tMRUwEwYDVQQKDAxNeSBEb20sIEluYy4xCzAJBgNVBAYTAlVT
MQ8wDQYDVQQIDAZPcmVnb24xETAPBgNVBAcMCFBvcnRsYW5kMB4XDTE0MDkxMDE0
MTEyOVoXDTE1MDkxMDE0MTEyOVowTTELMAkGA1UEBhMCVVMxDzANBgNVBAgMBk9y
ZWdvbjEVMBMGA1UECgwMTXkgRG9tLCBJbmMuMRYwFAYDVQQDDA13d3cubXlkb20u
Y29tMF0wGAYKKnAAAgAiZS0CAQYKKnAAAgAiZS0DAQNBAHCRw7qazjy/Rn7DgjFN
pgKP873XVX5X+po2BVIiUj+sPgQvZ2zO3Qax4uNw7vevuKDY0oPc3W+aAByoPUoH
X6+jezB5MAkGA1UdEwQCMAAwLAYJYIZIAYb4QgENBB8WHU9wZW5TU0wgR2VuZXJh
dGVkIENlcnRpZmljYXRlMB0GA1UdDgQWBBSn3v2zKQ1OLW7r4Z04SU9o2VDfajAf
BgNVHSMEGDAWgBSkVudaTPi0RX2t+0U+1HMwau5PojANBgkqcAACACJlLQwFAAMx
AIw8Ayyr4BWcNMmaXjFqF6Vk2yuI/+NxzoFQJ/0g+7LAzLr0tfjaUD/9dRpe25GU
OQ==
-----END CERTIFICATE-----
