Certificate:
    Data:
        Version: 3 (0x2)
        Serial Number: 63 (0x3f)
    Signature Algorithm: bign-with-hbelt
        Issuer: CN=www.mydom_5095.com, O=My Dom, Inc., C=US, ST=Oregon, L=Portland
        Validity
            Not Before: Sep 10 14:11:29 2014 GMT
            Not After : Sep 10 14:11:29 2015 GMT
        Subject: C=US, ST=Oregon, O=My Dom, Inc., CN=www.mydom.com
        Subject Public Key Info:
            Public Key Algorithm: bign-pubkey
                Public key: 19B5C98EAD40552D0FC25CD8EF39A0497C2296F1BA16E44E756EC685FBB172E330B6B39AD8A248D6AE7C610B1731F00DCAAC50922B34B5AEA5692E4169D61203
                Parameter set: bign-curve256v1
        X509v3 extensions:
            X509v3 Basic Constraints: 
                CA:FALSE
            Netscape Comment: 
                OpenSSL Generated Certificate
            X509v3 Subject Key Identifier: 
                D0:9A:CB:C0:AD:E0:20:E6:08:0F:31:88:00:69:86:DD:A2:5B:11:EC
            X509v3 Authority Key Identifier: 
                keyid:E8:FA:29:40:3B:DC:F5:15:EB:9E:96:3F:A5:25:46:8F:B6:FC:22:21

    Signature Algorithm: bign-with-hbelt
         a7:17:3d:32:8f:9f:57:8f:af:5d:42:d9:a1:62:5b:6a:f6:bf:
         df:c6:a6:10:ec:f8:81:21:64:a8:ee:0f:bc:73:86:b8:7e:56:
         c9:17:2f:f7:ab:ee:dc:1e:df:11:41:64
-----BEGIN CERTIFICATE-----
MIICDzCCAcmgAwIBAgIBPzANBgkqcAACACJlLQwFADBlMRswGQYDVQQDDBJ3d3cu
bXlkb21fNTA5NS5jb20xFTATBgNVBAoMDE15IERvbSwgSW5jLjELMAkGA1UEBhMC
VVMxDzANBgNVBAgMBk9yZWdvbjERMA8GA1UEBwwIUG9ydGxhbmQwHhcNMTQwOTEw
MTQxMTI5WhcNMTUwOTEwMTQxMTI5WjBNMQswCQYDVQQGEwJVUzEPMA0GA1UECAwG
T3JlZ29uMRUwEwYDVQQKDAxNeSBEb20sIEluYy4xFjAUBgNVBAMMDXd3dy5teWRv
bS5jb20wXTAYBgoqcAACACJlLQIBBgoqcAACACJlLQMBA0EAGbXJjq1AVS0PwlzY
7zmgSXwilvG6FuROdW7GhfuxcuMwtrOa2KJI1q58YQsXMfANyqxQkis0ta6laS5B
adYSA6N7MHkwCQYDVR0TBAIwADAsBglghkgBhvhCAQ0EHxYdT3BlblNTTCBHZW5l
cmF0ZWQgQ2VydGlmaWNhdGUwHQYDVR0OBBYEFNCay8Ct4CDmCA8xiABpht2iWxHs
MB8GA1UdIwQYMBaAFOj6KUA73PUV656WP6UlRo+2/CIhMA0GCSpwAAIAImUtDAUA
AzEApxc9Mo+fV4+vXULZoWJbava/38amEOz4gSFkqO4PvHOGuH5WyRcv96vu3B7f
EUFk
-----END CERTIFICATE-----
