Certificate:
    Data:
        Version: 3 (0x2)
        Serial Number: 64 (0x40)
    Signature Algorithm: bign-with-hbelt
        Issuer: CN=www.mydom_1838.com, O=My Dom, Inc., C=US, ST=Oregon, L=Portland
        Validity
            Not Before: Sep 10 14:11:47 2014 GMT
            Not After : Sep 10 14:11:47 2015 GMT
        Subject: C=US, ST=Oregon, O=My Dom, Inc., CN=www.mydom.com
        Subject Public Key Info:
            Public Key Algorithm: bign-pubkey
                Public key: A9A0E960305166D86F55603CDBF4BF56A4FFBE5B51FAA0AB9167FAA364DEB59A5117D811AC746D6133144C8B5508CDD463F0C74B9A44747B4699BF6B08F437E2
                Parameter set: bign-curve256v1
        X509v3 extensions:
            X509v3 Basic Constraints: 
                CA:FALSE
            Netscape Comment: 
                OpenSSL Generated Certificate
            X509v3 Subject Key Identifier: 
                FA:08:61:6B:A6:0A:13:F0:6F:D9:91:08:18:41:A5:80:8D:50:47:97
            X509v3 Authority Key Identifier: 
                keyid:0B:DF:DE:59:95:F9:F6:3B:61:CF:19:36:B0:20:0C:61:FC:75:E6:B1

    Signature Algorithm: bign-with-hbelt
         ce:df:0d:41:ad:f6:55:60:43:fc:2d:32:e8:75:20:e9:be:74:
         d9:48:51:a0:53:51:b5:fd:a6:c6:10:8b:fc:4f:7b:f1:5e:53:
         84:4a:0e:71:bb:e6:98:fd:e2:2a:0a:25
-----BEGIN CERTIFICATE-----
MIICDzCCAcmgAwIBAgIBQDANBgkqcAACACJlLQwFADBlMRswGQYDVQQDDBJ3d3cu
bXlkb21fMTgzOC5jb20xFTATBgNVBAoMDE15IERvbSwgSW5jLjELMAkGA1UEBhMC
VVMxDzANBgNVBAgMBk9yZWdvbjERMA8GA1UEBwwIUG9ydGxhbmQwHhcNMTQwOTEw
MTQxMTQ3WhcNMTUwOTEwMTQxMTQ3WjBNMQswCQYDVQQGEwJVUzEPMA0GA1UECAwG
T3JlZ29uMRUwEwYDVQQKDAxNeSBEb20sIEluYy4xFjAUBgNVBAMMDXd3dy5teWRv
bS5jb20wXTAYBgoqcAACACJlLQIBBgoqcAACACJlLQMBA0EAqaDpYDBRZthvVWA8
2/S/VqT/vltR+qCrkWf6o2TetZpRF9gRrHRtYTMUTItVCM3UY/DHS5pEdHtGmb9r
CPQ34qN7MHkwCQYDVR0TBAIwADAsBglghkgBhvhCAQ0EHxYdT3BlblNTTCBHZW5l
cmF0ZWQgQ2VydGlmaWNhdGUwHQYDVR0OBBYEFPoIYWumChPwb9mRCBhBpYCNUEeX
MB8GA1UdIwQYMBaAFAvf3lmV+fY7Yc8ZNrAgDGH8deaxMA0GCSpwAAIAImUtDAUA
AzEAzt8NQa32VWBD/C0y6HUg6b502UhRoFNRtf2mxhCL/E978V5ThEoOcbvmmP3i
Kgol
-----END CERTIFICATE-----
