Certificate:
    Data:
        Version: 3 (0x2)
        Serial Number: 65 (0x41)
    Signature Algorithm: bign-with-hbelt
        Issuer: CN=www.mydom_9472.com, O=My Dom, Inc., C=US, ST=Oregon, L=Portland
        Validity
            Not Before: Sep 10 14:11:48 2014 GMT
            Not After : Sep 10 14:11:48 2015 GMT
        Subject: C=US, ST=Oregon, O=My Dom, Inc., CN=www.mydom.com
        Subject Public Key Info:
            Public Key Algorithm: bign-pubkey
                Public key: 8C5018323D6D79F0C0B3018A9AFBF5FDDA8FB77775DC73A1E1EA8F133F2B3C1D3D98EBC3523DD8C968FB667449A65B29EF8359BE993122A30EDC8B1894373EAD
                Parameter set: bign-curve256v1
        X509v3 extensions:
            X509v3 Basic Constraints: 
                CA:FALSE
            Netscape Comment: 
                OpenSSL Generated Certificate
            X509v3 Subject Key Identifier: 
                E5:FC:0C:3B:54:BA:2E:A9:26:17:4B:FE:20:F1:D5:46:3B:40:E3:2A
            X509v3 Authority Key Identifier: 
                keyid:53:69:5C:81:80:A4:B9:B3:FC:8D:15:71:38:8C:B6:C7:97:83:1C:51

    Signature Algorithm: bign-with-hbelt
         2d:41:12:79:56:7d:10:20:08:a3:70:2a:69:e5:25:a9:8a:15:
         6e:27:ac:3e:61:76:41:b2:1e:0c:08:dd:17:54:f6:c2:20:27:
         fb:87:56:8b:e0:8f:9e:5d:d2:ff:d6:61
-----BEGIN CERTIFICATE-----
MIICDzCCAcmgAwIBAgIBQTANBgkqcAACACJlLQwFADBlMRswGQYDVQQDDBJ3d3cu
bXlkb21fOTQ3Mi5jb20xFTATBgNVBAoMDE15IERvbSwgSW5jLjELMAkGA1UEBhMC
VVMxDzANBgNVBAgMBk9yZWdvbjERMA8GA1UEBwwIUG9ydGxhbmQwHhcNMTQwOTEw
MTQxMTQ4WhcNMTUwOTEwMTQxMTQ4WjBNMQswCQYDVQQGEwJVUzEPMA0GA1UECAwG
T3JlZ29uMRUwEwYDVQQKDAxNeSBEb20sIEluYy4xFjAUBgNVBAMMDXd3dy5teWRv
bS5jb20wXTAYBgoqcAACACJlLQIBBgoqcAACACJlLQMBA0EAjFAYMj1tefDAswGK
mvv1/dqPt3d13HOh4eqPEz8rPB09mOvDUj3YyWj7ZnRJplsp74NZvpkxIqMO3IsY
lDc+raN7MHkwCQYDVR0TBAIwADAsBglghkgBhvhCAQ0EHxYdT3BlblNTTCBHZW5l
cmF0ZWQgQ2VydGlmaWNhdGUwHQYDVR0OBBYEFOX8DDtUui6pJhdL/iDx1UY7QOMq
MB8GA1UdIwQYMBaAFFNpXIGApLmz/I0VcTiMtseXgxxRMA0GCSpwAAIAImUtDAUA
AzEALUESeVZ9ECAIo3AqaeUlqYoVbiesPmF2QbIeDAjdF1T2wiAn+4dWi+CPnl3S
/9Zh
-----END CERTIFICATE-----
