Certificate:
    Data:
        Version: 3 (0x2)
        Serial Number: 66 (0x42)
    Signature Algorithm: bign-with-hbelt
        Issuer: CN=www.mydom_9472.com, O=My Dom, Inc., C=US, ST=Oregon, L=Portland
        Validity
            Not Before: Sep 10 14:11:48 2014 GMT
            Not After : Sep 10 14:11:48 2015 GMT
        Subject: C=US, ST=Oregon, O=My Dom, Inc., CN=www.mydom.com
        Subject Public Key Info:
            Public Key Algorithm: bign-pubkey
                Public key: 8C5018323D6D79F0C0B3018A9AFBF5FDDA8FB77775DC73A1E1EA8F133F2B3C1D3D98EBC3523DD8C968FB667449A65B29EF8359BE993122A30EDC8B1894373EAD
                Parameter set: bign-curve256v1
        X509v3 extensions:
            X509v3 Basic Constraints: 
                CA:FALSE
            Netscape Comment: 
                OpenSSL Generated Certificate
            X509v3 Subject Key Identifier: 
                E5:FC:0C:3B:54:BA:2E:A9:26:17:4B:FE:20:F1:D5:46:3B:40:E3:2A
            X509v3 Authority Key Identifier: 
                keyid:53:69:5C:81:80:A4:B9:B3:FC:8D:15:71:38:8C:B6:C7:97:83:1C:51

    Signature Algorithm: bign-with-hbelt
         10:cc:01:c4:3e:96:25:6a:6c:f6:4f:84:e3:8a:60:f1:47:5e:
         3e:48:bd:cd:60:50:b2:21:f9:2a:46:f7:b2:0d:42:41:04:58:
         c5:cf:fd:7c:6a:43:22:80:d0:08:8d:30
-----BEGIN CERTIFICATE-----
MIICDzCCAcmgAwIBAgIBQjANBgkqcAACACJlLQwFADBlMRswGQYDVQQDDBJ3d3cu
bXlkb21fOTQ3Mi5jb20xFTATBgNVBAoMDE15IERvbSwgSW5jLjELMAkGA1UEBhMC
VVMxDzANBgNVBAgMBk9yZWdvbjERMA8GA1UEBwwIUG9ydGxhbmQwHhcNMTQwOTEw
MTQxMTQ4WhcNMTUwOTEwMTQxMTQ4WjBNMQswCQYDVQQGEwJVUzEPMA0GA1UECAwG
T3JlZ29uMRUwEwYDVQQKDAxNeSBEb20sIEluYy4xFjAUBgNVBAMMDXd3dy5teWRv
bS5jb20wXTAYBgoqcAACACJlLQIBBgoqcAACACJlLQMBA0EAjFAYMj1tefDAswGK
mvv1/dqPt3d13HOh4eqPEz8rPB09mOvDUj3YyWj7ZnRJplsp74NZvpkxIqMO3IsY
lDc+raN7MHkwCQYDVR0TBAIwADAsBglghkgBhvhCAQ0EHxYdT3BlblNTTCBHZW5l
cmF0ZWQgQ2VydGlmaWNhdGUwHQYDVR0OBBYEFOX8DDtUui6pJhdL/iDx1UY7QOMq
MB8GA1UdIwQYMBaAFFNpXIGApLmz/I0VcTiMtseXgxxRMA0GCSpwAAIAImUtDAUA
AzEAEMwBxD6WJWps9k+E44pg8UdePki9zWBQsiH5Kkb3sg1CQQRYxc/9fGpDIoDQ
CI0w
-----END CERTIFICATE-----
