Certificate:
    Data:
        Version: 3 (0x2)
        Serial Number: 67 (0x43)
    Signature Algorithm: bign-with-hbelt
        Issuer: CN=www.mydom_9530.com, O=My Dom, Inc., C=US, ST=Oregon, L=Portland
        Validity
            Not Before: Sep 10 14:12:32 2014 GMT
            Not After : Sep 10 14:12:32 2015 GMT
        Subject: C=US, ST=Oregon, O=My Dom, Inc., CN=www.mydom.com
        Subject Public Key Info:
            Public Key Algorithm: bign-pubkey
                Public key: AE3B6391C152CA5F5169AC4C1061254259EB2DCBC17BCEBFB49B719667160294C42DA788D4A2B2573858CE91295EFBBC56982FFD0B04400D53EAE0CCD1E76F45
                Parameter set: bign-curve256v1
        X509v3 extensions:
            X509v3 Basic Constraints: 
                CA:FALSE
            Netscape Comment: 
                OpenSSL Generated Certificate
            X509v3 Subject Key Identifier: 
                D9:63:CC:D3:CC:AC:62:74:01:0C:E2:BE:25:67:02:58:F2:B0:52:B7
            X509v3 Authority Key Identifier: 
                keyid:15:C4:CF:8E:AE:64:C2:DE:41:3E:E5:98:51:E5:8D:09:8D:53:91:B2

    Signature Algorithm: bign-with-hbelt
         28:ab:e0:d5:13:11:be:3f:62:1f:3f:24:e7:27:a3:13:aa:e4:
         5d:77:d6:f8:b1:94:2e:42:54:98:8b:51:b9:69:d1:a5:bb:2b:
         c1:34:7f:a0:d0:45:a6:2e:7c:40:fd:71
-----BEGIN CERTIFICATE-----
MIICDzCCAcmgAwIBAgIBQzANBgkqcAACACJlLQwFADBlMRswGQYDVQQDDBJ3d3cu
bXlkb21fOTUzMC5jb20xFTATBgNVBAoMDE15IERvbSwgSW5jLjELMAkGA1UEBhMC
VVMxDzANBgNVBAgMBk9yZWdvbjERMA8GA1UEBwwIUG9ydGxhbmQwHhcNMTQwOTEw
MTQxMjMyWhcNMTUwOTEwMTQxMjMyWjBNMQswCQYDVQQGEwJVUzEPMA0GA1UECAwG
T3JlZ29uMRUwEwYDVQQKDAxNeSBEb20sIEluYy4xFjAUBgNVBAMMDXd3dy5teWRv
bS5jb20wXTAYBgoqcAACACJlLQIBBgoqcAACACJlLQMBA0EArjtjkcFSyl9RaaxM
EGElQlnrLcvBe86/tJtxlmcWApTELaeI1KKyVzhYzpEpXvu8Vpgv/QsEQA1T6uDM
0edvRaN7MHkwCQYDVR0TBAIwADAsBglghkgBhvhCAQ0EHxYdT3BlblNTTCBHZW5l
cmF0ZWQgQ2VydGlmaWNhdGUwHQYDVR0OBBYEFNljzNPMrGJ0AQziviVnAljysFK3
MB8GA1UdIwQYMBaAFBXEz46uZMLeQT7lmFHljQmNU5GyMA0GCSpwAAIAImUtDAUA
AzEAKKvg1RMRvj9iHz8k5yejE6rkXXfW+LGULkJUmItRuWnRpbsrwTR/oNBFpi58
QP1x
-----END CERTIFICATE-----
