Certificate:
    Data:
        Version: 3 (0x2)
        Serial Number: 68 (0x44)
    Signature Algorithm: bign-with-hbelt
        Issuer: CN=www.mydom_1742.com, O=My Dom, Inc., C=US, ST=Oregon, L=Portland
        Validity
            Not Before: Sep 10 14:12:32 2014 GMT
            Not After : Sep 10 14:12:32 2015 GMT
        Subject: C=US, ST=Oregon, O=My Dom, Inc., CN=www.mydom.com
        Subject Public Key Info:
            Public Key Algorithm: bign-pubkey
                Public key: 75FF7709773D291FCFD3F00417580D5ADD6150FADD9442F8E962205B6BA97CA1D272B08D1AE798EF0735072ECE0EDCA661CFB119A546E4071101FCE19F97D037
                Parameter set: bign-curve256v1
        X509v3 extensions:
            X509v3 Basic Constraints: 
                CA:FALSE
            Netscape Comment: 
                OpenSSL Generated Certificate
            X509v3 Subject Key Identifier: 
                98:FF:23:1D:30:F1:BB:DF:EE:64:F2:2D:F8:1B:A8:D6:A2:14:7B:7E
            X509v3 Authority Key Identifier: 
                keyid:64:59:97:87:2A:24:DC:48:2E:91:DC:3E:BA:19:64:84:AD:DF:5A:0D

    Signature Algorithm: bign-with-hbelt
         3f:84:29:85:d0:cd:28:4c:e1:f1:31:74:b1:ff:0d:56:50:0c:
         db:b9:e2:22:bd:fa:df:33:fb:8e:5a:20:ad:02:38:44:5b:c6:
         b6:27:d6:50:bc:a0:7f:06:8e:b6:d8:43
-----BEGIN CERTIFICATE-----
MIICDzCCAcmgAwIBAgIBRDANBgkqcAACACJlLQwFADBlMRswGQYDVQQDDBJ3d3cu
bXlkb21fMTc0Mi5jb20xFTATBgNVBAoMDE15IERvbSwgSW5jLjELMAkGA1UEBhMC
VVMxDzANBgNVBAgMBk9yZWdvbjERMA8GA1UEBwwIUG9ydGxhbmQwHhcNMTQwOTEw
MTQxMjMyWhcNMTUwOTEwMTQxMjMyWjBNMQswCQYDVQQGEwJVUzEPMA0GA1UECAwG
T3JlZ29uMRUwEwYDVQQKDAxNeSBEb20sIEluYy4xFjAUBgNVBAMMDXd3dy5teWRv
bS5jb20wXTAYBgoqcAACACJlLQIBBgoqcAACACJlLQMBA0EAdf93CXc9KR/P0/AE
F1gNWt1hUPrdlEL46WIgW2upfKHScrCNGueY7wc1By7ODtymYc+xGaVG5AcRAfzh
n5fQN6N7MHkwCQYDVR0TBAIwADAsBglghkgBhvhCAQ0EHxYdT3BlblNTTCBHZW5l
cmF0ZWQgQ2VydGlmaWNhdGUwHQYDVR0OBBYEFJj/Ix0w8bvf7mTyLfgbqNaiFHt+
MB8GA1UdIwQYMBaAFGRZl4cqJNxILpHcProZZISt31oNMA0GCSpwAAIAImUtDAUA
AzEAP4QphdDNKEzh8TF0sf8NVlAM27niIr363zP7jlogrQI4RFvGtifWULygfwaO
tthD
-----END CERTIFICATE-----
