Certificate:
    Data:
        Version: 3 (0x2)
        Serial Number: 69 (0x45)
    Signature Algorithm: bign-with-hbelt
        Issuer: CN=www.mydom_1742.com, O=My Dom, Inc., C=US, ST=Oregon, L=Portland
        Validity
            Not Before: Sep 10 14:12:32 2014 GMT
            Not After : Sep 10 14:12:32 2015 GMT
        Subject: C=US, ST=Oregon, O=My Dom, Inc., CN=www.mydom.com
        Subject Public Key Info:
            Public Key Algorithm: bign-pubkey
                Public key: 75FF7709773D291FCFD3F00417580D5ADD6150FADD9442F8E962205B6BA97CA1D272B08D1AE798EF0735072ECE0EDCA661CFB119A546E4071101FCE19F97D037
                Parameter set: bign-curve256v1
        X509v3 extensions:
            X509v3 Basic Constraints: 
                CA:FALSE
            Netscape Comment: 
                OpenSSL Generated Certificate
            X509v3 Subject Key Identifier: 
                98:FF:23:1D:30:F1:BB:DF:EE:64:F2:2D:F8:1B:A8:D6:A2:14:7B:7E
            X509v3 Authority Key Identifier: 
                keyid:64:59:97:87:2A:24:DC:48:2E:91:DC:3E:BA:19:64:84:AD:DF:5A:0D

    Signature Algorithm: bign-with-hbelt
         17:b5:a4:d8:26:3d:87:09:cc:30:5f:37:3e:6e:4c:b2:3a:8e:
         de:d5:99:5e:cb:7e:10:28:3a:54:8c:2d:25:04:0e:b9:56:ff:
         81:f1:bb:3c:3d:4e:0b:a8:19:31:8a:91
-----BEGIN CERTIFICATE-----
MIICDzCCAcmgAwIBAgIBRTANBgkqcAACACJlLQwFADBlMRswGQYDVQQDDBJ3d3cu
bXlkb21fMTc0Mi5jb20xFTATBgNVBAoMDE15IERvbSwgSW5jLjELMAkGA1UEBhMC
VVMxDzANBgNVBAgMBk9yZWdvbjERMA8GA1UEBwwIUG9ydGxhbmQwHhcNMTQwOTEw
MTQxMjMyWhcNMTUwOTEwMTQxMjMyWjBNMQswCQYDVQQGEwJVUzEPMA0GA1UECAwG
T3JlZ29uMRUwEwYDVQQKDAxNeSBEb20sIEluYy4xFjAUBgNVBAMMDXd3dy5teWRv
bS5jb20wXTAYBgoqcAACACJlLQIBBgoqcAACACJlLQMBA0EAdf93CXc9KR/P0/AE
F1gNWt1hUPrdlEL46WIgW2upfKHScrCNGueY7wc1By7ODtymYc+xGaVG5AcRAfzh
n5fQN6N7MHkwCQYDVR0TBAIwADAsBglghkgBhvhCAQ0EHxYdT3BlblNTTCBHZW5l
cmF0ZWQgQ2VydGlmaWNhdGUwHQYDVR0OBBYEFJj/Ix0w8bvf7mTyLfgbqNaiFHt+
MB8GA1UdIwQYMBaAFGRZl4cqJNxILpHcProZZISt31oNMA0GCSpwAAIAImUtDAUA
AzEAF7Wk2CY9hwnMMF83Pm5MsjqO3tWZXst+ECg6VIwtJQQOuVb/gfG7PD1OC6gZ
MYqR
-----END CERTIFICATE-----
