Certificate:
    Data:
        Version: 3 (0x2)
        Serial Number: 70 (0x46)
    Signature Algorithm: bign-with-hbelt
        Issuer: CN=www.mydom_3528.com, O=My Dom, Inc., C=US, ST=Oregon, L=Portland
        Validity
            Not Before: Sep 10 14:12:49 2014 GMT
            Not After : Sep 10 14:12:49 2015 GMT
        Subject: C=US, ST=Oregon, O=My Dom, Inc., CN=www.mydom.com
        Subject Public Key Info:
            Public Key Algorithm: bign-pubkey
                Public key: C2B7C77C43BC9CF99BE58345F3DD3BE373E5C4718E9FB6B2AFF5A775F361D0C084ED80FE9DC904F337400D95C1F832839E0DA67E9F89B182A1493CFF18FBB66F
                Parameter set: bign-curve256v1
        X509v3 extensions:
            X509v3 Basic Constraints: 
                CA:FALSE
            Netscape Comment: 
                OpenSSL Generated Certificate
            X509v3 Subject Key Identifier: 
                82:1B:45:C2:9C:65:46:B9:E6:11:E9:09:25:95:E1:D4:E9:C1:1C:4B
            X509v3 Authority Key Identifier: 
                keyid:85:0A:39:57:DB:BE:6B:64:4F:28:95:F4:2E:BA:6B:52:AA:34:74:6B

    Signature Algorithm: bign-with-hbelt
         6c:c3:46:b2:68:77:95:b3:24:df:2d:1f:b5:c7:42:9a:fb:0e:
         b1:5f:18:3f:e0:bd:4d:df:d0:6e:d7:5b:73:65:1e:af:9c:69:
         0e:cc:aa:83:42:8c:45:a5:56:e2:a0:c2
-----BEGIN CERTIFICATE-----
MIICDzCCAcmgAwIBAgIBRjANBgkqcAACACJlLQwFADBlMRswGQYDVQQDDBJ3d3cu
bXlkb21fMzUyOC5jb20xFTATBgNVBAoMDE15IERvbSwgSW5jLjELMAkGA1UEBhMC
VVMxDzANBgNVBAgMBk9yZWdvbjERMA8GA1UEBwwIUG9ydGxhbmQwHhcNMTQwOTEw
MTQxMjQ5WhcNMTUwOTEwMTQxMjQ5WjBNMQswCQYDVQQGEwJVUzEPMA0GA1UECAwG
T3JlZ29uMRUwEwYDVQQKDAxNeSBEb20sIEluYy4xFjAUBgNVBAMMDXd3dy5teWRv
bS5jb20wXTAYBgoqcAACACJlLQIBBgoqcAACACJlLQMBA0EAwrfHfEO8nPmb5YNF
890743PlxHGOn7ayr/WndfNh0MCE7YD+nckE8zdADZXB+DKDng2mfp+JsYKhSTz/
GPu2b6N7MHkwCQYDVR0TBAIwADAsBglghkgBhvhCAQ0EHxYdT3BlblNTTCBHZW5l
cmF0ZWQgQ2VydGlmaWNhdGUwHQYDVR0OBBYEFIIbRcKcZUa55hHpCSWV4dTpwRxL
MB8GA1UdIwQYMBaAFIUKOVfbvmtkTyiV9C66a1KqNHRrMA0GCSpwAAIAImUtDAUA
AzEAbMNGsmh3lbMk3y0ftcdCmvsOsV8YP+C9Td/Qbtdbc2Uer5xpDsyqg0KMRaVW
4qDC
-----END CERTIFICATE-----
