Certificate:
    Data:
        Version: 3 (0x2)
        Serial Number: 72 (0x48)
    Signature Algorithm: bign-with-hbelt
        Issuer: CN=www.mydom_1902.com, O=My Dom, Inc., C=US, ST=Oregon, L=Portland
        Validity
            Not Before: Sep 10 14:12:49 2014 GMT
            Not After : Sep 10 14:12:49 2015 GMT
        Subject: C=US, ST=Oregon, O=My Dom, Inc., CN=www.mydom.com
        Subject Public Key Info:
            Public Key Algorithm: bign-pubkey
                Public key: B87D285666C263A54A0FC819D311B892B93C05222A99ADDCC0D3F0214D8B6F8169659835F7676DDEC181F91B05265273CFEEF0EB042D4D78AAB08E3696FE6E5C
                Parameter set: bign-curve256v1
        X509v3 extensions:
            X509v3 Basic Constraints: 
                CA:FALSE
            Netscape Comment: 
                OpenSSL Generated Certificate
            X509v3 Subject Key Identifier: 
                51:29:68:19:A4:0A:CA:35:B7:E9:76:6B:18:51:34:F4:85:7C:2C:68
            X509v3 Authority Key Identifier: 
                keyid:CC:BD:EA:11:1B:28:39:4F:AB:E1:B4:27:B5:71:8D:4F:9E:75:5D:96

    Signature Algorithm: bign-with-hbelt
         c0:8f:cb:9e:7e:0b:7a:94:bd:94:de:b5:4c:03:8d:24:d0:08:
         31:a2:8a:89:fc:23:4c:c0:20:45:84:d5:9d:0c:4f:8a:f5:e5:
         16:2e:43:2e:c4:c4:35:58:97:da:14:3f
-----BEGIN CERTIFICATE-----
MIICDzCCAcmgAwIBAgIBSDANBgkqcAACACJlLQwFADBlMRswGQYDVQQDDBJ3d3cu
bXlkb21fMTkwMi5jb20xFTATBgNVBAoMDE15IERvbSwgSW5jLjELMAkGA1UEBhMC
VVMxDzANBgNVBAgMBk9yZWdvbjERMA8GA1UEBwwIUG9ydGxhbmQwHhcNMTQwOTEw
MTQxMjQ5WhcNMTUwOTEwMTQxMjQ5WjBNMQswCQYDVQQGEwJVUzEPMA0GA1UECAwG
T3JlZ29uMRUwEwYDVQQKDAxNeSBEb20sIEluYy4xFjAUBgNVBAMMDXd3dy5teWRv
bS5jb20wXTAYBgoqcAACACJlLQIBBgoqcAACACJlLQMBA0EAuH0oVmbCY6VKD8gZ
0xG4krk8BSIqma3cwNPwIU2Lb4FpZZg192dt3sGB+RsFJlJzz+7w6wQtTXiqsI42
lv5uXKN7MHkwCQYDVR0TBAIwADAsBglghkgBhvhCAQ0EHxYdT3BlblNTTCBHZW5l
cmF0ZWQgQ2VydGlmaWNhdGUwHQYDVR0OBBYEFFEpaBmkCso1t+l2axhRNPSFfCxo
MB8GA1UdIwQYMBaAFMy96hEbKDlPq+G0J7VxjU+edV2WMA0GCSpwAAIAImUtDAUA
AzEAwI/Lnn4LepS9lN61TAONJNAIMaKKifwjTMAgRYTVnQxPivXlFi5DLsTENViX
2hQ/
-----END CERTIFICATE-----
