Certificate:
    Data:
        Version: 3 (0x2)
        Serial Number: 73 (0x49)
    Signature Algorithm: bign-with-hbelt
        Issuer: CN=www.mydom_43.com, O=My Dom, Inc., C=US, ST=Oregon, L=Portland
        Validity
            Not Before: Sep 10 14:16:07 2014 GMT
            Not After : Sep 10 14:16:07 2015 GMT
        Subject: C=US, ST=Oregon, O=My Dom, Inc., CN=www.mydom.com
        Subject Public Key Info:
            Public Key Algorithm: bign-pubkey
                Public key: 827B451968F7F6BF34DF8C475A446D95B07E41CEF816F3A7209CCB6EC312BC54F14AD8884F1329CBC8742EFA2711DB4DC4FAAF010B88E1D6DF66026500BD3BA0
                Parameter set: bign-curve256v1
        X509v3 extensions:
            X509v3 Basic Constraints: 
                CA:FALSE
            Netscape Comment: 
                OpenSSL Generated Certificate
            X509v3 Subject Key Identifier: 
                B7:00:A9:79:28:6A:2E:7B:98:6C:7D:04:26:2F:B0:04:9B:47:56:11
            X509v3 Authority Key Identifier: 
                keyid:53:F6:C0:D3:23:F4:D6:1D:F7:93:48:AD:03:A2:F3:27:70:B9:F4:7A

    Signature Algorithm: bign-with-hbelt
         2f:e8:6c:35:4e:2e:4c:83:a1:f5:57:92:b3:b5:03:f3:29:54:
         c8:b5:9c:f5:76:60:91:d8:ea:9e:f5:0e:ba:c3:ef:79:38:dc:
         66:e2:ff:a1:4c:b4:cb:4c:55:f5:09:c4
-----BEGIN CERTIFICATE-----
MIICDTCCAcegAwIBAgIBSTANBgkqcAACACJlLQwFADBjMRkwFwYDVQQDDBB3d3cu
bXlkb21fNDMuY29tMRUwEwYDVQQKDAxNeSBEb20sIEluYy4xCzAJBgNVBAYTAlVT
MQ8wDQYDVQQIDAZPcmVnb24xETAPBgNVBAcMCFBvcnRsYW5kMB4XDTE0MDkxMDE0
MTYwN1oXDTE1MDkxMDE0MTYwN1owTTELMAkGA1UEBhMCVVMxDzANBgNVBAgMBk9y
ZWdvbjEVMBMGA1UECgwMTXkgRG9tLCBJbmMuMRYwFAYDVQQDDA13d3cubXlkb20u
Y29tMF0wGAYKKnAAAgAiZS0CAQYKKnAAAgAiZS0DAQNBAIJ7RRlo9/a/NN+MR1pE
bZWwfkHO+BbzpyCcy27DErxU8UrYiE8TKcvIdC76JxHbTcT6rwELiOHW32YCZQC9
O6CjezB5MAkGA1UdEwQCMAAwLAYJYIZIAYb4QgENBB8WHU9wZW5TU0wgR2VuZXJh
dGVkIENlcnRpZmljYXRlMB0GA1UdDgQWBBS3AKl5KGoue5hsfQQmL7AEm0dWETAf
BgNVHSMEGDAWgBRT9sDTI/TWHfeTSK0DovMncLn0ejANBgkqcAACACJlLQwFAAMx
AC/obDVOLkyDofVXkrO1A/MpVMi1nPV2YJHY6p71DrrD73k43Gbi/6FMtMtMVfUJ
xA==
-----END CERTIFICATE-----
