Certificate:
    Data:
        Version: 3 (0x2)
        Serial Number: 74 (0x4a)
    Signature Algorithm: bign-with-hbelt
        Issuer: CN=www.mydom_1181.com, O=My Dom, Inc., C=US, ST=Oregon, L=Portland
        Validity
            Not Before: Sep 10 14:16:08 2014 GMT
            Not After : Sep 10 14:16:08 2015 GMT
        Subject: C=US, ST=Oregon, O=My Dom, Inc., CN=www.mydom.com
        Subject Public Key Info:
            Public Key Algorithm: bign-pubkey
                Public key: 01223A29555BCD3209943C426AA62FC7254C5611C9EBC20F92D2D14C1A385C9B24D936D487FB52C761D295610BAF82D866944BE3AB6071E4E53F8C818DB44C9B
                Parameter set: bign-curve256v1
        X509v3 extensions:
            X509v3 Basic Constraints: 
                CA:FALSE
            Netscape Comment: 
                OpenSSL Generated Certificate
            X509v3 Subject Key Identifier: 
                9D:7F:AB:0C:E7:BD:97:47:99:14:D3:52:61:48:82:B1:18:66:3A:81
            X509v3 Authority Key Identifier: 
                keyid:69:38:B8:5E:1F:8A:0E:9C:1C:D5:9C:6B:52:78:ED:6E:14:61:CB:DF

    Signature Algorithm: bign-with-hbelt
         52:05:69:33:25:ae:1a:0f:aa:ce:4e:24:6c:c9:81:14:a9:42:
         3e:ac:ec:44:68:d6:39:aa:2d:8c:0a:f1:56:cc:f1:34:61:4a:
         77:91:23:06:c6:f7:e5:53:d4:97:5d:bf
-----BEGIN CERTIFICATE-----
MIICDzCCAcmgAwIBAgIBSjANBgkqcAACACJlLQwFADBlMRswGQYDVQQDDBJ3d3cu
bXlkb21fMTE4MS5jb20xFTATBgNVBAoMDE15IERvbSwgSW5jLjELMAkGA1UEBhMC
VVMxDzANBgNVBAgMBk9yZWdvbjERMA8GA1UEBwwIUG9ydGxhbmQwHhcNMTQwOTEw
MTQxNjA4WhcNMTUwOTEwMTQxNjA4WjBNMQswCQYDVQQGEwJVUzEPMA0GA1UECAwG
T3JlZ29uMRUwEwYDVQQKDAxNeSBEb20sIEluYy4xFjAUBgNVBAMMDXd3dy5teWRv
bS5jb20wXTAYBgoqcAACACJlLQIBBgoqcAACACJlLQMBA0EAASI6KVVbzTIJlDxC
aqYvxyVMVhHJ68IPktLRTBo4XJsk2TbUh/tSx2HSlWELr4LYZpRL46tgceTlP4yB
jbRMm6N7MHkwCQYDVR0TBAIwADAsBglghkgBhvhCAQ0EHxYdT3BlblNTTCBHZW5l
cmF0ZWQgQ2VydGlmaWNhdGUwHQYDVR0OBBYEFJ1/qwznvZdHmRTTUmFIgrEYZjqB
MB8GA1UdIwQYMBaAFGk4uF4fig6cHNWca1J47W4UYcvfMA0GCSpwAAIAImUtDAUA
AzEAUgVpMyWuGg+qzk4kbMmBFKlCPqzsRGjWOaotjArxVszxNGFKd5EjBsb35VPU
l12/
-----END CERTIFICATE-----
