Certificate:
    Data:
        Version: 3 (0x2)
        Serial Number: 76 (0x4c)
    Signature Algorithm: bign-with-hbelt
        Issuer: CN=www.mydom_9662.com, O=My Dom, Inc., C=US, ST=Oregon, L=Portland
        Validity
            Not Before: Sep 10 14:29:38 2014 GMT
            Not After : Sep 10 14:29:38 2015 GMT
        Subject: C=US, ST=Oregon, O=My Dom, Inc., CN=www.mydom.com
        Subject Public Key Info:
            Public Key Algorithm: bign-pubkey
                Public key: 5552E848800D97DC52528E88A17AEF47455591FE22E4C9F5F629D1DE9AA16C4E9A0DE6EDBE87B7EE5E51D2FC796942BBD6FABE07001E4F1FE383E7AA008B543C
                Parameter set: bign-curve256v1
        X509v3 extensions:
            X509v3 Basic Constraints: 
                CA:FALSE
            Netscape Comment: 
                OpenSSL Generated Certificate
            X509v3 Subject Key Identifier: 
                E9:BB:0A:C1:F5:D6:26:94:1D:CE:70:6C:66:A0:35:40:4E:1D:28:03
            X509v3 Authority Key Identifier: 
                keyid:26:5B:BA:00:D0:FD:E1:27:E7:26:DA:99:18:3B:7B:DF:28:11:01:A3

    Signature Algorithm: bign-with-hbelt
         40:52:d9:03:48:be:14:88:74:03:cb:22:c3:c8:cf:5d:5b:29:
         5c:71:21:74:a1:92:4a:13:f4:01:c2:6a:7a:0e:db:dc:28:66:
         00:65:53:8e:18:5a:f6:e3:e5:c5:e0:70
-----BEGIN CERTIFICATE-----
MIICDzCCAcmgAwIBAgIBTDANBgkqcAACACJlLQwFADBlMRswGQYDVQQDDBJ3d3cu
bXlkb21fOTY2Mi5jb20xFTATBgNVBAoMDE15IERvbSwgSW5jLjELMAkGA1UEBhMC
VVMxDzANBgNVBAgMBk9yZWdvbjERMA8GA1UEBwwIUG9ydGxhbmQwHhcNMTQwOTEw
MTQyOTM4WhcNMTUwOTEwMTQyOTM4WjBNMQswCQYDVQQGEwJVUzEPMA0GA1UECAwG
T3JlZ29uMRUwEwYDVQQKDAxNeSBEb20sIEluYy4xFjAUBgNVBAMMDXd3dy5teWRv
bS5jb20wXTAYBgoqcAACACJlLQIBBgoqcAACACJlLQMBA0EAVVLoSIANl9xSUo6I
oXrvR0VVkf4i5Mn19inR3pqhbE6aDebtvoe37l5R0vx5aUK71vq+BwAeTx/jg+eq
AItUPKN7MHkwCQYDVR0TBAIwADAsBglghkgBhvhCAQ0EHxYdT3BlblNTTCBHZW5l
cmF0ZWQgQ2VydGlmaWNhdGUwHQYDVR0OBBYEFOm7CsH11iaUHc5wbGagNUBOHSgD
MB8GA1UdIwQYMBaAFCZbugDQ/eEn5ybamRg7e98oEQGjMA0GCSpwAAIAImUtDAUA
AzEAQFLZA0i+FIh0A8siw8jPXVspXHEhdKGSShP0AcJqeg7b3ChmAGVTjhha9uPl
xeBw
-----END CERTIFICATE-----
