Certificate:
    Data:
        Version: 3 (0x2)
        Serial Number: 77 (0x4d)
    Signature Algorithm: bign-with-hbelt
        Issuer: CN=www.mydom_4707.com, O=My Dom, Inc., C=US, ST=Oregon, L=Portland
        Validity
            Not Before: Sep 10 14:29:39 2014 GMT
            Not After : Sep 10 14:29:39 2015 GMT
        Subject: C=US, ST=Oregon, O=My Dom, Inc., CN=www.mydom.com
        Subject Public Key Info:
            Public Key Algorithm: bign-pubkey
                Public key: 8A9CF9C40C4AC43F3832B7C371AD6E689C024CE44258CA088E92B6B90B882EB3B50B4E0F81F6498C4A2A4667158BBE69E604ED91BEA04AC7276DAEB4D094D7D5
                Parameter set: bign-curve256v1
        X509v3 extensions:
            X509v3 Basic Constraints: 
                CA:FALSE
            Netscape Comment: 
                OpenSSL Generated Certificate
            X509v3 Subject Key Identifier: 
                43:FE:8B:50:5A:82:F1:CA:0B:F9:BA:2A:86:D5:51:90:FB:D2:4B:36
            X509v3 Authority Key Identifier: 
                keyid:1F:73:D0:E3:99:C7:D1:0B:32:06:CA:13:E2:CA:64:53:4F:C5:17:14

    Signature Algorithm: bign-with-hbelt
         d3:2a:e7:de:1e:74:c1:1d:f0:e7:6b:ff:f8:23:de:7f:06:92:
         e9:29:36:9d:85:cf:87:e1:9b:f8:f1:71:30:6a:99:f7:0b:41:
         35:46:e4:c6:06:ba:e3:ec:59:0f:d8:d3
-----BEGIN CERTIFICATE-----
MIICDzCCAcmgAwIBAgIBTTANBgkqcAACACJlLQwFADBlMRswGQYDVQQDDBJ3d3cu
bXlkb21fNDcwNy5jb20xFTATBgNVBAoMDE15IERvbSwgSW5jLjELMAkGA1UEBhMC
VVMxDzANBgNVBAgMBk9yZWdvbjERMA8GA1UEBwwIUG9ydGxhbmQwHhcNMTQwOTEw
MTQyOTM5WhcNMTUwOTEwMTQyOTM5WjBNMQswCQYDVQQGEwJVUzEPMA0GA1UECAwG
T3JlZ29uMRUwEwYDVQQKDAxNeSBEb20sIEluYy4xFjAUBgNVBAMMDXd3dy5teWRv
bS5jb20wXTAYBgoqcAACACJlLQIBBgoqcAACACJlLQMBA0EAipz5xAxKxD84MrfD
ca1uaJwCTORCWMoIjpK2uQuILrO1C04PgfZJjEoqRmcVi75p5gTtkb6gSscnba60
0JTX1aN7MHkwCQYDVR0TBAIwADAsBglghkgBhvhCAQ0EHxYdT3BlblNTTCBHZW5l
cmF0ZWQgQ2VydGlmaWNhdGUwHQYDVR0OBBYEFEP+i1BagvHKC/m6KobVUZD70ks2
MB8GA1UdIwQYMBaAFB9z0OOZx9ELMgbKE+LKZFNPxRcUMA0GCSpwAAIAImUtDAUA
AzEA0yrn3h50wR3w52v/+CPefwaS6Sk2nYXPh+Gb+PFxMGqZ9wtBNUbkxga64+xZ
D9jT
-----END CERTIFICATE-----
