Certificate:
    Data:
        Version: 3 (0x2)
        Serial Number: 78 (0x4e)
    Signature Algorithm: bign-with-hbelt
        Issuer: CN=www.mydom_4707.com, O=My Dom, Inc., C=US, ST=Oregon, L=Portland
        Validity
            Not Before: Sep 10 14:29:39 2014 GMT
            Not After : Sep 10 14:29:39 2015 GMT
        Subject: C=US, ST=Oregon, O=My Dom, Inc., CN=www.mydom.com
        Subject Public Key Info:
            Public Key Algorithm: bign-pubkey
                Public key: 8A9CF9C40C4AC43F3832B7C371AD6E689C024CE44258CA088E92B6B90B882EB3B50B4E0F81F6498C4A2A4667158BBE69E604ED91BEA04AC7276DAEB4D094D7D5
                Parameter set: bign-curve256v1
        X509v3 extensions:
            X509v3 Basic Constraints: 
                CA:FALSE
            Netscape Comment: 
                OpenSSL Generated Certificate
            X509v3 Subject Key Identifier: 
                43:FE:8B:50:5A:82:F1:CA:0B:F9:BA:2A:86:D5:51:90:FB:D2:4B:36
            X509v3 Authority Key Identifier: 
                keyid:1F:73:D0:E3:99:C7:D1:0B:32:06:CA:13:E2:CA:64:53:4F:C5:17:14

    Signature Algorithm: bign-with-hbelt
         d5:bc:45:8a:ea:55:78:b8:63:2a:ce:67:ce:74:52:6b:cb:51:
         db:14:2f:33:88:6c:42:8c:5e:5e:8a:2d:94:c2:8e:c8:7c:97:
         ae:5a:cc:bc:42:ed:be:23:fb:50:b5:c4
-----BEGIN CERTIFICATE-----
MIICDzCCAcmgAwIBAgIBTjANBgkqcAACACJlLQwFADBlMRswGQYDVQQDDBJ3d3cu
bXlkb21fNDcwNy5jb20xFTATBgNVBAoMDE15IERvbSwgSW5jLjELMAkGA1UEBhMC
VVMxDzANBgNVBAgMBk9yZWdvbjERMA8GA1UEBwwIUG9ydGxhbmQwHhcNMTQwOTEw
MTQyOTM5WhcNMTUwOTEwMTQyOTM5WjBNMQswCQYDVQQGEwJVUzEPMA0GA1UECAwG
T3JlZ29uMRUwEwYDVQQKDAxNeSBEb20sIEluYy4xFjAUBgNVBAMMDXd3dy5teWRv
bS5jb20wXTAYBgoqcAACACJlLQIBBgoqcAACACJlLQMBA0EAipz5xAxKxD84MrfD
ca1uaJwCTORCWMoIjpK2uQuILrO1C04PgfZJjEoqRmcVi75p5gTtkb6gSscnba60
0JTX1aN7MHkwCQYDVR0TBAIwADAsBglghkgBhvhCAQ0EHxYdT3BlblNTTCBHZW5l
cmF0ZWQgQ2VydGlmaWNhdGUwHQYDVR0OBBYEFEP+i1BagvHKC/m6KobVUZD70ks2
MB8GA1UdIwQYMBaAFB9z0OOZx9ELMgbKE+LKZFNPxRcUMA0GCSpwAAIAImUtDAUA
AzEA1bxFiupVeLhjKs5nznRSa8tR2xQvM4hsQoxeXootlMKOyHyXrlrMvELtviP7
ULXE
-----END CERTIFICATE-----
