Certificate:
    Data:
        Version: 3 (0x2)
        Serial Number: 79 (0x4f)
    Signature Algorithm: bign-with-hbelt
        Issuer: CN=www.mydom_5621.com, O=My Dom, Inc., C=US, ST=Oregon, L=Portland
        Validity
            Not Before: Sep 10 15:01:53 2014 GMT
            Not After : Sep 10 15:01:53 2015 GMT
        Subject: C=US, ST=Oregon, O=My Dom, Inc., CN=www.mydom.com
        Subject Public Key Info:
            Public Key Algorithm: bign-pubkey
                Public key: ADF2887AAE2EB7EA51858CD7F3AB18FC3BF89BD1276B5C8DCEDFD17835642330D65F8E391A742A33E6B8EEFCE8FCB85EFA6C7509E1CBBF1A3B8C7D81DD8DF827
                Parameter set: bign-curve256v1
        X509v3 extensions:
            X509v3 Basic Constraints: 
                CA:FALSE
            Netscape Comment: 
                OpenSSL Generated Certificate
            X509v3 Subject Key Identifier: 
                B1:CB:8C:09:EB:3F:33:E3:81:2F:55:1D:8C:FD:80:D5:7F:51:99:5B
            X509v3 Authority Key Identifier: 
                keyid:C9:2F:B0:08:DF:1D:F5:DE:92:98:99:E0:CB:78:65:40:E3:23:BF:85

    Signature Algorithm: bign-with-hbelt
         1a:36:ff:36:e7:36:dc:fa:4b:12:11:0d:38:ca:09:b2:ef:6f:
         1e:63:17:25:fd:f4:4e:3b:be:f6:71:92:2b:51:d8:aa:64:b9:
         c8:55:a5:c0:e4:81:80:4b:66:0d:be:59
-----BEGIN CERTIFICATE-----
MIICDzCCAcmgAwIBAgIBTzANBgkqcAACACJlLQwFADBlMRswGQYDVQQDDBJ3d3cu
bXlkb21fNTYyMS5jb20xFTATBgNVBAoMDE15IERvbSwgSW5jLjELMAkGA1UEBhMC
VVMxDzANBgNVBAgMBk9yZWdvbjERMA8GA1UEBwwIUG9ydGxhbmQwHhcNMTQwOTEw
MTUwMTUzWhcNMTUwOTEwMTUwMTUzWjBNMQswCQYDVQQGEwJVUzEPMA0GA1UECAwG
T3JlZ29uMRUwEwYDVQQKDAxNeSBEb20sIEluYy4xFjAUBgNVBAMMDXd3dy5teWRv
bS5jb20wXTAYBgoqcAACACJlLQIBBgoqcAACACJlLQMBA0EArfKIeq4ut+pRhYzX
86sY/Dv4m9Ena1yNzt/ReDVkIzDWX445GnQqM+a47vzo/Lhe+mx1CeHLvxo7jH2B
3Y34J6N7MHkwCQYDVR0TBAIwADAsBglghkgBhvhCAQ0EHxYdT3BlblNTTCBHZW5l
cmF0ZWQgQ2VydGlmaWNhdGUwHQYDVR0OBBYEFLHLjAnrPzPjgS9VHYz9gNV/UZlb
MB8GA1UdIwQYMBaAFMkvsAjfHfXekpiZ4Mt4ZUDjI7+FMA0GCSpwAAIAImUtDAUA
AzEAGjb/Nuc23PpLEhENOMoJsu9vHmMXJf30Tju+9nGSK1HYqmS5yFWlwOSBgEtm
Db5Z
-----END CERTIFICATE-----
