Certificate:
    Data:
        Version: 3 (0x2)
        Serial Number: 80 (0x50)
    Signature Algorithm: bign-with-hbelt
        Issuer: CN=www.mydom_3196.com, O=My Dom, Inc., C=US, ST=Oregon, L=Portland
        Validity
            Not Before: Sep 10 15:08:56 2014 GMT
            Not After : Sep 10 15:08:56 2015 GMT
        Subject: C=US, ST=Oregon, O=My Dom, Inc., CN=www.mydom.com
        Subject Public Key Info:
            Public Key Algorithm: bign-pubkey
                Public key: 7C057BA77522FA0884B80130448810A47608FCD6B2DF740017439E06411F55E7664B56EF5B76CCDE758EB7F03EDD3C9845A1C5159380EC3F3CD68FA55A5FF12B
                Parameter set: bign-curve256v1
        X509v3 extensions:
            X509v3 Basic Constraints: 
                CA:FALSE
            Netscape Comment: 
                OpenSSL Generated Certificate
            X509v3 Subject Key Identifier: 
                DF:47:C9:FC:A8:56:95:72:99:C4:D3:2B:D8:9F:E8:A8:46:4F:7E:88
            X509v3 Authority Key Identifier: 
                keyid:2A:A2:91:EF:93:A3:88:F3:12:B7:E9:9E:03:01:6A:33:C2:11:E2:3C

    Signature Algorithm: bign-with-hbelt
         53:0c:5c:7a:12:98:36:4d:22:7d:92:1a:f7:ff:ca:ee:08:76:
         2d:25:4f:93:5e:de:2d:41:86:4f:4c:ec:10:cf:af:ed:58:e8:
         c8:da:28:4e:c1:b0:21:8d:7c:3f:f8:27
-----BEGIN CERTIFICATE-----
MIICDzCCAcmgAwIBAgIBUDANBgkqcAACACJlLQwFADBlMRswGQYDVQQDDBJ3d3cu
bXlkb21fMzE5Ni5jb20xFTATBgNVBAoMDE15IERvbSwgSW5jLjELMAkGA1UEBhMC
VVMxDzANBgNVBAgMBk9yZWdvbjERMA8GA1UEBwwIUG9ydGxhbmQwHhcNMTQwOTEw
MTUwODU2WhcNMTUwOTEwMTUwODU2WjBNMQswCQYDVQQGEwJVUzEPMA0GA1UECAwG
T3JlZ29uMRUwEwYDVQQKDAxNeSBEb20sIEluYy4xFjAUBgNVBAMMDXd3dy5teWRv
bS5jb20wXTAYBgoqcAACACJlLQIBBgoqcAACACJlLQMBA0EAfAV7p3Ui+giEuAEw
RIgQpHYI/Nay33QAF0OeBkEfVedmS1bvW3bM3nWOt/A+3TyYRaHFFZOA7D881o+l
Wl/xK6N7MHkwCQYDVR0TBAIwADAsBglghkgBhvhCAQ0EHxYdT3BlblNTTCBHZW5l
cmF0ZWQgQ2VydGlmaWNhdGUwHQYDVR0OBBYEFN9HyfyoVpVymcTTK9if6KhGT36I
MB8GA1UdIwQYMBaAFCqike+To4jzErfpngMBajPCEeI8MA0GCSpwAAIAImUtDAUA
AzEAUwxcehKYNk0ifZIa9//K7gh2LSVPk17eLUGGT0zsEM+v7VjoyNooTsGwIY18
P/gn
-----END CERTIFICATE-----
