Certificate:
    Data:
        Version: 3 (0x2)
        Serial Number: 81 (0x51)
    Signature Algorithm: bign-with-hbelt
        Issuer: CN=www.mydom_3094.com, O=My Dom, Inc., C=US, ST=Oregon, L=Portland
        Validity
            Not Before: Sep 10 15:12:14 2014 GMT
            Not After : Sep 10 15:12:14 2015 GMT
        Subject: C=US, ST=Oregon, O=My Dom, Inc., CN=www.mydom.com
        Subject Public Key Info:
            Public Key Algorithm: bign-pubkey
                Public key: A5F87DE97D0551B6B64FD0D037DBE99EB4E299286533DBF43DD5B00359D2366220DA3A54F11C8F416687BC26118C30D3B0ED52DF90DFF397629E64F0BDFECFD5
                Parameter set: bign-curve256v1
        X509v3 extensions:
            X509v3 Basic Constraints: 
                CA:FALSE
            Netscape Comment: 
                OpenSSL Generated Certificate
            X509v3 Subject Key Identifier: 
                BD:BE:40:F3:91:3E:EE:0F:34:B8:5F:0F:8C:94:8F:51:1C:09:25:10
            X509v3 Authority Key Identifier: 
                keyid:DF:DC:31:A4:E7:02:5D:1A:7D:3D:41:2A:78:FC:A6:A7:EC:0F:CE:BD

    Signature Algorithm: bign-with-hbelt
         02:75:0c:b8:5a:ae:fa:a1:d1:fe:5d:f4:d0:b9:2b:c5:7e:dd:
         3f:71:fe:e0:6b:44:2a:91:99:34:3e:5b:df:6b:53:0b:9a:01:
         46:b1:00:56:3e:96:26:f9:e0:f8:c2:85
-----BEGIN CERTIFICATE-----
MIICDzCCAcmgAwIBAgIBUTANBgkqcAACACJlLQwFADBlMRswGQYDVQQDDBJ3d3cu
bXlkb21fMzA5NC5jb20xFTATBgNVBAoMDE15IERvbSwgSW5jLjELMAkGA1UEBhMC
VVMxDzANBgNVBAgMBk9yZWdvbjERMA8GA1UEBwwIUG9ydGxhbmQwHhcNMTQwOTEw
MTUxMjE0WhcNMTUwOTEwMTUxMjE0WjBNMQswCQYDVQQGEwJVUzEPMA0GA1UECAwG
T3JlZ29uMRUwEwYDVQQKDAxNeSBEb20sIEluYy4xFjAUBgNVBAMMDXd3dy5teWRv
bS5jb20wXTAYBgoqcAACACJlLQIBBgoqcAACACJlLQMBA0EApfh96X0FUba2T9DQ
N9vpnrTimShlM9v0PdWwA1nSNmIg2jpU8RyPQWaHvCYRjDDTsO1S35Df85dinmTw
vf7P1aN7MHkwCQYDVR0TBAIwADAsBglghkgBhvhCAQ0EHxYdT3BlblNTTCBHZW5l
cmF0ZWQgQ2VydGlmaWNhdGUwHQYDVR0OBBYEFL2+QPORPu4PNLhfD4yUj1EcCSUQ
MB8GA1UdIwQYMBaAFN/cMaTnAl0afT1BKnj8pqfsD869MA0GCSpwAAIAImUtDAUA
AzEAAnUMuFqu+qHR/l300LkrxX7dP3H+4GtEKpGZND5b32tTC5oBRrEAVj6WJvng
+MKF
-----END CERTIFICATE-----
