Certificate:
    Data:
        Version: 3 (0x2)
        Serial Number: 82 (0x52)
    Signature Algorithm: bign-with-hbelt
        Issuer: CN=www.mydom_209.com, O=My Dom, Inc., C=US, ST=Oregon, L=Portland
        Validity
            Not Before: Sep 10 15:23:07 2014 GMT
            Not After : Sep 10 15:23:07 2015 GMT
        Subject: C=US, ST=Oregon, O=My Dom, Inc., CN=www.mydom.com
        Subject Public Key Info:
            Public Key Algorithm: bign-pubkey
                Public key: 06D3A0CFEA0229B4F272FA5A9775C8F709D22575F55FC9D0CD9D92E1EB3AE516B870C04B75315B5C4818A02432F810DA8BC8BE3646BFA9474C1791371BE5577B
                Parameter set: bign-curve256v1
        X509v3 extensions:
            X509v3 Basic Constraints: 
                CA:FALSE
            Netscape Comment: 
                OpenSSL Generated Certificate
            X509v3 Subject Key Identifier: 
                23:AF:72:A7:51:76:1D:AA:C8:CC:3B:27:2D:38:FD:3D:65:8F:32:0A
            X509v3 Authority Key Identifier: 
                keyid:D3:2E:F1:A5:1F:6B:6F:A8:74:E7:30:82:35:EA:9E:8A:A6:03:D0:51

    Signature Algorithm: bign-with-hbelt
         80:7e:10:2e:59:8c:c2:0e:83:fa:e0:75:b2:51:3f:18:4e:50:
         83:06:d4:8a:90:67:86:24:58:21:3d:c8:5e:b8:1a:63:4e:00:
         a1:7f:f2:47:73:1b:1d:5f:7c:ef:ce:38
-----BEGIN CERTIFICATE-----
MIICDjCCAcigAwIBAgIBUjANBgkqcAACACJlLQwFADBkMRowGAYDVQQDDBF3d3cu
bXlkb21fMjA5LmNvbTEVMBMGA1UECgwMTXkgRG9tLCBJbmMuMQswCQYDVQQGEwJV
UzEPMA0GA1UECAwGT3JlZ29uMREwDwYDVQQHDAhQb3J0bGFuZDAeFw0xNDA5MTAx
NTIzMDdaFw0xNTA5MTAxNTIzMDdaME0xCzAJBgNVBAYTAlVTMQ8wDQYDVQQIDAZP
cmVnb24xFTATBgNVBAoMDE15IERvbSwgSW5jLjEWMBQGA1UEAwwNd3d3Lm15ZG9t
LmNvbTBdMBgGCipwAAIAImUtAgEGCipwAAIAImUtAwEDQQAG06DP6gIptPJy+lqX
dcj3CdIldfVfydDNnZLh6zrlFrhwwEt1MVtcSBigJDL4ENqLyL42Rr+pR0wXkTcb
5Vd7o3sweTAJBgNVHRMEAjAAMCwGCWCGSAGG+EIBDQQfFh1PcGVuU1NMIEdlbmVy
YXRlZCBDZXJ0aWZpY2F0ZTAdBgNVHQ4EFgQUI69yp1F2HarIzDsnLTj9PWWPMgow
HwYDVR0jBBgwFoAU0y7xpR9rb6h05zCCNeqeiqYD0FEwDQYJKnAAAgAiZS0MBQAD
MQCAfhAuWYzCDoP64HWyUT8YTlCDBtSKkGeGJFghPcheuBpjTgChf/JHcxsdX3zv
zjg=
-----END CERTIFICATE-----
