Certificate:
    Data:
        Version: 3 (0x2)
        Serial Number: 83 (0x53)
    Signature Algorithm: bign-with-hbelt
        Issuer: CN=www.mydom_7195.com, O=My Dom, Inc., C=US, ST=Oregon, L=Portland
        Validity
            Not Before: Sep 10 15:23:35 2014 GMT
            Not After : Sep 10 15:23:35 2015 GMT
        Subject: C=US, ST=Oregon, O=My Dom, Inc., CN=www.mydom.com
        Subject Public Key Info:
            Public Key Algorithm: bign-pubkey
                Public key: FDC51F0C7620FD2F480D6C7F60C77270FC377AE215B892F15CAA0246F23B0FFD701A8044A0B12BB927DEECEBFC560E498DBE185B9EF0F68885FC0CAF44EB89B2
                Parameter set: bign-curve256v1
        X509v3 extensions:
            X509v3 Basic Constraints: 
                CA:FALSE
            Netscape Comment: 
                OpenSSL Generated Certificate
            X509v3 Subject Key Identifier: 
                15:33:59:AB:FD:E8:23:8A:F8:14:A7:AF:66:5E:0D:06:C1:51:FD:36
            X509v3 Authority Key Identifier: 
                keyid:6C:FC:F8:B3:D2:BF:96:C3:EB:59:32:22:6D:9E:D4:57:EF:56:E2:97

    Signature Algorithm: bign-with-hbelt
         c2:b4:e8:41:be:5f:ae:02:eb:d6:64:09:4f:3c:d1:c7:04:b8:
         e0:be:22:68:6a:7a:ee:bc:d8:38:7e:b0:3d:2b:58:38:40:ff:
         33:11:74:44:ca:f0:ff:08:d2:06:d3:89
-----BEGIN CERTIFICATE-----
MIICDzCCAcmgAwIBAgIBUzANBgkqcAACACJlLQwFADBlMRswGQYDVQQDDBJ3d3cu
bXlkb21fNzE5NS5jb20xFTATBgNVBAoMDE15IERvbSwgSW5jLjELMAkGA1UEBhMC
VVMxDzANBgNVBAgMBk9yZWdvbjERMA8GA1UEBwwIUG9ydGxhbmQwHhcNMTQwOTEw
MTUyMzM1WhcNMTUwOTEwMTUyMzM1WjBNMQswCQYDVQQGEwJVUzEPMA0GA1UECAwG
T3JlZ29uMRUwEwYDVQQKDAxNeSBEb20sIEluYy4xFjAUBgNVBAMMDXd3dy5teWRv
bS5jb20wXTAYBgoqcAACACJlLQIBBgoqcAACACJlLQMBA0EA/cUfDHYg/S9IDWx/
YMdycPw3euIVuJLxXKoCRvI7D/1wGoBEoLEruSfe7Ov8Vg5Jjb4YW57w9oiF/Ayv
ROuJsqN7MHkwCQYDVR0TBAIwADAsBglghkgBhvhCAQ0EHxYdT3BlblNTTCBHZW5l
cmF0ZWQgQ2VydGlmaWNhdGUwHQYDVR0OBBYEFBUzWav96COK+BSnr2ZeDQbBUf02
MB8GA1UdIwQYMBaAFGz8+LPSv5bD61kyIm2e1FfvVuKXMA0GCSpwAAIAImUtDAUA
AzEAwrToQb5frgLr1mQJTzzRxwS44L4iaGp67rzYOH6wPStYOED/MxF0RMrw/wjS
BtOJ
-----END CERTIFICATE-----
