Certificate:
    Data:
        Version: 3 (0x2)
        Serial Number: 84 (0x54)
    Signature Algorithm: bign-with-hbelt
        Issuer: CN=www.mydom_8092.com, O=My Dom, Inc., C=US, ST=Oregon, L=Portland
        Validity
            Not Before: Sep 10 15:28:21 2014 GMT
            Not After : Sep 10 15:28:21 2015 GMT
        Subject: C=US, ST=Oregon, O=My Dom, Inc., CN=www.mydom.com
        Subject Public Key Info:
            Public Key Algorithm: bign-pubkey
                Public key: 5674127490F041A863C2F5A742FBF3551B1BEBA30964810E4019E49EDC19C8674CD073191E962BE4900F3493229AB0FAB0211E470EA834ED79B85F1B352E7F18
                Parameter set: bign-curve256v1
        X509v3 extensions:
            X509v3 Basic Constraints: 
                CA:FALSE
            Netscape Comment: 
                OpenSSL Generated Certificate
            X509v3 Subject Key Identifier: 
                3A:AC:8E:56:4C:CB:C2:28:88:5A:DC:A1:0E:B2:6B:33:62:19:4F:CE
            X509v3 Authority Key Identifier: 
                keyid:F8:A4:E5:50:6A:80:53:B4:1C:A0:27:5D:5C:45:75:0C:EE:90:B9:2A

    Signature Algorithm: bign-with-hbelt
         10:3e:a6:7e:0f:77:87:c6:af:a1:18:90:87:d2:80:d0:cc:b9:
         85:5d:d6:21:bb:fa:3a:40:24:39:51:dd:3c:db:8c:48:08:99:
         a6:eb:bb:63:84:f9:9b:a7:fb:ab:c3:6c
-----BEGIN CERTIFICATE-----
MIICDzCCAcmgAwIBAgIBVDANBgkqcAACACJlLQwFADBlMRswGQYDVQQDDBJ3d3cu
bXlkb21fODA5Mi5jb20xFTATBgNVBAoMDE15IERvbSwgSW5jLjELMAkGA1UEBhMC
VVMxDzANBgNVBAgMBk9yZWdvbjERMA8GA1UEBwwIUG9ydGxhbmQwHhcNMTQwOTEw
MTUyODIxWhcNMTUwOTEwMTUyODIxWjBNMQswCQYDVQQGEwJVUzEPMA0GA1UECAwG
T3JlZ29uMRUwEwYDVQQKDAxNeSBEb20sIEluYy4xFjAUBgNVBAMMDXd3dy5teWRv
bS5jb20wXTAYBgoqcAACACJlLQIBBgoqcAACACJlLQMBA0EAVnQSdJDwQahjwvWn
QvvzVRsb66MJZIEOQBnkntwZyGdM0HMZHpYr5JAPNJMimrD6sCEeRw6oNO15uF8b
NS5/GKN7MHkwCQYDVR0TBAIwADAsBglghkgBhvhCAQ0EHxYdT3BlblNTTCBHZW5l
cmF0ZWQgQ2VydGlmaWNhdGUwHQYDVR0OBBYEFDqsjlZMy8IoiFrcoQ6yazNiGU/O
MB8GA1UdIwQYMBaAFPik5VBqgFO0HKAnXVxFdQzukLkqMA0GCSpwAAIAImUtDAUA
AzEAED6mfg93h8avoRiQh9KA0My5hV3WIbv6OkAkOVHdPNuMSAiZpuu7Y4T5m6f7
q8Ns
-----END CERTIFICATE-----
