Certificate:
    Data:
        Version: 3 (0x2)
        Serial Number: 85 (0x55)
    Signature Algorithm: bign-with-hbelt
        Issuer: CN=www.mydom_4214.com, O=My Dom, Inc., C=US, ST=Oregon, L=Portland
        Validity
            Not Before: Sep 10 15:29:04 2014 GMT
            Not After : Sep 10 15:29:04 2015 GMT
        Subject: C=US, ST=Oregon, O=My Dom, Inc., CN=www.mydom.com
        Subject Public Key Info:
            Public Key Algorithm: bign-pubkey
                Public key: 98AA16045995AD024440E270D8053E53173735D81623D37B8F9F5ECCBE15000977D90CEFCAE97C0BB49FFE295A71FDA8D92542F004E28BC502ECCF91F627846E
                Parameter set: bign-curve256v1
        X509v3 extensions:
            X509v3 Basic Constraints: 
                CA:FALSE
            Netscape Comment: 
                OpenSSL Generated Certificate
            X509v3 Subject Key Identifier: 
                88:D5:F3:A4:CC:16:BA:2F:86:8D:DC:C1:6D:79:8F:6C:5F:E7:E6:5B
            X509v3 Authority Key Identifier: 
                keyid:FD:4D:A8:C3:F9:D4:9F:21:80:9D:AD:47:AE:DB:72:18:5A:7A:93:22

    Signature Algorithm: bign-with-hbelt
         03:e6:61:20:fe:01:52:8e:5d:61:01:4f:57:d0:05:48:4f:ba:
         bc:aa:7c:f0:47:aa:5d:38:cd:fe:98:42:83:1f:26:d8:3b:2d:
         dd:e2:57:41:1a:67:cc:23:93:f8:f5:e8
-----BEGIN CERTIFICATE-----
MIICDzCCAcmgAwIBAgIBVTANBgkqcAACACJlLQwFADBlMRswGQYDVQQDDBJ3d3cu
bXlkb21fNDIxNC5jb20xFTATBgNVBAoMDE15IERvbSwgSW5jLjELMAkGA1UEBhMC
VVMxDzANBgNVBAgMBk9yZWdvbjERMA8GA1UEBwwIUG9ydGxhbmQwHhcNMTQwOTEw
MTUyOTA0WhcNMTUwOTEwMTUyOTA0WjBNMQswCQYDVQQGEwJVUzEPMA0GA1UECAwG
T3JlZ29uMRUwEwYDVQQKDAxNeSBEb20sIEluYy4xFjAUBgNVBAMMDXd3dy5teWRv
bS5jb20wXTAYBgoqcAACACJlLQIBBgoqcAACACJlLQMBA0EAmKoWBFmVrQJEQOJw
2AU+Uxc3NdgWI9N7j59ezL4VAAl32Qzvyul8C7Sf/ilacf2o2SVC8ATii8UC7M+R
9ieEbqN7MHkwCQYDVR0TBAIwADAsBglghkgBhvhCAQ0EHxYdT3BlblNTTCBHZW5l
cmF0ZWQgQ2VydGlmaWNhdGUwHQYDVR0OBBYEFIjV86TMFrovho3cwW15j2xf5+Zb
MB8GA1UdIwQYMBaAFP1NqMP51J8hgJ2tR67bchhaepMiMA0GCSpwAAIAImUtDAUA
AzEAA+ZhIP4BUo5dYQFPV9AFSE+6vKp88EeqXTjN/phCgx8m2Dst3eJXQRpnzCOT
+PXo
-----END CERTIFICATE-----
