Certificate:
    Data:
        Version: 3 (0x2)
        Serial Number: 86 (0x56)
    Signature Algorithm: bign-with-hbelt
        Issuer: CN=www.mydom_7509.com, O=My Dom, Inc., C=US, ST=Oregon, L=Portland
        Validity
            Not Before: Sep 10 15:29:19 2014 GMT
            Not After : Sep 10 15:29:19 2015 GMT
        Subject: C=US, ST=Oregon, O=My Dom, Inc., CN=www.mydom.com
        Subject Public Key Info:
            Public Key Algorithm: bign-pubkey
                Public key: 91667DA79054389E175100432D66317286A457B0FC43762F72AB712E9D3564CE246BD7E48EB0D1BCE519E7C957C3A5144C33FCA451F65442433F3B41434A415D
                Parameter set: bign-curve256v1
        X509v3 extensions:
            X509v3 Basic Constraints: 
                CA:FALSE
            Netscape Comment: 
                OpenSSL Generated Certificate
            X509v3 Subject Key Identifier: 
                B8:0B:D2:06:67:53:32:5E:C2:85:0B:CD:EE:A5:AB:E9:D6:9F:29:90
            X509v3 Authority Key Identifier: 
                keyid:0D:B7:F0:24:60:9D:94:47:F7:06:4C:F1:89:3C:78:B9:67:F8:E2:50

    Signature Algorithm: bign-with-hbelt
         8b:0d:a3:29:13:d5:1e:43:25:d8:b7:8a:44:c0:78:8f:4e:5d:
         68:41:c5:31:b2:04:44:21:48:28:7d:63:59:72:b2:8c:21:a6:
         c7:5a:fd:81:c3:58:b3:3c:3b:96:87:a4
-----BEGIN CERTIFICATE-----
MIICDzCCAcmgAwIBAgIBVjANBgkqcAACACJlLQwFADBlMRswGQYDVQQDDBJ3d3cu
bXlkb21fNzUwOS5jb20xFTATBgNVBAoMDE15IERvbSwgSW5jLjELMAkGA1UEBhMC
VVMxDzANBgNVBAgMBk9yZWdvbjERMA8GA1UEBwwIUG9ydGxhbmQwHhcNMTQwOTEw
MTUyOTE5WhcNMTUwOTEwMTUyOTE5WjBNMQswCQYDVQQGEwJVUzEPMA0GA1UECAwG
T3JlZ29uMRUwEwYDVQQKDAxNeSBEb20sIEluYy4xFjAUBgNVBAMMDXd3dy5teWRv
bS5jb20wXTAYBgoqcAACACJlLQIBBgoqcAACACJlLQMBA0EAkWZ9p5BUOJ4XUQBD
LWYxcoakV7D8Q3YvcqtxLp01ZM4ka9fkjrDRvOUZ58lXw6UUTDP8pFH2VEJDPztB
Q0pBXaN7MHkwCQYDVR0TBAIwADAsBglghkgBhvhCAQ0EHxYdT3BlblNTTCBHZW5l
cmF0ZWQgQ2VydGlmaWNhdGUwHQYDVR0OBBYEFLgL0gZnUzJewoULze6lq+nWnymQ
MB8GA1UdIwQYMBaAFA238CRgnZRH9wZM8Yk8eLln+OJQMA0GCSpwAAIAImUtDAUA
AzEAiw2jKRPVHkMl2LeKRMB4j05daEHFMbIERCFIKH1jWXKyjCGmx1r9gcNYszw7
loek
-----END CERTIFICATE-----
