Certificate:
    Data:
        Version: 3 (0x2)
        Serial Number: 88 (0x58)
    Signature Algorithm: bign-with-hbelt
        Issuer: CN=www.mydom_3940.com, O=My Dom, Inc., C=US, ST=Oregon, L=Portland
        Validity
            Not Before: Sep 10 15:29:20 2014 GMT
            Not After : Sep 10 15:29:20 2015 GMT
        Subject: C=US, ST=Oregon, O=My Dom, Inc., CN=www.mydom.com
        Subject Public Key Info:
            Public Key Algorithm: bign-pubkey
                Public key: 989380E0E4E486D537AC81838A57171D6F18E5777F6AD2965CC7CC503BB22BB3E7ECEF0CB6C38A29107B3EAFB8C3697CC623EA77233B52F2AB38E269A5AFCA96
                Parameter set: bign-curve256v1
        X509v3 extensions:
            X509v3 Basic Constraints: 
                CA:FALSE
            Netscape Comment: 
                OpenSSL Generated Certificate
            X509v3 Subject Key Identifier: 
                5A:9F:E2:96:90:55:05:5E:5E:F3:B4:80:04:CB:5E:CA:C2:7E:A2:92
            X509v3 Authority Key Identifier: 
                keyid:91:E2:28:3D:AC:02:65:A7:17:A4:2D:EA:35:9D:F4:89:5C:CF:8A:3A

    Signature Algorithm: bign-with-hbelt
         78:87:42:6c:6f:d1:8b:0a:cd:9b:51:6d:ea:f4:0e:08:31:67:
         d0:59:b2:f9:ad:6c:3f:04:8a:0b:04:01:9c:4c:40:5a:68:c0:
         30:9e:44:a7:82:ec:58:f9:be:68:b8:23
-----BEGIN CERTIFICATE-----
MIICDzCCAcmgAwIBAgIBWDANBgkqcAACACJlLQwFADBlMRswGQYDVQQDDBJ3d3cu
bXlkb21fMzk0MC5jb20xFTATBgNVBAoMDE15IERvbSwgSW5jLjELMAkGA1UEBhMC
VVMxDzANBgNVBAgMBk9yZWdvbjERMA8GA1UEBwwIUG9ydGxhbmQwHhcNMTQwOTEw
MTUyOTIwWhcNMTUwOTEwMTUyOTIwWjBNMQswCQYDVQQGEwJVUzEPMA0GA1UECAwG
T3JlZ29uMRUwEwYDVQQKDAxNeSBEb20sIEluYy4xFjAUBgNVBAMMDXd3dy5teWRv
bS5jb20wXTAYBgoqcAACACJlLQIBBgoqcAACACJlLQMBA0EAmJOA4OTkhtU3rIGD
ilcXHW8Y5Xd/atKWXMfMUDuyK7Pn7O8MtsOKKRB7Pq+4w2l8xiPqdyM7UvKrOOJp
pa/KlqN7MHkwCQYDVR0TBAIwADAsBglghkgBhvhCAQ0EHxYdT3BlblNTTCBHZW5l
cmF0ZWQgQ2VydGlmaWNhdGUwHQYDVR0OBBYEFFqf4paQVQVeXvO0gATLXsrCfqKS
MB8GA1UdIwQYMBaAFJHiKD2sAmWnF6Qt6jWd9Ilcz4o6MA0GCSpwAAIAImUtDAUA
AzEAeIdCbG/RiwrNm1Ft6vQOCDFn0Fmy+a1sPwSKCwQBnExAWmjAMJ5Ep4LsWPm+
aLgj
-----END CERTIFICATE-----
