Certificate:
    Data:
        Version: 3 (0x2)
        Serial Number: 89 (0x59)
    Signature Algorithm: bign-with-hbelt
        Issuer: CN=www.mydom_2577.com, O=My Dom, Inc., C=US, ST=Oregon, L=Portland
        Validity
            Not Before: Sep 10 15:31:09 2014 GMT
            Not After : Sep 10 15:31:09 2015 GMT
        Subject: C=US, ST=Oregon, O=My Dom, Inc., CN=www.mydom.com
        Subject Public Key Info:
            Public Key Algorithm: bign-pubkey
                Public key: A915058A327DD8FBF813342FDF18777D66AA01A892E9D4895E6C696DAF5F656EB3078DAB03F1AF60C6BE229DA9F83128AF99C02D62190BF40CC8C34D0C1133CD
                Parameter set: bign-curve256v1
        X509v3 extensions:
            X509v3 Basic Constraints: 
                CA:FALSE
            Netscape Comment: 
                OpenSSL Generated Certificate
            X509v3 Subject Key Identifier: 
                84:51:00:78:6B:64:9E:20:33:80:91:7D:47:A6:43:CF:C4:A5:31:AB
            X509v3 Authority Key Identifier: 
                keyid:91:34:77:44:4E:EC:79:08:47:9C:61:15:DA:DE:CD:21:71:70:4C:CF

    Signature Algorithm: bign-with-hbelt
         53:e0:04:3f:9e:f6:20:e6:1d:68:ea:30:8e:63:0b:e4:ca:74:
         7f:84:39:0a:da:bc:29:7b:11:64:2b:fb:a3:08:57:b3:6d:e1:
         e2:c0:c7:ae:48:95:20:2e:c4:ff:6e:1c
-----BEGIN CERTIFICATE-----
MIICDzCCAcmgAwIBAgIBWTANBgkqcAACACJlLQwFADBlMRswGQYDVQQDDBJ3d3cu
bXlkb21fMjU3Ny5jb20xFTATBgNVBAoMDE15IERvbSwgSW5jLjELMAkGA1UEBhMC
VVMxDzANBgNVBAgMBk9yZWdvbjERMA8GA1UEBwwIUG9ydGxhbmQwHhcNMTQwOTEw
MTUzMTA5WhcNMTUwOTEwMTUzMTA5WjBNMQswCQYDVQQGEwJVUzEPMA0GA1UECAwG
T3JlZ29uMRUwEwYDVQQKDAxNeSBEb20sIEluYy4xFjAUBgNVBAMMDXd3dy5teWRv
bS5jb20wXTAYBgoqcAACACJlLQIBBgoqcAACACJlLQMBA0EAqRUFijJ92Pv4EzQv
3xh3fWaqAaiS6dSJXmxpba9fZW6zB42rA/GvYMa+Ip2p+DEor5nALWIZC/QMyMNN
DBEzzaN7MHkwCQYDVR0TBAIwADAsBglghkgBhvhCAQ0EHxYdT3BlblNTTCBHZW5l
cmF0ZWQgQ2VydGlmaWNhdGUwHQYDVR0OBBYEFIRRAHhrZJ4gM4CRfUemQ8/EpTGr
MB8GA1UdIwQYMBaAFJE0d0RO7HkIR5xhFdrezSFxcEzPMA0GCSpwAAIAImUtDAUA
AzEAU+AEP572IOYdaOowjmML5Mp0f4Q5Ctq8KXsRZCv7owhXs23h4sDHrkiVIC7E
/24c
-----END CERTIFICATE-----
