Certificate:
    Data:
        Version: 3 (0x2)
        Serial Number: 90 (0x5a)
    Signature Algorithm: bign-with-hbelt
        Issuer: CN=www.mydom_7025.com, O=My Dom, Inc., C=US, ST=Oregon, L=Portland
        Validity
            Not Before: Sep 10 20:22:11 2014 GMT
            Not After : Sep 10 20:22:11 2015 GMT
        Subject: C=US, ST=Oregon, O=My Dom, Inc., CN=www.mydom.com
        Subject Public Key Info:
            Public Key Algorithm: bign-pubkey
                Public key: 8184833CDE9C026D0838AC9A631524E2FE65CA8C360E6E4511794A65D5D2FD38D95C725DB0A9F86F89EF783D4978B771A956A9B5A500A0521E850727A8401338
                Parameter set: bign-curve256v1
        X509v3 extensions:
            X509v3 Basic Constraints: 
                CA:FALSE
            Netscape Comment: 
                OpenSSL Generated Certificate
            X509v3 Subject Key Identifier: 
                9A:9D:76:8A:11:FF:8F:E9:09:C3:DD:77:48:1D:5B:66:82:89:BE:95
            X509v3 Authority Key Identifier: 
                keyid:5E:BE:EF:4C:A8:CF:BD:99:3E:8F:29:40:C5:1E:DC:EC:85:4F:B8:30

    Signature Algorithm: bign-with-hbelt
         ec:31:e6:94:c3:1e:bd:cc:16:76:23:ed:ed:06:e4:75:a6:ea:
         4d:a9:b8:f5:fa:fa:bf:6d:16:fe:39:da:56:22:38:b4:4f:6b:
         08:15:95:0f:9c:a4:bb:ef:24:7e:5e:61
-----BEGIN CERTIFICATE-----
MIICDzCCAcmgAwIBAgIBWjANBgkqcAACACJlLQwFADBlMRswGQYDVQQDDBJ3d3cu
bXlkb21fNzAyNS5jb20xFTATBgNVBAoMDE15IERvbSwgSW5jLjELMAkGA1UEBhMC
VVMxDzANBgNVBAgMBk9yZWdvbjERMA8GA1UEBwwIUG9ydGxhbmQwHhcNMTQwOTEw
MjAyMjExWhcNMTUwOTEwMjAyMjExWjBNMQswCQYDVQQGEwJVUzEPMA0GA1UECAwG
T3JlZ29uMRUwEwYDVQQKDAxNeSBEb20sIEluYy4xFjAUBgNVBAMMDXd3dy5teWRv
bS5jb20wXTAYBgoqcAACACJlLQIBBgoqcAACACJlLQMBA0EAgYSDPN6cAm0IOKya
YxUk4v5lyow2Dm5FEXlKZdXS/TjZXHJdsKn4b4nveD1JeLdxqVaptaUAoFIehQcn
qEATOKN7MHkwCQYDVR0TBAIwADAsBglghkgBhvhCAQ0EHxYdT3BlblNTTCBHZW5l
cmF0ZWQgQ2VydGlmaWNhdGUwHQYDVR0OBBYEFJqddooR/4/pCcPdd0gdW2aCib6V
MB8GA1UdIwQYMBaAFF6+70yoz72ZPo8pQMUe3OyFT7gwMA0GCSpwAAIAImUtDAUA
AzEA7DHmlMMevcwWdiPt7QbkdabqTam49fr6v20W/jnaViI4tE9rCBWVD5yku+8k
fl5h
-----END CERTIFICATE-----
