Certificate:
    Data:
        Version: 3 (0x2)
        Serial Number: 91 (0x5b)
    Signature Algorithm: bign-with-hbelt
        Issuer: CN=www.mydom_9588.com, O=My Dom, Inc., C=US, ST=Oregon, L=Portland
        Validity
            Not Before: Sep 10 20:22:46 2014 GMT
            Not After : Sep 10 20:22:46 2015 GMT
        Subject: C=US, ST=Oregon, O=My Dom, Inc., CN=www.mydom.com
        Subject Public Key Info:
            Public Key Algorithm: bign-pubkey
                Public key: B1104415A7B08EF8C8F4BC67BA3D13699358BC2A68B501AC03493D0E1CB4F589F165E6274BD26184C2108E4630A8127E755DA394630588AE9BF1C4B40E13CC32
                Parameter set: bign-curve256v1
        X509v3 extensions:
            X509v3 Basic Constraints: 
                CA:FALSE
            Netscape Comment: 
                OpenSSL Generated Certificate
            X509v3 Subject Key Identifier: 
                F5:69:BF:79:1E:91:D6:EF:86:B9:D6:BD:61:F1:4B:8F:30:F0:B7:98
            X509v3 Authority Key Identifier: 
                keyid:D5:50:2D:8B:90:1F:6B:D0:FB:8F:4F:9C:0E:8F:62:46:D3:C9:B7:A1

    Signature Algorithm: bign-with-hbelt
         f1:c5:fb:9a:25:59:f7:d4:6a:3d:80:c1:6d:62:84:f7:0c:12:
         fa:ca:e8:95:d1:f9:9f:67:ea:d9:f6:87:5f:0b:9a:8b:85:9e:
         15:cb:62:a1:e1:97:ef:4c:3d:d7:b9:a5
-----BEGIN CERTIFICATE-----
MIICDzCCAcmgAwIBAgIBWzANBgkqcAACACJlLQwFADBlMRswGQYDVQQDDBJ3d3cu
bXlkb21fOTU4OC5jb20xFTATBgNVBAoMDE15IERvbSwgSW5jLjELMAkGA1UEBhMC
VVMxDzANBgNVBAgMBk9yZWdvbjERMA8GA1UEBwwIUG9ydGxhbmQwHhcNMTQwOTEw
MjAyMjQ2WhcNMTUwOTEwMjAyMjQ2WjBNMQswCQYDVQQGEwJVUzEPMA0GA1UECAwG
T3JlZ29uMRUwEwYDVQQKDAxNeSBEb20sIEluYy4xFjAUBgNVBAMMDXd3dy5teWRv
bS5jb20wXTAYBgoqcAACACJlLQIBBgoqcAACACJlLQMBA0EAsRBEFaewjvjI9Lxn
uj0TaZNYvCpotQGsA0k9Dhy09YnxZeYnS9JhhMIQjkYwqBJ+dV2jlGMFiK6b8cS0
DhPMMqN7MHkwCQYDVR0TBAIwADAsBglghkgBhvhCAQ0EHxYdT3BlblNTTCBHZW5l
cmF0ZWQgQ2VydGlmaWNhdGUwHQYDVR0OBBYEFPVpv3kekdbvhrnWvWHxS48w8LeY
MB8GA1UdIwQYMBaAFNVQLYuQH2vQ+49PnA6PYkbTybehMA0GCSpwAAIAImUtDAUA
AzEA8cX7miVZ99RqPYDBbWKE9wwS+sroldH5n2fq2faHXwuai4WeFctioeGX70w9
17ml
-----END CERTIFICATE-----
