Certificate:
    Data:
        Version: 3 (0x2)
        Serial Number: 92 (0x5c)
    Signature Algorithm: bign-with-hbelt
        Issuer: CN=www.mydom_6302.com, O=My Dom, Inc., C=US, ST=Oregon, L=Portland
        Validity
            Not Before: Sep 10 20:23:16 2014 GMT
            Not After : Sep 10 20:23:16 2015 GMT
        Subject: C=US, ST=Oregon, O=My Dom, Inc., CN=www.mydom.com
        Subject Public Key Info:
            Public Key Algorithm: bign-pubkey
                Public key: 99EF88CD24C969A9591F92C4C3BD6145AE0FE73CF485F5261C3B99286169A11844CA9225BBAC8E13796BA260E66E75D98143C28905A0BFF1F058A5797CBF8097
                Parameter set: bign-curve256v1
        X509v3 extensions:
            X509v3 Basic Constraints: 
                CA:FALSE
            Netscape Comment: 
                OpenSSL Generated Certificate
            X509v3 Subject Key Identifier: 
                BD:78:64:F8:D9:55:DE:ED:45:4D:B6:E8:8C:AF:E9:11:A9:94:3A:D6
            X509v3 Authority Key Identifier: 
                keyid:8D:AC:80:D9:77:C2:AE:A2:8F:8A:40:51:83:59:87:70:8B:3F:BA:13

    Signature Algorithm: bign-with-hbelt
         91:37:89:61:5e:d4:9f:88:db:0f:ed:25:3e:65:74:70:4d:04:
         f3:fa:9f:89:90:83:b5:a3:ac:b3:82:b3:5b:ca:21:1b:35:64:
         b3:d2:e2:d0:6c:99:11:0f:3b:17:56:a8
-----BEGIN CERTIFICATE-----
MIICDzCCAcmgAwIBAgIBXDANBgkqcAACACJlLQwFADBlMRswGQYDVQQDDBJ3d3cu
bXlkb21fNjMwMi5jb20xFTATBgNVBAoMDE15IERvbSwgSW5jLjELMAkGA1UEBhMC
VVMxDzANBgNVBAgMBk9yZWdvbjERMA8GA1UEBwwIUG9ydGxhbmQwHhcNMTQwOTEw
MjAyMzE2WhcNMTUwOTEwMjAyMzE2WjBNMQswCQYDVQQGEwJVUzEPMA0GA1UECAwG
T3JlZ29uMRUwEwYDVQQKDAxNeSBEb20sIEluYy4xFjAUBgNVBAMMDXd3dy5teWRv
bS5jb20wXTAYBgoqcAACACJlLQIBBgoqcAACACJlLQMBA0EAme+IzSTJaalZH5LE
w71hRa4P5zz0hfUmHDuZKGFpoRhEypIlu6yOE3lromDmbnXZgUPCiQWgv/HwWKV5
fL+Al6N7MHkwCQYDVR0TBAIwADAsBglghkgBhvhCAQ0EHxYdT3BlblNTTCBHZW5l
cmF0ZWQgQ2VydGlmaWNhdGUwHQYDVR0OBBYEFL14ZPjZVd7tRU226Iyv6RGplDrW
MB8GA1UdIwQYMBaAFI2sgNl3wq6ij4pAUYNZh3CLP7oTMA0GCSpwAAIAImUtDAUA
AzEAkTeJYV7Un4jbD+0lPmV0cE0E8/qfiZCDtaOss4KzW8ohGzVks9Li0GyZEQ87
F1ao
-----END CERTIFICATE-----
