Certificate:
    Data:
        Version: 3 (0x2)
        Serial Number: 93 (0x5d)
    Signature Algorithm: bign-with-hbelt
        Issuer: CN=www.mydom_3810.com, O=My Dom, Inc., C=US, ST=Oregon, L=Portland
        Validity
            Not Before: Sep 10 20:25:26 2014 GMT
            Not After : Sep 10 20:25:26 2015 GMT
        Subject: C=US, ST=Oregon, O=My Dom, Inc., CN=www.mydom.com
        Subject Public Key Info:
            Public Key Algorithm: bign-pubkey
                Public key: C2439409B466D323AB8F91A7909EA6ABBE24ADDDE94AAD20756616278016781B4B99E41F5A8C2F6938CAAC219944FA170FE5F6ED70A1122C746503BE5B82B11D
                Parameter set: bign-curve256v1
        X509v3 extensions:
            X509v3 Basic Constraints: 
                CA:FALSE
            Netscape Comment: 
                OpenSSL Generated Certificate
            X509v3 Subject Key Identifier: 
                DF:B2:F2:05:4F:76:B5:E3:60:A9:2D:C8:70:3E:19:31:1B:0E:96:67
            X509v3 Authority Key Identifier: 
                keyid:71:54:40:8C:67:F9:7B:16:CB:3F:5A:44:52:13:C6:B8:AD:E7:F6:E0

    Signature Algorithm: bign-with-hbelt
         3b:65:95:30:77:ba:86:c9:0d:06:bd:5e:4e:ff:c7:cb:87:c8:
         62:4f:b9:57:81:9c:a1:f1:7f:95:71:8c:e8:07:7f:e6:21:75:
         a5:79:40:c1:5a:18:16:7a:48:81:d0:f5
-----BEGIN CERTIFICATE-----
MIICDzCCAcmgAwIBAgIBXTANBgkqcAACACJlLQwFADBlMRswGQYDVQQDDBJ3d3cu
bXlkb21fMzgxMC5jb20xFTATBgNVBAoMDE15IERvbSwgSW5jLjELMAkGA1UEBhMC
VVMxDzANBgNVBAgMBk9yZWdvbjERMA8GA1UEBwwIUG9ydGxhbmQwHhcNMTQwOTEw
MjAyNTI2WhcNMTUwOTEwMjAyNTI2WjBNMQswCQYDVQQGEwJVUzEPMA0GA1UECAwG
T3JlZ29uMRUwEwYDVQQKDAxNeSBEb20sIEluYy4xFjAUBgNVBAMMDXd3dy5teWRv
bS5jb20wXTAYBgoqcAACACJlLQIBBgoqcAACACJlLQMBA0EAwkOUCbRm0yOrj5Gn
kJ6mq74krd3pSq0gdWYWJ4AWeBtLmeQfWowvaTjKrCGZRPoXD+X27XChEix0ZQO+
W4KxHaN7MHkwCQYDVR0TBAIwADAsBglghkgBhvhCAQ0EHxYdT3BlblNTTCBHZW5l
cmF0ZWQgQ2VydGlmaWNhdGUwHQYDVR0OBBYEFN+y8gVPdrXjYKktyHA+GTEbDpZn
MB8GA1UdIwQYMBaAFHFUQIxn+XsWyz9aRFITxrit5/bgMA0GCSpwAAIAImUtDAUA
AzEAO2WVMHe6hskNBr1eTv/Hy4fIYk+5V4GcofF/lXGM6Ad/5iF1pXlAwVoYFnpI
gdD1
-----END CERTIFICATE-----
