Certificate:
    Data:
        Version: 3 (0x2)
        Serial Number: 94 (0x5e)
    Signature Algorithm: bign-with-hbelt
        Issuer: CN=www.mydom_4467.com, O=My Dom, Inc., C=US, ST=Oregon, L=Portland
        Validity
            Not Before: Sep 10 20:25:26 2014 GMT
            Not After : Sep 10 20:25:26 2015 GMT
        Subject: C=US, ST=Oregon, O=My Dom, Inc., CN=www.mydom.com
        Subject Public Key Info:
            Public Key Algorithm: bign-pubkey
                Public key: 1A999D81B4E48B631E193B04F5368EBDADA5DF173ACCB90BD819D1435C5CDB62AC4623928300A3992E9E0A76C54181E524FFB740C44DD55D7E0399EA2474B6B6
                Parameter set: bign-curve256v1
        X509v3 extensions:
            X509v3 Basic Constraints: 
                CA:FALSE
            Netscape Comment: 
                OpenSSL Generated Certificate
            X509v3 Subject Key Identifier: 
                DE:A1:21:8A:26:D0:4A:54:51:86:7A:9C:CA:42:B9:CE:67:85:1F:D7
            X509v3 Authority Key Identifier: 
                keyid:6E:AF:C1:DD:9F:D1:F5:5D:A3:D3:6C:9A:9A:95:07:04:7A:8A:A0:06

    Signature Algorithm: bign-with-hbelt
         84:5b:88:bc:74:74:54:87:ba:64:8f:c5:fc:56:64:ff:6e:eb:
         22:b9:3e:34:47:c3:9b:47:c8:5c:9e:9a:9d:c4:f8:3b:7e:b2:
         17:e3:b6:9d:d2:94:01:cb:48:9a:6d:95
-----BEGIN CERTIFICATE-----
MIICDzCCAcmgAwIBAgIBXjANBgkqcAACACJlLQwFADBlMRswGQYDVQQDDBJ3d3cu
bXlkb21fNDQ2Ny5jb20xFTATBgNVBAoMDE15IERvbSwgSW5jLjELMAkGA1UEBhMC
VVMxDzANBgNVBAgMBk9yZWdvbjERMA8GA1UEBwwIUG9ydGxhbmQwHhcNMTQwOTEw
MjAyNTI2WhcNMTUwOTEwMjAyNTI2WjBNMQswCQYDVQQGEwJVUzEPMA0GA1UECAwG
T3JlZ29uMRUwEwYDVQQKDAxNeSBEb20sIEluYy4xFjAUBgNVBAMMDXd3dy5teWRv
bS5jb20wXTAYBgoqcAACACJlLQIBBgoqcAACACJlLQMBA0EAGpmdgbTki2MeGTsE
9TaOva2l3xc6zLkL2BnRQ1xc22KsRiOSgwCjmS6eCnbFQYHlJP+3QMRN1V1+A5nq
JHS2tqN7MHkwCQYDVR0TBAIwADAsBglghkgBhvhCAQ0EHxYdT3BlblNTTCBHZW5l
cmF0ZWQgQ2VydGlmaWNhdGUwHQYDVR0OBBYEFN6hIYom0EpUUYZ6nMpCuc5nhR/X
MB8GA1UdIwQYMBaAFG6vwd2f0fVdo9NsmpqVBwR6iqAGMA0GCSpwAAIAImUtDAUA
AzEAhFuIvHR0VIe6ZI/F/FZk/27rIrk+NEfDm0fIXJ6ancT4O36yF+O2ndKUActI
mm2V
-----END CERTIFICATE-----
