Certificate:
    Data:
        Version: 3 (0x2)
        Serial Number: 96 (0x60)
    Signature Algorithm: bign-with-hbelt
        Issuer: CN=www.mydom_9128.com, O=My Dom, Inc., C=US, ST=Oregon, L=Portland
        Validity
            Not Before: Sep 10 20:25:39 2014 GMT
            Not After : Sep 10 20:25:39 2015 GMT
        Subject: C=US, ST=Oregon, O=My Dom, Inc., CN=www.mydom.com
        Subject Public Key Info:
            Public Key Algorithm: bign-pubkey
                Public key: 69DB77AAC0D01AEF90DCE81B8797D6A075D5825F702A62847ECAF9DB36B762664BD19E140DA6ECFDD0ADD31056610A3A5450AE5CE8AF41000E30F353F0D2FBBD
                Parameter set: bign-curve256v1
        X509v3 extensions:
            X509v3 Basic Constraints: 
                CA:FALSE
            Netscape Comment: 
                OpenSSL Generated Certificate
            X509v3 Subject Key Identifier: 
                63:70:CF:63:14:1E:EB:DE:5A:DC:79:97:3C:BF:C6:58:A9:65:71:3E
            X509v3 Authority Key Identifier: 
                keyid:6E:39:C3:C7:86:94:85:44:E5:4D:44:61:EC:A6:A1:5D:30:0A:75:6D

    Signature Algorithm: bign-with-hbelt
         85:24:b7:16:1c:3a:80:1f:bb:29:16:a5:34:b9:e7:c4:08:09:
         74:b0:8d:95:a0:04:6a:0a:3a:99:9e:df:83:5a:06:b2:73:02:
         67:38:c3:90:5d:32:60:38:3d:cd:ff:21
-----BEGIN CERTIFICATE-----
MIICDzCCAcmgAwIBAgIBYDANBgkqcAACACJlLQwFADBlMRswGQYDVQQDDBJ3d3cu
bXlkb21fOTEyOC5jb20xFTATBgNVBAoMDE15IERvbSwgSW5jLjELMAkGA1UEBhMC
VVMxDzANBgNVBAgMBk9yZWdvbjERMA8GA1UEBwwIUG9ydGxhbmQwHhcNMTQwOTEw
MjAyNTM5WhcNMTUwOTEwMjAyNTM5WjBNMQswCQYDVQQGEwJVUzEPMA0GA1UECAwG
T3JlZ29uMRUwEwYDVQQKDAxNeSBEb20sIEluYy4xFjAUBgNVBAMMDXd3dy5teWRv
bS5jb20wXTAYBgoqcAACACJlLQIBBgoqcAACACJlLQMBA0EAadt3qsDQGu+Q3Ogb
h5fWoHXVgl9wKmKEfsr52za3YmZL0Z4UDabs/dCt0xBWYQo6VFCuXOivQQAOMPNT
8NL7vaN7MHkwCQYDVR0TBAIwADAsBglghkgBhvhCAQ0EHxYdT3BlblNTTCBHZW5l
cmF0ZWQgQ2VydGlmaWNhdGUwHQYDVR0OBBYEFGNwz2MUHuveWtx5lzy/xlipZXE+
MB8GA1UdIwQYMBaAFG45w8eGlIVE5U1EYeymoV0wCnVtMA0GCSpwAAIAImUtDAUA
AzEAhSS3Fhw6gB+7KRalNLnnxAgJdLCNlaAEago6mZ7fg1oGsnMCZzjDkF0yYDg9
zf8h
-----END CERTIFICATE-----
