Certificate:
    Data:
        Version: 3 (0x2)
        Serial Number: 97 (0x61)
    Signature Algorithm: bign-with-hbelt
        Issuer: CN=www.mydom_415.com, O=My Dom, Inc., C=US, ST=Oregon, L=Portland
        Validity
            Not Before: Sep 10 20:25:39 2014 GMT
            Not After : Sep 10 20:25:39 2015 GMT
        Subject: C=US, ST=Oregon, O=My Dom, Inc., CN=www.mydom.com
        Subject Public Key Info:
            Public Key Algorithm: bign-pubkey
                Public key: D0DCACC5D38F10D552748AD169413AF36496009E9020FA22048700E901F9F5DC4E1668B4254295020095DCE168BF04F203F337A2B20B5B6678F83D90B0B24641
                Parameter set: bign-curve256v1
        X509v3 extensions:
            X509v3 Basic Constraints: 
                CA:FALSE
            Netscape Comment: 
                OpenSSL Generated Certificate
            X509v3 Subject Key Identifier: 
                7C:01:F0:C6:2D:28:E6:1D:E3:C6:94:87:EE:BF:06:6D:3A:5B:05:13
            X509v3 Authority Key Identifier: 
                keyid:1B:82:EC:21:2F:63:06:06:EA:62:53:CB:9F:69:C9:4C:DE:19:C0:48

    Signature Algorithm: bign-with-hbelt
         a0:a9:cb:1d:96:83:17:4d:3b:ee:1a:9a:a8:af:ee:db:5a:2d:
         0b:89:a3:ce:49:d4:78:1d:6e:03:b5:c7:ec:05:0f:19:24:e2:
         f3:38:df:17:33:9c:cb:4f:33:df:39:3f
-----BEGIN CERTIFICATE-----
MIICDjCCAcigAwIBAgIBYTANBgkqcAACACJlLQwFADBkMRowGAYDVQQDDBF3d3cu
bXlkb21fNDE1LmNvbTEVMBMGA1UECgwMTXkgRG9tLCBJbmMuMQswCQYDVQQGEwJV
UzEPMA0GA1UECAwGT3JlZ29uMREwDwYDVQQHDAhQb3J0bGFuZDAeFw0xNDA5MTAy
MDI1MzlaFw0xNTA5MTAyMDI1MzlaME0xCzAJBgNVBAYTAlVTMQ8wDQYDVQQIDAZP
cmVnb24xFTATBgNVBAoMDE15IERvbSwgSW5jLjEWMBQGA1UEAwwNd3d3Lm15ZG9t
LmNvbTBdMBgGCipwAAIAImUtAgEGCipwAAIAImUtAwEDQQDQ3KzF048Q1VJ0itFp
QTrzZJYAnpAg+iIEhwDpAfn13E4WaLQlQpUCAJXc4Wi/BPID8zeisgtbZnj4PZCw
skZBo3sweTAJBgNVHRMEAjAAMCwGCWCGSAGG+EIBDQQfFh1PcGVuU1NMIEdlbmVy
YXRlZCBDZXJ0aWZpY2F0ZTAdBgNVHQ4EFgQUfAHwxi0o5h3jxpSH7r8GbTpbBRMw
HwYDVR0jBBgwFoAUG4LsIS9jBgbqYlPLn2nJTN4ZwEgwDQYJKnAAAgAiZS0MBQAD
MQCgqcsdloMXTTvuGpqor+7bWi0LiaPOSdR4HW4DtcfsBQ8ZJOLzON8XM5zLTzPf
OT8=
-----END CERTIFICATE-----
