Certificate:
    Data:
        Version: 3 (0x2)
        Serial Number: 98 (0x62)
    Signature Algorithm: bign-with-hbelt
        Issuer: CN=www.mydom_415.com, O=My Dom, Inc., C=US, ST=Oregon, L=Portland
        Validity
            Not Before: Sep 10 20:25:39 2014 GMT
            Not After : Sep 10 20:25:39 2015 GMT
        Subject: C=US, ST=Oregon, O=My Dom, Inc., CN=www.mydom.com
        Subject Public Key Info:
            Public Key Algorithm: bign-pubkey
                Public key: D0DCACC5D38F10D552748AD169413AF36496009E9020FA22048700E901F9F5DC4E1668B4254295020095DCE168BF04F203F337A2B20B5B6678F83D90B0B24641
                Parameter set: bign-curve256v1
        X509v3 extensions:
            X509v3 Basic Constraints: 
                CA:FALSE
            Netscape Comment: 
                OpenSSL Generated Certificate
            X509v3 Subject Key Identifier: 
                7C:01:F0:C6:2D:28:E6:1D:E3:C6:94:87:EE:BF:06:6D:3A:5B:05:13
            X509v3 Authority Key Identifier: 
                keyid:1B:82:EC:21:2F:63:06:06:EA:62:53:CB:9F:69:C9:4C:DE:19:C0:48

    Signature Algorithm: bign-with-hbelt
         05:c9:15:51:63:71:c2:bd:aa:e6:fa:24:b5:11:d3:42:9b:43:
         a1:38:04:f9:e1:8d:5d:1e:d3:54:7c:da:2b:61:b3:94:a6:f0:
         eb:7a:2e:71:c5:f9:70:1a:ef:85:06:b2
-----BEGIN CERTIFICATE-----
MIICDjCCAcigAwIBAgIBYjANBgkqcAACACJlLQwFADBkMRowGAYDVQQDDBF3d3cu
bXlkb21fNDE1LmNvbTEVMBMGA1UECgwMTXkgRG9tLCBJbmMuMQswCQYDVQQGEwJV
UzEPMA0GA1UECAwGT3JlZ29uMREwDwYDVQQHDAhQb3J0bGFuZDAeFw0xNDA5MTAy
MDI1MzlaFw0xNTA5MTAyMDI1MzlaME0xCzAJBgNVBAYTAlVTMQ8wDQYDVQQIDAZP
cmVnb24xFTATBgNVBAoMDE15IERvbSwgSW5jLjEWMBQGA1UEAwwNd3d3Lm15ZG9t
LmNvbTBdMBgGCipwAAIAImUtAgEGCipwAAIAImUtAwEDQQDQ3KzF048Q1VJ0itFp
QTrzZJYAnpAg+iIEhwDpAfn13E4WaLQlQpUCAJXc4Wi/BPID8zeisgtbZnj4PZCw
skZBo3sweTAJBgNVHRMEAjAAMCwGCWCGSAGG+EIBDQQfFh1PcGVuU1NMIEdlbmVy
YXRlZCBDZXJ0aWZpY2F0ZTAdBgNVHQ4EFgQUfAHwxi0o5h3jxpSH7r8GbTpbBRMw
HwYDVR0jBBgwFoAUG4LsIS9jBgbqYlPLn2nJTN4ZwEgwDQYJKnAAAgAiZS0MBQAD
MQAFyRVRY3HCvarm+iS1EdNCm0OhOAT54Y1dHtNUfNorYbOUpvDrei5xxflwGu+F
BrI=
-----END CERTIFICATE-----
