Certificate:
    Data:
        Version: 3 (0x2)
        Serial Number: 99 (0x63)
    Signature Algorithm: bign-with-hbelt
        Issuer: CN=www.mydom_8551.com, O=My Dom, Inc., C=US, ST=Oregon, L=Portland
        Validity
            Not Before: Sep 10 20:26:00 2014 GMT
            Not After : Sep 10 20:26:00 2015 GMT
        Subject: C=US, ST=Oregon, O=My Dom, Inc., CN=www.mydom.com
        Subject Public Key Info:
            Public Key Algorithm: bign-pubkey
                Public key: E00C6062F4EA9284FE700345D0A60DD62BD3D28D2401D40006203F9354F16C2EE5C7BED36BB9B096885009CE6D86B1ECC5E1EE29336AE2BC4F7F09894A328125
                Parameter set: bign-curve256v1
        X509v3 extensions:
            X509v3 Basic Constraints: 
                CA:FALSE
            Netscape Comment: 
                OpenSSL Generated Certificate
            X509v3 Subject Key Identifier: 
                C0:76:8A:32:D9:D0:DC:A3:A6:15:C3:E0:DA:2D:20:59:87:FF:3C:FD
            X509v3 Authority Key Identifier: 
                keyid:31:E5:4E:31:B7:8D:13:EA:D5:5E:37:1F:99:0E:19:A6:A5:A1:7E:43

    Signature Algorithm: bign-with-hbelt
         fb:d5:95:49:7e:50:2c:67:b7:74:6e:68:ab:85:cf:c3:14:ed:
         e3:70:e5:e7:d8:97:b2:22:85:67:da:79:08:dd:f9:fd:f3:8d:
         bd:f9:1a:02:05:b0:ea:9a:4d:96:82:33
-----BEGIN CERTIFICATE-----
MIICDzCCAcmgAwIBAgIBYzANBgkqcAACACJlLQwFADBlMRswGQYDVQQDDBJ3d3cu
bXlkb21fODU1MS5jb20xFTATBgNVBAoMDE15IERvbSwgSW5jLjELMAkGA1UEBhMC
VVMxDzANBgNVBAgMBk9yZWdvbjERMA8GA1UEBwwIUG9ydGxhbmQwHhcNMTQwOTEw
MjAyNjAwWhcNMTUwOTEwMjAyNjAwWjBNMQswCQYDVQQGEwJVUzEPMA0GA1UECAwG
T3JlZ29uMRUwEwYDVQQKDAxNeSBEb20sIEluYy4xFjAUBgNVBAMMDXd3dy5teWRv
bS5jb20wXTAYBgoqcAACACJlLQIBBgoqcAACACJlLQMBA0EA4AxgYvTqkoT+cANF
0KYN1ivT0o0kAdQABiA/k1TxbC7lx77Ta7mwlohQCc5thrHsxeHuKTNq4rxPfwmJ
SjKBJaN7MHkwCQYDVR0TBAIwADAsBglghkgBhvhCAQ0EHxYdT3BlblNTTCBHZW5l
cmF0ZWQgQ2VydGlmaWNhdGUwHQYDVR0OBBYEFMB2ijLZ0NyjphXD4NotIFmH/zz9
MB8GA1UdIwQYMBaAFDHlTjG3jRPq1V43H5kOGaaloX5DMA0GCSpwAAIAImUtDAUA
AzEA+9WVSX5QLGe3dG5oq4XPwxTt43Dl59iXsiKFZ9p5CN35/fONvfkaAgWw6ppN
loIz
-----END CERTIFICATE-----
