Certificate:
    Data:
        Version: 3 (0x2)
        Serial Number: 100 (0x64)
    Signature Algorithm: bign-with-hbelt
        Issuer: CN=www.mydom_7702.com, O=My Dom, Inc., C=US, ST=Oregon, L=Portland
        Validity
            Not Before: Sep 10 20:26:01 2014 GMT
            Not After : Sep 10 20:26:01 2015 GMT
        Subject: C=US, ST=Oregon, O=My Dom, Inc., CN=www.mydom.com
        Subject Public Key Info:
            Public Key Algorithm: bign-pubkey
                Public key: B9C8ABD1AF47B18AD5C504CA94B5DFC5C4CEA3426281C12DB8C86342A376C90CFB32C463849F78DE8532F829E8E86D0E6A2589E271707AD5AFCB8DC619B2ACA8
                Parameter set: bign-curve256v1
        X509v3 extensions:
            X509v3 Basic Constraints: 
                CA:FALSE
            Netscape Comment: 
                OpenSSL Generated Certificate
            X509v3 Subject Key Identifier: 
                F4:71:63:FC:04:7C:EB:6B:F2:AD:D2:7A:00:50:41:D4:1A:96:91:9A
            X509v3 Authority Key Identifier: 
                keyid:03:26:FC:CB:64:8B:C3:2B:41:B9:50:8F:6C:A6:F2:7A:36:E2:7B:35

    Signature Algorithm: bign-with-hbelt
         d7:c0:16:e7:d5:4e:7d:3b:51:33:87:32:7f:0b:65:d9:a9:8e:
         a2:2e:50:48:02:24:f2:47:ec:c6:e7:a0:84:51:7d:2a:81:0d:
         96:a4:8e:ef:d6:90:3c:2c:77:a3:a9:25
-----BEGIN CERTIFICATE-----
MIICDzCCAcmgAwIBAgIBZDANBgkqcAACACJlLQwFADBlMRswGQYDVQQDDBJ3d3cu
bXlkb21fNzcwMi5jb20xFTATBgNVBAoMDE15IERvbSwgSW5jLjELMAkGA1UEBhMC
VVMxDzANBgNVBAgMBk9yZWdvbjERMA8GA1UEBwwIUG9ydGxhbmQwHhcNMTQwOTEw
MjAyNjAxWhcNMTUwOTEwMjAyNjAxWjBNMQswCQYDVQQGEwJVUzEPMA0GA1UECAwG
T3JlZ29uMRUwEwYDVQQKDAxNeSBEb20sIEluYy4xFjAUBgNVBAMMDXd3dy5teWRv
bS5jb20wXTAYBgoqcAACACJlLQIBBgoqcAACACJlLQMBA0EAucir0a9HsYrVxQTK
lLXfxcTOo0JigcEtuMhjQqN2yQz7MsRjhJ943oUy+Cno6G0OaiWJ4nFwetWvy43G
GbKsqKN7MHkwCQYDVR0TBAIwADAsBglghkgBhvhCAQ0EHxYdT3BlblNTTCBHZW5l
cmF0ZWQgQ2VydGlmaWNhdGUwHQYDVR0OBBYEFPRxY/wEfOtr8q3SegBQQdQalpGa
MB8GA1UdIwQYMBaAFAMm/Mtki8MrQblQj2ym8no24ns1MA0GCSpwAAIAImUtDAUA
AzEA18AW59VOfTtRM4cyfwtl2amOoi5QSAIk8kfsxueghFF9KoENlqSO79aQPCx3
o6kl
-----END CERTIFICATE-----
