Certificate:
    Data:
        Version: 3 (0x2)
        Serial Number: 101 (0x65)
    Signature Algorithm: bign-with-hbelt
        Issuer: CN=www.mydom_7702.com, O=My Dom, Inc., C=US, ST=Oregon, L=Portland
        Validity
            Not Before: Sep 10 20:26:01 2014 GMT
            Not After : Sep 10 20:26:01 2015 GMT
        Subject: C=US, ST=Oregon, O=My Dom, Inc., CN=www.mydom.com
        Subject Public Key Info:
            Public Key Algorithm: bign-pubkey
                Public key: B9C8ABD1AF47B18AD5C504CA94B5DFC5C4CEA3426281C12DB8C86342A376C90CFB32C463849F78DE8532F829E8E86D0E6A2589E271707AD5AFCB8DC619B2ACA8
                Parameter set: bign-curve256v1
        X509v3 extensions:
            X509v3 Basic Constraints: 
                CA:FALSE
            Netscape Comment: 
                OpenSSL Generated Certificate
            X509v3 Subject Key Identifier: 
                F4:71:63:FC:04:7C:EB:6B:F2:AD:D2:7A:00:50:41:D4:1A:96:91:9A
            X509v3 Authority Key Identifier: 
                keyid:03:26:FC:CB:64:8B:C3:2B:41:B9:50:8F:6C:A6:F2:7A:36:E2:7B:35

    Signature Algorithm: bign-with-hbelt
         4f:de:d6:e0:04:81:b9:49:49:2e:42:79:d4:ea:b3:3c:d5:33:
         76:c5:0f:41:9c:14:cf:bd:6d:46:6c:91:e2:89:ca:73:4c:1a:
         ce:04:01:78:77:b9:43:c2:53:83:11:c1
-----BEGIN CERTIFICATE-----
MIICDzCCAcmgAwIBAgIBZTANBgkqcAACACJlLQwFADBlMRswGQYDVQQDDBJ3d3cu
bXlkb21fNzcwMi5jb20xFTATBgNVBAoMDE15IERvbSwgSW5jLjELMAkGA1UEBhMC
VVMxDzANBgNVBAgMBk9yZWdvbjERMA8GA1UEBwwIUG9ydGxhbmQwHhcNMTQwOTEw
MjAyNjAxWhcNMTUwOTEwMjAyNjAxWjBNMQswCQYDVQQGEwJVUzEPMA0GA1UECAwG
T3JlZ29uMRUwEwYDVQQKDAxNeSBEb20sIEluYy4xFjAUBgNVBAMMDXd3dy5teWRv
bS5jb20wXTAYBgoqcAACACJlLQIBBgoqcAACACJlLQMBA0EAucir0a9HsYrVxQTK
lLXfxcTOo0JigcEtuMhjQqN2yQz7MsRjhJ943oUy+Cno6G0OaiWJ4nFwetWvy43G
GbKsqKN7MHkwCQYDVR0TBAIwADAsBglghkgBhvhCAQ0EHxYdT3BlblNTTCBHZW5l
cmF0ZWQgQ2VydGlmaWNhdGUwHQYDVR0OBBYEFPRxY/wEfOtr8q3SegBQQdQalpGa
MB8GA1UdIwQYMBaAFAMm/Mtki8MrQblQj2ym8no24ns1MA0GCSpwAAIAImUtDAUA
AzEAT97W4ASBuUlJLkJ51OqzPNUzdsUPQZwUz71tRmyR4onKc0wazgQBeHe5Q8JT
gxHB
-----END CERTIFICATE-----
