Certificate:
    Data:
        Version: 3 (0x2)
        Serial Number: 102 (0x66)
    Signature Algorithm: bign-with-hbelt
        Issuer: CN=www.mydom_6106.com, O=My Dom, Inc., C=US, ST=Oregon, L=Portland
        Validity
            Not Before: Sep 10 20:26:25 2014 GMT
            Not After : Sep 10 20:26:25 2015 GMT
        Subject: C=US, ST=Oregon, O=My Dom, Inc., CN=www.mydom.com
        Subject Public Key Info:
            Public Key Algorithm: bign-pubkey
                Public key: 98CFFEAF558ECF9F56B0511CE3B177817F01C07EF3FD526DB674975E2B90B0632CA16632770200F3D238BAF9BE69D21619B8EBA8F19B901C790D0E77D4A6213D
                Parameter set: bign-curve256v1
        X509v3 extensions:
            X509v3 Basic Constraints: 
                CA:FALSE
            Netscape Comment: 
                OpenSSL Generated Certificate
            X509v3 Subject Key Identifier: 
                F3:47:0E:B0:C2:FD:5F:0F:82:58:9B:54:02:3D:C2:EB:46:CF:B4:04
            X509v3 Authority Key Identifier: 
                keyid:B2:FF:5F:68:EF:66:1E:62:FE:50:B9:98:BD:20:47:9A:01:4D:27:BB

    Signature Algorithm: bign-with-hbelt
         4a:61:5c:a8:c3:78:f9:1c:f4:28:62:a7:a2:a2:6c:ea:11:96:
         c9:17:9a:ad:26:d2:83:ce:4c:a7:6d:2c:b6:58:5d:2f:3a:0f:
         3e:fa:52:a0:ee:69:4a:bc:89:c0:6d:a3
-----BEGIN CERTIFICATE-----
MIICDzCCAcmgAwIBAgIBZjANBgkqcAACACJlLQwFADBlMRswGQYDVQQDDBJ3d3cu
bXlkb21fNjEwNi5jb20xFTATBgNVBAoMDE15IERvbSwgSW5jLjELMAkGA1UEBhMC
VVMxDzANBgNVBAgMBk9yZWdvbjERMA8GA1UEBwwIUG9ydGxhbmQwHhcNMTQwOTEw
MjAyNjI1WhcNMTUwOTEwMjAyNjI1WjBNMQswCQYDVQQGEwJVUzEPMA0GA1UECAwG
T3JlZ29uMRUwEwYDVQQKDAxNeSBEb20sIEluYy4xFjAUBgNVBAMMDXd3dy5teWRv
bS5jb20wXTAYBgoqcAACACJlLQIBBgoqcAACACJlLQMBA0EAmM/+r1WOz59WsFEc
47F3gX8BwH7z/VJttnSXXiuQsGMsoWYydwIA89I4uvm+adIWGbjrqPGbkBx5DQ53
1KYhPaN7MHkwCQYDVR0TBAIwADAsBglghkgBhvhCAQ0EHxYdT3BlblNTTCBHZW5l
cmF0ZWQgQ2VydGlmaWNhdGUwHQYDVR0OBBYEFPNHDrDC/V8PglibVAI9wutGz7QE
MB8GA1UdIwQYMBaAFLL/X2jvZh5i/lC5mL0gR5oBTSe7MA0GCSpwAAIAImUtDAUA
AzEASmFcqMN4+Rz0KGKnoqJs6hGWyRearSbSg85Mp20stlhdLzoPPvpSoO5pSryJ
wG2j
-----END CERTIFICATE-----
