Certificate:
    Data:
        Version: 3 (0x2)
        Serial Number: 104 (0x68)
    Signature Algorithm: bign-with-hbelt
        Issuer: CN=www.mydom_6197.com, O=My Dom, Inc., C=US, ST=Oregon, L=Portland
        Validity
            Not Before: Sep 10 20:26:25 2014 GMT
            Not After : Sep 10 20:26:25 2015 GMT
        Subject: C=US, ST=Oregon, O=My Dom, Inc., CN=www.mydom.com
        Subject Public Key Info:
            Public Key Algorithm: bign-pubkey
                Public key: 0F1D87A5FED4CA0FFED4A8B337A04C2C8BA17252F74DB19A07409364C3C37B71D5F445867D9ED5DA5AD525535F5BC10C729BC598AE9A9063DDEE8A95566939F9
                Parameter set: bign-curve256v1
        X509v3 extensions:
            X509v3 Basic Constraints: 
                CA:FALSE
            Netscape Comment: 
                OpenSSL Generated Certificate
            X509v3 Subject Key Identifier: 
                F5:96:1F:EC:DE:6A:DF:A0:BF:51:F3:E8:59:3C:52:F3:61:A7:75:62
            X509v3 Authority Key Identifier: 
                keyid:5C:C2:7B:06:5F:0E:9A:D1:B0:BB:B5:9A:5F:78:02:77:19:F9:6A:3D

    Signature Algorithm: bign-with-hbelt
         15:f1:17:d6:18:9e:2c:5c:86:26:0f:d4:03:28:7b:e7:4d:e2:
         61:c9:67:aa:ed:9d:59:56:cc:e3:50:bd:8f:b2:33:2f:15:ae:
         56:4f:50:fe:7a:c6:87:62:c5:13:a3:6b
-----BEGIN CERTIFICATE-----
MIICDzCCAcmgAwIBAgIBaDANBgkqcAACACJlLQwFADBlMRswGQYDVQQDDBJ3d3cu
bXlkb21fNjE5Ny5jb20xFTATBgNVBAoMDE15IERvbSwgSW5jLjELMAkGA1UEBhMC
VVMxDzANBgNVBAgMBk9yZWdvbjERMA8GA1UEBwwIUG9ydGxhbmQwHhcNMTQwOTEw
MjAyNjI1WhcNMTUwOTEwMjAyNjI1WjBNMQswCQYDVQQGEwJVUzEPMA0GA1UECAwG
T3JlZ29uMRUwEwYDVQQKDAxNeSBEb20sIEluYy4xFjAUBgNVBAMMDXd3dy5teWRv
bS5jb20wXTAYBgoqcAACACJlLQIBBgoqcAACACJlLQMBA0EADx2Hpf7Uyg/+1Kiz
N6BMLIuhclL3TbGaB0CTZMPDe3HV9EWGfZ7V2lrVJVNfW8EMcpvFmK6akGPd7oqV
Vmk5+aN7MHkwCQYDVR0TBAIwADAsBglghkgBhvhCAQ0EHxYdT3BlblNTTCBHZW5l
cmF0ZWQgQ2VydGlmaWNhdGUwHQYDVR0OBBYEFPWWH+zeat+gv1Hz6Fk8UvNhp3Vi
MB8GA1UdIwQYMBaAFFzCewZfDprRsLu1ml94AncZ+Wo9MA0GCSpwAAIAImUtDAUA
AzEAFfEX1hieLFyGJg/UAyh7503iYclnqu2dWVbM41C9j7IzLxWuVk9Q/nrGh2LF
E6Nr
-----END CERTIFICATE-----
