Certificate:
    Data:
        Version: 3 (0x2)
        Serial Number: 105 (0x69)
    Signature Algorithm: bign-with-hbelt
        Issuer: CN=www.mydom_4834.com, O=My Dom, Inc., C=US, ST=Oregon, L=Portland
        Validity
            Not Before: Sep 10 20:26:59 2014 GMT
            Not After : Sep 10 20:26:59 2015 GMT
        Subject: C=US, ST=Oregon, O=My Dom, Inc., CN=www.mydom.com
        Subject Public Key Info:
            Public Key Algorithm: bign-pubkey
                Public key: 018670F56204878C6B06D78019B060275146DA78C7A5B0137CE6289F35C6BED1BACF5B60C314EA37CB8871B1B779D841FA3D4B8AF72909888F97AF5642639924
                Parameter set: bign-curve256v1
        X509v3 extensions:
            X509v3 Basic Constraints: 
                CA:FALSE
            Netscape Comment: 
                OpenSSL Generated Certificate
            X509v3 Subject Key Identifier: 
                E5:84:F7:09:35:85:3C:DC:2C:B9:DF:CE:D1:51:6D:9F:8E:0D:A7:66
            X509v3 Authority Key Identifier: 
                keyid:C6:C0:2B:D5:14:11:4C:3E:07:B1:98:FF:2A:85:0C:0F:B2:36:C5:7A

    Signature Algorithm: bign-with-hbelt
         c8:7b:fd:36:1c:79:b2:f8:33:24:1a:22:d1:56:94:65:29:f0:
         4c:c3:af:f5:ca:18:73:a3:be:87:92:81:26:48:ce:b6:7c:75:
         06:3f:1b:5a:3f:95:35:dd:d3:c5:c3:33
-----BEGIN CERTIFICATE-----
MIICDzCCAcmgAwIBAgIBaTANBgkqcAACACJlLQwFADBlMRswGQYDVQQDDBJ3d3cu
bXlkb21fNDgzNC5jb20xFTATBgNVBAoMDE15IERvbSwgSW5jLjELMAkGA1UEBhMC
VVMxDzANBgNVBAgMBk9yZWdvbjERMA8GA1UEBwwIUG9ydGxhbmQwHhcNMTQwOTEw
MjAyNjU5WhcNMTUwOTEwMjAyNjU5WjBNMQswCQYDVQQGEwJVUzEPMA0GA1UECAwG
T3JlZ29uMRUwEwYDVQQKDAxNeSBEb20sIEluYy4xFjAUBgNVBAMMDXd3dy5teWRv
bS5jb20wXTAYBgoqcAACACJlLQIBBgoqcAACACJlLQMBA0EAAYZw9WIEh4xrBteA
GbBgJ1FG2njHpbATfOYonzXGvtG6z1tgwxTqN8uIcbG3edhB+j1LivcpCYiPl69W
QmOZJKN7MHkwCQYDVR0TBAIwADAsBglghkgBhvhCAQ0EHxYdT3BlblNTTCBHZW5l
cmF0ZWQgQ2VydGlmaWNhdGUwHQYDVR0OBBYEFOWE9wk1hTzcLLnfztFRbZ+ODadm
MB8GA1UdIwQYMBaAFMbAK9UUEUw+B7GY/yqFDA+yNsV6MA0GCSpwAAIAImUtDAUA
AzEAyHv9Nhx5svgzJBoi0VaUZSnwTMOv9coYc6O+h5KBJkjOtnx1Bj8bWj+VNd3T
xcMz
-----END CERTIFICATE-----
