Certificate:
    Data:
        Version: 3 (0x2)
        Serial Number: 106 (0x6a)
    Signature Algorithm: bign-with-hbelt
        Issuer: CN=www.mydom_2893.com, O=My Dom, Inc., C=US, ST=Oregon, L=Portland
        Validity
            Not Before: Sep 10 20:26:59 2014 GMT
            Not After : Sep 10 20:26:59 2015 GMT
        Subject: C=US, ST=Oregon, O=My Dom, Inc., CN=www.mydom.com
        Subject Public Key Info:
            Public Key Algorithm: bign-pubkey
                Public key: 0024CA4FE9894535E57772958756578325B9A7D2B96CE4F427E15760CCF014E3B255AEA0263130336B49A406229BBF839019A883F89BC1E36F07A61A3E5A97C6
                Parameter set: bign-curve256v1
        X509v3 extensions:
            X509v3 Basic Constraints: 
                CA:FALSE
            Netscape Comment: 
                OpenSSL Generated Certificate
            X509v3 Subject Key Identifier: 
                1B:77:28:56:1E:95:ED:2E:B9:F6:8B:C5:92:9D:D4:21:2F:C5:B0:AC
            X509v3 Authority Key Identifier: 
                keyid:96:CD:CA:63:E1:B6:89:74:55:D5:A3:18:8D:2A:C7:04:1B:F0:E4:04

    Signature Algorithm: bign-with-hbelt
         7f:6e:de:02:28:18:34:e4:7b:04:a4:a7:7f:b7:78:e7:28:72:
         0f:e2:38:11:30:0d:17:6f:39:c1:ea:c3:ec:37:2b:61:03:8d:
         c3:ba:01:95:7f:fa:b0:b1:a3:23:dc:1f
-----BEGIN CERTIFICATE-----
MIICDzCCAcmgAwIBAgIBajANBgkqcAACACJlLQwFADBlMRswGQYDVQQDDBJ3d3cu
bXlkb21fMjg5My5jb20xFTATBgNVBAoMDE15IERvbSwgSW5jLjELMAkGA1UEBhMC
VVMxDzANBgNVBAgMBk9yZWdvbjERMA8GA1UEBwwIUG9ydGxhbmQwHhcNMTQwOTEw
MjAyNjU5WhcNMTUwOTEwMjAyNjU5WjBNMQswCQYDVQQGEwJVUzEPMA0GA1UECAwG
T3JlZ29uMRUwEwYDVQQKDAxNeSBEb20sIEluYy4xFjAUBgNVBAMMDXd3dy5teWRv
bS5jb20wXTAYBgoqcAACACJlLQIBBgoqcAACACJlLQMBA0EAACTKT+mJRTXld3KV
h1ZXgyW5p9K5bOT0J+FXYMzwFOOyVa6gJjEwM2tJpAYim7+DkBmog/ibweNvB6Ya
PlqXxqN7MHkwCQYDVR0TBAIwADAsBglghkgBhvhCAQ0EHxYdT3BlblNTTCBHZW5l
cmF0ZWQgQ2VydGlmaWNhdGUwHQYDVR0OBBYEFBt3KFYele0uufaLxZKd1CEvxbCs
MB8GA1UdIwQYMBaAFJbNymPhtol0VdWjGI0qxwQb8OQEMA0GCSpwAAIAImUtDAUA
AzEAf27eAigYNOR7BKSnf7d45yhyD+I4ETANF285werD7DcrYQONw7oBlX/6sLGj
I9wf
-----END CERTIFICATE-----
