Certificate:
    Data:
        Version: 3 (0x2)
        Serial Number: 107 (0x6b)
    Signature Algorithm: bign-with-hbelt
        Issuer: CN=www.mydom_2893.com, O=My Dom, Inc., C=US, ST=Oregon, L=Portland
        Validity
            Not Before: Sep 10 20:26:59 2014 GMT
            Not After : Sep 10 20:26:59 2015 GMT
        Subject: C=US, ST=Oregon, O=My Dom, Inc., CN=www.mydom.com
        Subject Public Key Info:
            Public Key Algorithm: bign-pubkey
                Public key: 0024CA4FE9894535E57772958756578325B9A7D2B96CE4F427E15760CCF014E3B255AEA0263130336B49A406229BBF839019A883F89BC1E36F07A61A3E5A97C6
                Parameter set: bign-curve256v1
        X509v3 extensions:
            X509v3 Basic Constraints: 
                CA:FALSE
            Netscape Comment: 
                OpenSSL Generated Certificate
            X509v3 Subject Key Identifier: 
                1B:77:28:56:1E:95:ED:2E:B9:F6:8B:C5:92:9D:D4:21:2F:C5:B0:AC
            X509v3 Authority Key Identifier: 
                keyid:96:CD:CA:63:E1:B6:89:74:55:D5:A3:18:8D:2A:C7:04:1B:F0:E4:04

    Signature Algorithm: bign-with-hbelt
         b1:e5:1c:d3:ea:72:03:27:17:37:2c:0c:e0:1e:c2:77:05:23:
         0f:cb:96:ad:af:59:e7:90:a0:b5:bf:c4:68:15:07:81:e6:95:
         14:d9:ad:3b:71:0d:9f:d0:6d:8d:38:1a
-----BEGIN CERTIFICATE-----
MIICDzCCAcmgAwIBAgIBazANBgkqcAACACJlLQwFADBlMRswGQYDVQQDDBJ3d3cu
bXlkb21fMjg5My5jb20xFTATBgNVBAoMDE15IERvbSwgSW5jLjELMAkGA1UEBhMC
VVMxDzANBgNVBAgMBk9yZWdvbjERMA8GA1UEBwwIUG9ydGxhbmQwHhcNMTQwOTEw
MjAyNjU5WhcNMTUwOTEwMjAyNjU5WjBNMQswCQYDVQQGEwJVUzEPMA0GA1UECAwG
T3JlZ29uMRUwEwYDVQQKDAxNeSBEb20sIEluYy4xFjAUBgNVBAMMDXd3dy5teWRv
bS5jb20wXTAYBgoqcAACACJlLQIBBgoqcAACACJlLQMBA0EAACTKT+mJRTXld3KV
h1ZXgyW5p9K5bOT0J+FXYMzwFOOyVa6gJjEwM2tJpAYim7+DkBmog/ibweNvB6Ya
PlqXxqN7MHkwCQYDVR0TBAIwADAsBglghkgBhvhCAQ0EHxYdT3BlblNTTCBHZW5l
cmF0ZWQgQ2VydGlmaWNhdGUwHQYDVR0OBBYEFBt3KFYele0uufaLxZKd1CEvxbCs
MB8GA1UdIwQYMBaAFJbNymPhtol0VdWjGI0qxwQb8OQEMA0GCSpwAAIAImUtDAUA
AzEAseUc0+pyAycXNywM4B7CdwUjD8uWra9Z55Cgtb/EaBUHgeaVFNmtO3ENn9Bt
jTga
-----END CERTIFICATE-----
