Certificate:
    Data:
        Version: 3 (0x2)
        Serial Number: 108 (0x6c)
    Signature Algorithm: bign-with-hbelt
        Issuer: CN=www.mydom_9175.com, O=My Dom, Inc., C=US, ST=Oregon, L=Portland
        Validity
            Not Before: Sep 10 20:27:10 2014 GMT
            Not After : Sep 10 20:27:10 2015 GMT
        Subject: C=US, ST=Oregon, O=My Dom, Inc., CN=www.mydom.com
        Subject Public Key Info:
            Public Key Algorithm: bign-pubkey
                Public key: 037AF9E2DFD00D43B9D90F052DFFE884DBDB25380E37AA07B828B4F4DDAF57781558A57C0467CB98F47AD44D8F0622535D310E129B4323D1156DD47BCA841DB5
                Parameter set: bign-curve256v1
        X509v3 extensions:
            X509v3 Basic Constraints: 
                CA:FALSE
            Netscape Comment: 
                OpenSSL Generated Certificate
            X509v3 Subject Key Identifier: 
                12:1F:A0:B1:57:47:57:CC:F2:5C:C6:2C:7F:38:71:01:87:44:EC:4A
            X509v3 Authority Key Identifier: 
                keyid:68:11:37:D9:0B:CA:0A:CE:EE:24:83:D8:69:45:38:4C:1A:E4:45:91

    Signature Algorithm: bign-with-hbelt
         00:e3:f7:71:16:de:0a:94:42:9f:fc:52:6f:2d:5d:4c:57:23:
         4e:7d:7b:24:7d:9f:9c:47:6d:41:a8:0a:01:db:63:4c:fe:1c:
         b2:1e:62:83:f2:52:98:0f:54:30:e9:b8
-----BEGIN CERTIFICATE-----
MIICDzCCAcmgAwIBAgIBbDANBgkqcAACACJlLQwFADBlMRswGQYDVQQDDBJ3d3cu
bXlkb21fOTE3NS5jb20xFTATBgNVBAoMDE15IERvbSwgSW5jLjELMAkGA1UEBhMC
VVMxDzANBgNVBAgMBk9yZWdvbjERMA8GA1UEBwwIUG9ydGxhbmQwHhcNMTQwOTEw
MjAyNzEwWhcNMTUwOTEwMjAyNzEwWjBNMQswCQYDVQQGEwJVUzEPMA0GA1UECAwG
T3JlZ29uMRUwEwYDVQQKDAxNeSBEb20sIEluYy4xFjAUBgNVBAMMDXd3dy5teWRv
bS5jb20wXTAYBgoqcAACACJlLQIBBgoqcAACACJlLQMBA0EAA3r54t/QDUO52Q8F
Lf/ohNvbJTgON6oHuCi09N2vV3gVWKV8BGfLmPR61E2PBiJTXTEOEptDI9EVbdR7
yoQdtaN7MHkwCQYDVR0TBAIwADAsBglghkgBhvhCAQ0EHxYdT3BlblNTTCBHZW5l
cmF0ZWQgQ2VydGlmaWNhdGUwHQYDVR0OBBYEFBIfoLFXR1fM8lzGLH84cQGHROxK
MB8GA1UdIwQYMBaAFGgRN9kLygrO7iSD2GlFOEwa5EWRMA0GCSpwAAIAImUtDAUA
AzEAAOP3cRbeCpRCn/xSby1dTFcjTn17JH2fnEdtQagKAdtjTP4csh5ig/JSmA9U
MOm4
-----END CERTIFICATE-----
