Certificate:
    Data:
        Version: 3 (0x2)
        Serial Number: 109 (0x6d)
    Signature Algorithm: bign-with-hbelt
        Issuer: CN=www.mydom_7462.com, O=My Dom, Inc., C=US, ST=Oregon, L=Portland
        Validity
            Not Before: Sep 10 20:27:10 2014 GMT
            Not After : Sep 10 20:27:10 2015 GMT
        Subject: C=US, ST=Oregon, O=My Dom, Inc., CN=www.mydom.com
        Subject Public Key Info:
            Public Key Algorithm: bign-pubkey
                Public key: C09AD90CE89B2BBE002540EAB76B6DFE9DB2DA702014B7A30DFED83FCD45730DD1D8C1B46AD3017DA1C7B51009607387A24ED1106258F74C1B1AA6ADD3D8B200
                Parameter set: bign-curve256v1
        X509v3 extensions:
            X509v3 Basic Constraints: 
                CA:FALSE
            Netscape Comment: 
                OpenSSL Generated Certificate
            X509v3 Subject Key Identifier: 
                B6:A2:A8:DA:E4:E5:74:D9:53:EB:0A:72:44:37:0E:91:64:AF:E7:EF
            X509v3 Authority Key Identifier: 
                keyid:46:77:57:1B:89:A6:49:3D:D8:6D:97:55:C6:3C:E7:BC:ED:EA:E5:29

    Signature Algorithm: bign-with-hbelt
         b9:89:12:f7:40:1c:98:fe:c9:a4:cc:a5:f5:2b:5b:75:c0:46:
         f5:c9:b5:86:7b:62:0a:4d:42:5c:ab:a7:f1:a3:59:ba:f2:72:
         35:77:c9:e5:5c:4d:c1:67:db:53:a3:28
-----BEGIN CERTIFICATE-----
MIICDzCCAcmgAwIBAgIBbTANBgkqcAACACJlLQwFADBlMRswGQYDVQQDDBJ3d3cu
bXlkb21fNzQ2Mi5jb20xFTATBgNVBAoMDE15IERvbSwgSW5jLjELMAkGA1UEBhMC
VVMxDzANBgNVBAgMBk9yZWdvbjERMA8GA1UEBwwIUG9ydGxhbmQwHhcNMTQwOTEw
MjAyNzEwWhcNMTUwOTEwMjAyNzEwWjBNMQswCQYDVQQGEwJVUzEPMA0GA1UECAwG
T3JlZ29uMRUwEwYDVQQKDAxNeSBEb20sIEluYy4xFjAUBgNVBAMMDXd3dy5teWRv
bS5jb20wXTAYBgoqcAACACJlLQIBBgoqcAACACJlLQMBA0EAwJrZDOibK74AJUDq
t2tt/p2y2nAgFLejDf7YP81Fcw3R2MG0atMBfaHHtRAJYHOHok7REGJY90wbGqat
09iyAKN7MHkwCQYDVR0TBAIwADAsBglghkgBhvhCAQ0EHxYdT3BlblNTTCBHZW5l
cmF0ZWQgQ2VydGlmaWNhdGUwHQYDVR0OBBYEFLaiqNrk5XTZU+sKckQ3DpFkr+fv
MB8GA1UdIwQYMBaAFEZ3VxuJpkk92G2XVcY857zt6uUpMA0GCSpwAAIAImUtDAUA
AzEAuYkS90AcmP7JpMyl9StbdcBG9cm1hntiCk1CXKun8aNZuvJyNXfJ5VxNwWfb
U6Mo
-----END CERTIFICATE-----
