Certificate:
    Data:
        Version: 3 (0x2)
        Serial Number: 111 (0x6f)
    Signature Algorithm: bign-with-hbelt
        Issuer: CN=www.mydom_2323.com, O=My Dom, Inc., C=US, ST=Oregon, L=Portland
        Validity
            Not Before: Sep 10 20:27:25 2014 GMT
            Not After : Sep 10 20:27:25 2015 GMT
        Subject: C=US, ST=Oregon, O=My Dom, Inc., CN=www.mydom.com
        Subject Public Key Info:
            Public Key Algorithm: bign-pubkey
                Public key: 23AE4997389D7168FFEB62D33C17C0ACD4A73FDBF0DB85836C932D753E366B7CA38CC2BAFE721F7019D45D236067CF22EB8B56F4B2F10801A2992BE828352972
                Parameter set: bign-curve256v1
        X509v3 extensions:
            X509v3 Basic Constraints: 
                CA:FALSE
            Netscape Comment: 
                OpenSSL Generated Certificate
            X509v3 Subject Key Identifier: 
                6C:9B:83:58:43:37:DE:70:6F:88:47:66:F9:A6:CA:DC:EE:13:43:95
            X509v3 Authority Key Identifier: 
                keyid:41:C3:30:1D:0D:72:F9:03:DD:E2:65:A0:05:37:92:98:B7:FE:F6:D8

    Signature Algorithm: bign-with-hbelt
         9a:73:52:1d:5c:83:1a:0c:a3:64:49:6c:2f:cf:f4:15:f9:98:
         b6:97:f9:af:8d:0e:db:26:54:5b:49:b0:73:c6:c5:07:e5:d8:
         5b:81:72:01:8a:34:12:60:fc:cf:92:a4
-----BEGIN CERTIFICATE-----
MIICDzCCAcmgAwIBAgIBbzANBgkqcAACACJlLQwFADBlMRswGQYDVQQDDBJ3d3cu
bXlkb21fMjMyMy5jb20xFTATBgNVBAoMDE15IERvbSwgSW5jLjELMAkGA1UEBhMC
VVMxDzANBgNVBAgMBk9yZWdvbjERMA8GA1UEBwwIUG9ydGxhbmQwHhcNMTQwOTEw
MjAyNzI1WhcNMTUwOTEwMjAyNzI1WjBNMQswCQYDVQQGEwJVUzEPMA0GA1UECAwG
T3JlZ29uMRUwEwYDVQQKDAxNeSBEb20sIEluYy4xFjAUBgNVBAMMDXd3dy5teWRv
bS5jb20wXTAYBgoqcAACACJlLQIBBgoqcAACACJlLQMBA0EAI65JlzidcWj/62LT
PBfArNSnP9vw24WDbJMtdT42a3yjjMK6/nIfcBnUXSNgZ88i64tW9LLxCAGimSvo
KDUpcqN7MHkwCQYDVR0TBAIwADAsBglghkgBhvhCAQ0EHxYdT3BlblNTTCBHZW5l
cmF0ZWQgQ2VydGlmaWNhdGUwHQYDVR0OBBYEFGybg1hDN95wb4hHZvmmytzuE0OV
MB8GA1UdIwQYMBaAFEHDMB0NcvkD3eJloAU3kpi3/vbYMA0GCSpwAAIAImUtDAUA
AzEAmnNSHVyDGgyjZElsL8/0FfmYtpf5r40O2yZUW0mwc8bFB+XYW4FyAYo0EmD8
z5Kk
-----END CERTIFICATE-----
