Certificate:
    Data:
        Version: 3 (0x2)
        Serial Number: 112 (0x70)
    Signature Algorithm: bign-with-hbelt
        Issuer: CN=www.mydom_8456.com, O=My Dom, Inc., C=US, ST=Oregon, L=Portland
        Validity
            Not Before: Sep 10 20:27:25 2014 GMT
            Not After : Sep 10 20:27:25 2015 GMT
        Subject: C=US, ST=Oregon, O=My Dom, Inc., CN=www.mydom.com
        Subject Public Key Info:
            Public Key Algorithm: bign-pubkey
                Public key: 7C960B95EB28249526CF1B10C4EB333000A5C3B6AA4B68C3139237A5959F463E6E42440C74D95293B830818009A4DB95A7C545C1F5F30D9C88064C90A5788498
                Parameter set: bign-curve256v1
        X509v3 extensions:
            X509v3 Basic Constraints: 
                CA:FALSE
            Netscape Comment: 
                OpenSSL Generated Certificate
            X509v3 Subject Key Identifier: 
                D5:49:F7:88:60:3D:DB:D3:82:1B:A7:73:77:F0:CC:EF:18:9A:01:9C
            X509v3 Authority Key Identifier: 
                keyid:83:78:12:AB:24:5E:20:75:29:67:DE:E9:26:03:8E:9F:6A:4D:C7:4B

    Signature Algorithm: bign-with-hbelt
         ec:f2:f8:33:48:63:8d:f8:23:94:ae:b9:34:0f:a2:f5:4f:08:
         55:f0:09:a3:18:fe:dd:04:34:5c:06:21:eb:81:66:b3:e1:67:
         49:0b:a5:75:a1:79:75:b3:9e:ba:bf:cb
-----BEGIN CERTIFICATE-----
MIICDzCCAcmgAwIBAgIBcDANBgkqcAACACJlLQwFADBlMRswGQYDVQQDDBJ3d3cu
bXlkb21fODQ1Ni5jb20xFTATBgNVBAoMDE15IERvbSwgSW5jLjELMAkGA1UEBhMC
VVMxDzANBgNVBAgMBk9yZWdvbjERMA8GA1UEBwwIUG9ydGxhbmQwHhcNMTQwOTEw
MjAyNzI1WhcNMTUwOTEwMjAyNzI1WjBNMQswCQYDVQQGEwJVUzEPMA0GA1UECAwG
T3JlZ29uMRUwEwYDVQQKDAxNeSBEb20sIEluYy4xFjAUBgNVBAMMDXd3dy5teWRv
bS5jb20wXTAYBgoqcAACACJlLQIBBgoqcAACACJlLQMBA0EAfJYLlesoJJUmzxsQ
xOszMAClw7aqS2jDE5I3pZWfRj5uQkQMdNlSk7gwgYAJpNuVp8VFwfXzDZyIBkyQ
pXiEmKN7MHkwCQYDVR0TBAIwADAsBglghkgBhvhCAQ0EHxYdT3BlblNTTCBHZW5l
cmF0ZWQgQ2VydGlmaWNhdGUwHQYDVR0OBBYEFNVJ94hgPdvTghunc3fwzO8YmgGc
MB8GA1UdIwQYMBaAFIN4EqskXiB1KWfe6SYDjp9qTcdLMA0GCSpwAAIAImUtDAUA
AzEA7PL4M0hjjfgjlK65NA+i9U8IVfAJoxj+3QQ0XAYh64Fms+FnSQuldaF5dbOe
ur/L
-----END CERTIFICATE-----
