Certificate:
    Data:
        Version: 3 (0x2)
        Serial Number: 113 (0x71)
    Signature Algorithm: bign-with-hbelt
        Issuer: CN=www.mydom_8456.com, O=My Dom, Inc., C=US, ST=Oregon, L=Portland
        Validity
            Not Before: Sep 10 20:27:25 2014 GMT
            Not After : Sep 10 20:27:25 2015 GMT
        Subject: C=US, ST=Oregon, O=My Dom, Inc., CN=www.mydom.com
        Subject Public Key Info:
            Public Key Algorithm: bign-pubkey
                Public key: 7C960B95EB28249526CF1B10C4EB333000A5C3B6AA4B68C3139237A5959F463E6E42440C74D95293B830818009A4DB95A7C545C1F5F30D9C88064C90A5788498
                Parameter set: bign-curve256v1
        X509v3 extensions:
            X509v3 Basic Constraints: 
                CA:FALSE
            Netscape Comment: 
                OpenSSL Generated Certificate
            X509v3 Subject Key Identifier: 
                D5:49:F7:88:60:3D:DB:D3:82:1B:A7:73:77:F0:CC:EF:18:9A:01:9C
            X509v3 Authority Key Identifier: 
                keyid:83:78:12:AB:24:5E:20:75:29:67:DE:E9:26:03:8E:9F:6A:4D:C7:4B

    Signature Algorithm: bign-with-hbelt
         74:5a:d2:6a:ce:24:48:e0:c2:c4:a9:d5:58:0e:1c:e0:c6:e9:
         94:43:ab:ed:e7:74:58:08:e5:92:8d:bb:e9:52:67:92:30:c6:
         07:19:ec:a4:86:9f:bc:8f:09:b1:d1:6e
-----BEGIN CERTIFICATE-----
MIICDzCCAcmgAwIBAgIBcTANBgkqcAACACJlLQwFADBlMRswGQYDVQQDDBJ3d3cu
bXlkb21fODQ1Ni5jb20xFTATBgNVBAoMDE15IERvbSwgSW5jLjELMAkGA1UEBhMC
VVMxDzANBgNVBAgMBk9yZWdvbjERMA8GA1UEBwwIUG9ydGxhbmQwHhcNMTQwOTEw
MjAyNzI1WhcNMTUwOTEwMjAyNzI1WjBNMQswCQYDVQQGEwJVUzEPMA0GA1UECAwG
T3JlZ29uMRUwEwYDVQQKDAxNeSBEb20sIEluYy4xFjAUBgNVBAMMDXd3dy5teWRv
bS5jb20wXTAYBgoqcAACACJlLQIBBgoqcAACACJlLQMBA0EAfJYLlesoJJUmzxsQ
xOszMAClw7aqS2jDE5I3pZWfRj5uQkQMdNlSk7gwgYAJpNuVp8VFwfXzDZyIBkyQ
pXiEmKN7MHkwCQYDVR0TBAIwADAsBglghkgBhvhCAQ0EHxYdT3BlblNTTCBHZW5l
cmF0ZWQgQ2VydGlmaWNhdGUwHQYDVR0OBBYEFNVJ94hgPdvTghunc3fwzO8YmgGc
MB8GA1UdIwQYMBaAFIN4EqskXiB1KWfe6SYDjp9qTcdLMA0GCSpwAAIAImUtDAUA
AzEAdFrSas4kSODCxKnVWA4c4MbplEOr7ed0WAjlko276VJnkjDGBxnspIafvI8J
sdFu
-----END CERTIFICATE-----
