Certificate:
    Data:
        Version: 3 (0x2)
        Serial Number: 114 (0x72)
    Signature Algorithm: bign-with-hbelt
        Issuer: CN=www.mydom_4461.com, O=My Dom, Inc., C=US, ST=Oregon, L=Portland
        Validity
            Not Before: Sep 10 20:27:34 2014 GMT
            Not After : Sep 10 20:27:34 2015 GMT
        Subject: C=US, ST=Oregon, O=My Dom, Inc., CN=www.mydom.com
        Subject Public Key Info:
            Public Key Algorithm: bign-pubkey
                Public key: 75091587686076695C0F1C6164CD1F823FD55258F84A827112D1C1EADB51E5A2AF207298FECF2E1C6F0E7350018DBCD795CB72D7D4D60E8A9671C5A4CFAEAE27
                Parameter set: bign-curve256v1
        X509v3 extensions:
            X509v3 Basic Constraints: 
                CA:FALSE
            Netscape Comment: 
                OpenSSL Generated Certificate
            X509v3 Subject Key Identifier: 
                58:76:CC:8B:01:B8:AF:E4:56:A8:4F:D0:79:B6:32:B6:75:94:67:22
            X509v3 Authority Key Identifier: 
                keyid:BB:ED:9F:D3:94:50:B1:AA:85:D4:E7:F9:20:7D:11:20:61:CE:84:7D

    Signature Algorithm: bign-with-hbelt
         a2:76:c1:f5:d0:bb:5c:e6:e7:ae:27:8d:9c:fd:ac:79:ab:f6:
         4c:33:2b:16:f2:5b:20:a1:f6:aa:b9:56:3a:9b:b3:bb:06:a2:
         5d:28:67:67:06:4e:a6:6a:3a:a7:43:92
-----BEGIN CERTIFICATE-----
MIICDzCCAcmgAwIBAgIBcjANBgkqcAACACJlLQwFADBlMRswGQYDVQQDDBJ3d3cu
bXlkb21fNDQ2MS5jb20xFTATBgNVBAoMDE15IERvbSwgSW5jLjELMAkGA1UEBhMC
VVMxDzANBgNVBAgMBk9yZWdvbjERMA8GA1UEBwwIUG9ydGxhbmQwHhcNMTQwOTEw
MjAyNzM0WhcNMTUwOTEwMjAyNzM0WjBNMQswCQYDVQQGEwJVUzEPMA0GA1UECAwG
T3JlZ29uMRUwEwYDVQQKDAxNeSBEb20sIEluYy4xFjAUBgNVBAMMDXd3dy5teWRv
bS5jb20wXTAYBgoqcAACACJlLQIBBgoqcAACACJlLQMBA0EAdQkVh2hgdmlcDxxh
ZM0fgj/VUlj4SoJxEtHB6ttR5aKvIHKY/s8uHG8Oc1ABjbzXlcty19TWDoqWccWk
z66uJ6N7MHkwCQYDVR0TBAIwADAsBglghkgBhvhCAQ0EHxYdT3BlblNTTCBHZW5l
cmF0ZWQgQ2VydGlmaWNhdGUwHQYDVR0OBBYEFFh2zIsBuK/kVqhP0Hm2MrZ1lGci
MB8GA1UdIwQYMBaAFLvtn9OUULGqhdTn+SB9ESBhzoR9MA0GCSpwAAIAImUtDAUA
AzEAonbB9dC7XObnrieNnP2seav2TDMrFvJbIKH2qrlWOpuzuwaiXShnZwZOpmo6
p0OS
-----END CERTIFICATE-----
