Certificate:
    Data:
        Version: 3 (0x2)
        Serial Number: 115 (0x73)
    Signature Algorithm: bign-with-hbelt
        Issuer: CN=www.mydom_6584.com, O=My Dom, Inc., C=US, ST=Oregon, L=Portland
        Validity
            Not Before: Sep 10 20:27:34 2014 GMT
            Not After : Sep 10 20:27:34 2015 GMT
        Subject: C=US, ST=Oregon, O=My Dom, Inc., CN=www.mydom.com
        Subject Public Key Info:
            Public Key Algorithm: bign-pubkey
                Public key: 6660A1FBCFB732A50E325DA8329843B9C6182DD24C912203457E6E7D94D69ECE292DB88E9C48394A646377018632DEC6C7E465E160DBB967FB92A34334593699
                Parameter set: bign-curve256v1
        X509v3 extensions:
            X509v3 Basic Constraints: 
                CA:FALSE
            Netscape Comment: 
                OpenSSL Generated Certificate
            X509v3 Subject Key Identifier: 
                D6:A7:98:15:53:00:03:24:82:54:3D:8A:68:86:A5:2D:D9:11:93:FB
            X509v3 Authority Key Identifier: 
                keyid:CE:8F:41:67:A9:27:DE:93:02:61:C4:2D:99:65:C0:D8:FF:5E:7B:A7

    Signature Algorithm: bign-with-hbelt
         f7:a3:33:8f:23:0c:df:dd:63:0a:1a:f9:27:5b:fa:3e:01:bf:
         49:4a:cb:d6:a7:86:80:d5:44:66:d6:da:ac:45:6a:3c:de:ee:
         4e:14:21:97:d3:b4:f0:13:c3:5f:09:d6
-----BEGIN CERTIFICATE-----
MIICDzCCAcmgAwIBAgIBczANBgkqcAACACJlLQwFADBlMRswGQYDVQQDDBJ3d3cu
bXlkb21fNjU4NC5jb20xFTATBgNVBAoMDE15IERvbSwgSW5jLjELMAkGA1UEBhMC
VVMxDzANBgNVBAgMBk9yZWdvbjERMA8GA1UEBwwIUG9ydGxhbmQwHhcNMTQwOTEw
MjAyNzM0WhcNMTUwOTEwMjAyNzM0WjBNMQswCQYDVQQGEwJVUzEPMA0GA1UECAwG
T3JlZ29uMRUwEwYDVQQKDAxNeSBEb20sIEluYy4xFjAUBgNVBAMMDXd3dy5teWRv
bS5jb20wXTAYBgoqcAACACJlLQIBBgoqcAACACJlLQMBA0EAZmCh+8+3MqUOMl2o
MphDucYYLdJMkSIDRX5ufZTWns4pLbiOnEg5SmRjdwGGMt7Gx+Rl4WDbuWf7kqND
NFk2maN7MHkwCQYDVR0TBAIwADAsBglghkgBhvhCAQ0EHxYdT3BlblNTTCBHZW5l
cmF0ZWQgQ2VydGlmaWNhdGUwHQYDVR0OBBYEFNanmBVTAAMkglQ9imiGpS3ZEZP7
MB8GA1UdIwQYMBaAFM6PQWepJ96TAmHELZllwNj/XnunMA0GCSpwAAIAImUtDAUA
AzEA96MzjyMM391jChr5J1v6PgG/SUrL1qeGgNVEZtbarEVqPN7uThQhl9O08BPD
XwnW
-----END CERTIFICATE-----
