Certificate:
    Data:
        Version: 3 (0x2)
        Serial Number: 116 (0x74)
    Signature Algorithm: bign-with-hbelt
        Issuer: CN=www.mydom_6584.com, O=My Dom, Inc., C=US, ST=Oregon, L=Portland
        Validity
            Not Before: Sep 10 20:27:34 2014 GMT
            Not After : Sep 10 20:27:34 2015 GMT
        Subject: C=US, ST=Oregon, O=My Dom, Inc., CN=www.mydom.com
        Subject Public Key Info:
            Public Key Algorithm: bign-pubkey
                Public key: 6660A1FBCFB732A50E325DA8329843B9C6182DD24C912203457E6E7D94D69ECE292DB88E9C48394A646377018632DEC6C7E465E160DBB967FB92A34334593699
                Parameter set: bign-curve256v1
        X509v3 extensions:
            X509v3 Basic Constraints: 
                CA:FALSE
            Netscape Comment: 
                OpenSSL Generated Certificate
            X509v3 Subject Key Identifier: 
                D6:A7:98:15:53:00:03:24:82:54:3D:8A:68:86:A5:2D:D9:11:93:FB
            X509v3 Authority Key Identifier: 
                keyid:CE:8F:41:67:A9:27:DE:93:02:61:C4:2D:99:65:C0:D8:FF:5E:7B:A7

    Signature Algorithm: bign-with-hbelt
         c4:f0:4e:13:d4:05:e7:1b:89:ac:d9:c3:65:d4:35:d5:b8:79:
         76:29:78:08:66:92:4e:01:2a:3f:de:5f:ae:fa:d3:c4:7e:ae:
         b8:16:38:20:82:47:88:51:b2:a2:17:dc
-----BEGIN CERTIFICATE-----
MIICDzCCAcmgAwIBAgIBdDANBgkqcAACACJlLQwFADBlMRswGQYDVQQDDBJ3d3cu
bXlkb21fNjU4NC5jb20xFTATBgNVBAoMDE15IERvbSwgSW5jLjELMAkGA1UEBhMC
VVMxDzANBgNVBAgMBk9yZWdvbjERMA8GA1UEBwwIUG9ydGxhbmQwHhcNMTQwOTEw
MjAyNzM0WhcNMTUwOTEwMjAyNzM0WjBNMQswCQYDVQQGEwJVUzEPMA0GA1UECAwG
T3JlZ29uMRUwEwYDVQQKDAxNeSBEb20sIEluYy4xFjAUBgNVBAMMDXd3dy5teWRv
bS5jb20wXTAYBgoqcAACACJlLQIBBgoqcAACACJlLQMBA0EAZmCh+8+3MqUOMl2o
MphDucYYLdJMkSIDRX5ufZTWns4pLbiOnEg5SmRjdwGGMt7Gx+Rl4WDbuWf7kqND
NFk2maN7MHkwCQYDVR0TBAIwADAsBglghkgBhvhCAQ0EHxYdT3BlblNTTCBHZW5l
cmF0ZWQgQ2VydGlmaWNhdGUwHQYDVR0OBBYEFNanmBVTAAMkglQ9imiGpS3ZEZP7
MB8GA1UdIwQYMBaAFM6PQWepJ96TAmHELZllwNj/XnunMA0GCSpwAAIAImUtDAUA
AzEAxPBOE9QF5xuJrNnDZdQ11bh5dil4CGaSTgEqP95frvrTxH6uuBY4IIJHiFGy
ohfc
-----END CERTIFICATE-----
