Certificate:
    Data:
        Version: 3 (0x2)
        Serial Number: 117 (0x75)
    Signature Algorithm: bign-with-hbelt
        Issuer: CN=www.mydom_5145.com, O=My Dom, Inc., C=US, ST=Oregon, L=Portland
        Validity
            Not Before: Sep 10 20:27:38 2014 GMT
            Not After : Sep 10 20:27:38 2015 GMT
        Subject: C=US, ST=Oregon, O=My Dom, Inc., CN=www.mydom.com
        Subject Public Key Info:
            Public Key Algorithm: bign-pubkey
                Public key: 46834F84E2C15FD505B95F51B2D115A0C40EDFAB2494D01EFE3E2C1D17894F29AB8BCFD4CBBBBC72EE8DDA7AB86E15FB0D75D2639D7FCB4BDF624937BD8C4196
                Parameter set: bign-curve256v1
        X509v3 extensions:
            X509v3 Basic Constraints: 
                CA:FALSE
            Netscape Comment: 
                OpenSSL Generated Certificate
            X509v3 Subject Key Identifier: 
                04:EA:C2:05:6B:06:2B:E5:F7:A4:58:6D:F9:66:6A:DA:F4:45:E6:FC
            X509v3 Authority Key Identifier: 
                keyid:20:DA:EF:2A:70:D1:8A:63:5B:E4:37:E6:28:E1:F8:3E:DB:91:7E:8C

    Signature Algorithm: bign-with-hbelt
         2c:ba:ae:dd:24:04:43:10:de:fb:8c:78:19:06:79:e7:7f:46:
         d4:40:d4:2b:bf:cb:1b:67:33:66:4a:70:91:d5:ff:94:8b:54:
         f2:14:8c:11:a9:d2:0d:bb:f0:d3:f2:14
-----BEGIN CERTIFICATE-----
MIICDzCCAcmgAwIBAgIBdTANBgkqcAACACJlLQwFADBlMRswGQYDVQQDDBJ3d3cu
bXlkb21fNTE0NS5jb20xFTATBgNVBAoMDE15IERvbSwgSW5jLjELMAkGA1UEBhMC
VVMxDzANBgNVBAgMBk9yZWdvbjERMA8GA1UEBwwIUG9ydGxhbmQwHhcNMTQwOTEw
MjAyNzM4WhcNMTUwOTEwMjAyNzM4WjBNMQswCQYDVQQGEwJVUzEPMA0GA1UECAwG
T3JlZ29uMRUwEwYDVQQKDAxNeSBEb20sIEluYy4xFjAUBgNVBAMMDXd3dy5teWRv
bS5jb20wXTAYBgoqcAACACJlLQIBBgoqcAACACJlLQMBA0EARoNPhOLBX9UFuV9R
stEVoMQO36sklNAe/j4sHReJTymri8/Uy7u8cu6N2nq4bhX7DXXSY51/y0vfYkk3
vYxBlqN7MHkwCQYDVR0TBAIwADAsBglghkgBhvhCAQ0EHxYdT3BlblNTTCBHZW5l
cmF0ZWQgQ2VydGlmaWNhdGUwHQYDVR0OBBYEFATqwgVrBivl96RYbflmatr0Reb8
MB8GA1UdIwQYMBaAFCDa7ypw0YpjW+Q35ijh+D7bkX6MMA0GCSpwAAIAImUtDAUA
AzEALLqu3SQEQxDe+4x4GQZ5539G1EDUK7/LG2czZkpwkdX/lItU8hSMEanSDbvw
0/IU
-----END CERTIFICATE-----
