Certificate:
    Data:
        Version: 3 (0x2)
        Serial Number: 118 (0x76)
    Signature Algorithm: bign-with-hbelt
        Issuer: CN=www.mydom_4032.com, O=My Dom, Inc., C=US, ST=Oregon, L=Portland
        Validity
            Not Before: Sep 10 20:27:38 2014 GMT
            Not After : Sep 10 20:27:38 2015 GMT
        Subject: C=US, ST=Oregon, O=My Dom, Inc., CN=www.mydom.com
        Subject Public Key Info:
            Public Key Algorithm: bign-pubkey
                Public key: C86AFE853C8D77DDCC6E3123F0648AE6B750C0A673B725830A2B500F41B006A3BDD97EC5282F0AD43C593E62785319E28A5D04C670608AA7304BF79079A15A35
                Parameter set: bign-curve256v1
        X509v3 extensions:
            X509v3 Basic Constraints: 
                CA:FALSE
            Netscape Comment: 
                OpenSSL Generated Certificate
            X509v3 Subject Key Identifier: 
                92:03:56:62:5D:57:3E:3A:53:F4:F1:16:15:24:9D:18:FC:3A:16:B9
            X509v3 Authority Key Identifier: 
                keyid:78:32:EE:4E:1F:5A:5E:9E:4B:86:58:6F:F9:1F:42:5A:AC:89:D9:9A

    Signature Algorithm: bign-with-hbelt
         d7:25:a5:ef:cd:05:61:a7:0d:da:fb:6f:fe:f4:04:06:20:19:
         eb:30:e7:ce:f0:c6:91:fd:1d:90:f5:e3:db:7c:79:87:3d:68:
         b0:e0:69:7a:34:76:37:58:a6:ea:b0:fd
-----BEGIN CERTIFICATE-----
MIICDzCCAcmgAwIBAgIBdjANBgkqcAACACJlLQwFADBlMRswGQYDVQQDDBJ3d3cu
bXlkb21fNDAzMi5jb20xFTATBgNVBAoMDE15IERvbSwgSW5jLjELMAkGA1UEBhMC
VVMxDzANBgNVBAgMBk9yZWdvbjERMA8GA1UEBwwIUG9ydGxhbmQwHhcNMTQwOTEw
MjAyNzM4WhcNMTUwOTEwMjAyNzM4WjBNMQswCQYDVQQGEwJVUzEPMA0GA1UECAwG
T3JlZ29uMRUwEwYDVQQKDAxNeSBEb20sIEluYy4xFjAUBgNVBAMMDXd3dy5teWRv
bS5jb20wXTAYBgoqcAACACJlLQIBBgoqcAACACJlLQMBA0EAyGr+hTyNd93MbjEj
8GSK5rdQwKZztyWDCitQD0GwBqO92X7FKC8K1DxZPmJ4Uxniil0ExnBgiqcwS/eQ
eaFaNaN7MHkwCQYDVR0TBAIwADAsBglghkgBhvhCAQ0EHxYdT3BlblNTTCBHZW5l
cmF0ZWQgQ2VydGlmaWNhdGUwHQYDVR0OBBYEFJIDVmJdVz46U/TxFhUknRj8Oha5
MB8GA1UdIwQYMBaAFHgy7k4fWl6eS4ZYb/kfQlqsidmaMA0GCSpwAAIAImUtDAUA
AzEA1yWl780FYacN2vtv/vQEBiAZ6zDnzvDGkf0dkPXj23x5hz1osOBpejR2N1im
6rD9
-----END CERTIFICATE-----
