Certificate:
    Data:
        Version: 3 (0x2)
        Serial Number: 119 (0x77)
    Signature Algorithm: bign-with-hbelt
        Issuer: CN=www.mydom_4032.com, O=My Dom, Inc., C=US, ST=Oregon, L=Portland
        Validity
            Not Before: Sep 10 20:27:38 2014 GMT
            Not After : Sep 10 20:27:38 2015 GMT
        Subject: C=US, ST=Oregon, O=My Dom, Inc., CN=www.mydom.com
        Subject Public Key Info:
            Public Key Algorithm: bign-pubkey
                Public key: C86AFE853C8D77DDCC6E3123F0648AE6B750C0A673B725830A2B500F41B006A3BDD97EC5282F0AD43C593E62785319E28A5D04C670608AA7304BF79079A15A35
                Parameter set: bign-curve256v1
        X509v3 extensions:
            X509v3 Basic Constraints: 
                CA:FALSE
            Netscape Comment: 
                OpenSSL Generated Certificate
            X509v3 Subject Key Identifier: 
                92:03:56:62:5D:57:3E:3A:53:F4:F1:16:15:24:9D:18:FC:3A:16:B9
            X509v3 Authority Key Identifier: 
                keyid:78:32:EE:4E:1F:5A:5E:9E:4B:86:58:6F:F9:1F:42:5A:AC:89:D9:9A

    Signature Algorithm: bign-with-hbelt
         a1:83:38:2f:fc:61:25:89:8b:ff:b7:60:3e:34:db:4e:59:eb:
         cf:ff:c8:7d:d1:c0:46:32:69:4d:47:04:86:f8:00:7c:50:32:
         25:10:33:c7:53:09:38:2d:2f:b4:a5:18
-----BEGIN CERTIFICATE-----
MIICDzCCAcmgAwIBAgIBdzANBgkqcAACACJlLQwFADBlMRswGQYDVQQDDBJ3d3cu
bXlkb21fNDAzMi5jb20xFTATBgNVBAoMDE15IERvbSwgSW5jLjELMAkGA1UEBhMC
VVMxDzANBgNVBAgMBk9yZWdvbjERMA8GA1UEBwwIUG9ydGxhbmQwHhcNMTQwOTEw
MjAyNzM4WhcNMTUwOTEwMjAyNzM4WjBNMQswCQYDVQQGEwJVUzEPMA0GA1UECAwG
T3JlZ29uMRUwEwYDVQQKDAxNeSBEb20sIEluYy4xFjAUBgNVBAMMDXd3dy5teWRv
bS5jb20wXTAYBgoqcAACACJlLQIBBgoqcAACACJlLQMBA0EAyGr+hTyNd93MbjEj
8GSK5rdQwKZztyWDCitQD0GwBqO92X7FKC8K1DxZPmJ4Uxniil0ExnBgiqcwS/eQ
eaFaNaN7MHkwCQYDVR0TBAIwADAsBglghkgBhvhCAQ0EHxYdT3BlblNTTCBHZW5l
cmF0ZWQgQ2VydGlmaWNhdGUwHQYDVR0OBBYEFJIDVmJdVz46U/TxFhUknRj8Oha5
MB8GA1UdIwQYMBaAFHgy7k4fWl6eS4ZYb/kfQlqsidmaMA0GCSpwAAIAImUtDAUA
AzEAoYM4L/xhJYmL/7dgPjTbTlnrz//IfdHARjJpTUcEhvgAfFAyJRAzx1MJOC0v
tKUY
-----END CERTIFICATE-----
