Certificate:
    Data:
        Version: 3 (0x2)
        Serial Number: 120 (0x78)
    Signature Algorithm: bign-with-hbelt
        Issuer: CN=www.mydom_8700.com, O=My Dom, Inc., C=US, ST=Oregon, L=Portland
        Validity
            Not Before: Sep 10 20:27:58 2014 GMT
            Not After : Sep 10 20:27:58 2015 GMT
        Subject: C=US, ST=Oregon, O=My Dom, Inc., CN=www.mydom.com
        Subject Public Key Info:
            Public Key Algorithm: bign-pubkey
                Public key: D77D49CAE7E4C9D327FF7871F1B3E0A5A8031D07D7367CCDCF3450778C8065E508E32B3644D6C23C04F7CD9D0E2E49694D3CA18D0A90A06BB8E775DE3E85DD6B
                Parameter set: bign-curve256v1
        X509v3 extensions:
            X509v3 Basic Constraints: 
                CA:FALSE
            Netscape Comment: 
                OpenSSL Generated Certificate
            X509v3 Subject Key Identifier: 
                2F:6B:2D:0A:23:6F:33:F0:16:7C:E5:B7:24:6B:A8:76:13:55:06:37
            X509v3 Authority Key Identifier: 
                keyid:5E:4A:49:8E:AF:08:98:3A:7E:88:6A:D9:4D:5E:7C:D0:23:5A:2F:FA

    Signature Algorithm: bign-with-hbelt
         aa:5f:ce:61:15:31:0d:8e:e7:fa:78:04:1f:aa:76:1c:db:8d:
         c4:52:a5:1f:a2:2b:ef:1d:8e:33:ae:62:2e:9d:d8:5e:9c:6e:
         64:0c:2c:d2:a5:99:6a:c0:28:7b:35:c6
-----BEGIN CERTIFICATE-----
MIICDzCCAcmgAwIBAgIBeDANBgkqcAACACJlLQwFADBlMRswGQYDVQQDDBJ3d3cu
bXlkb21fODcwMC5jb20xFTATBgNVBAoMDE15IERvbSwgSW5jLjELMAkGA1UEBhMC
VVMxDzANBgNVBAgMBk9yZWdvbjERMA8GA1UEBwwIUG9ydGxhbmQwHhcNMTQwOTEw
MjAyNzU4WhcNMTUwOTEwMjAyNzU4WjBNMQswCQYDVQQGEwJVUzEPMA0GA1UECAwG
T3JlZ29uMRUwEwYDVQQKDAxNeSBEb20sIEluYy4xFjAUBgNVBAMMDXd3dy5teWRv
bS5jb20wXTAYBgoqcAACACJlLQIBBgoqcAACACJlLQMBA0EA131JyufkydMn/3hx
8bPgpagDHQfXNnzNzzRQd4yAZeUI4ys2RNbCPAT3zZ0OLklpTTyhjQqQoGu453Xe
PoXda6N7MHkwCQYDVR0TBAIwADAsBglghkgBhvhCAQ0EHxYdT3BlblNTTCBHZW5l
cmF0ZWQgQ2VydGlmaWNhdGUwHQYDVR0OBBYEFC9rLQojbzPwFnzltyRrqHYTVQY3
MB8GA1UdIwQYMBaAFF5KSY6vCJg6fohq2U1efNAjWi/6MA0GCSpwAAIAImUtDAUA
AzEAql/OYRUxDY7n+ngEH6p2HNuNxFKlH6Ir7x2OM65iLp3YXpxuZAws0qWZasAo
ezXG
-----END CERTIFICATE-----
