Certificate:
    Data:
        Version: 3 (0x2)
        Serial Number: 121 (0x79)
    Signature Algorithm: bign-with-hbelt
        Issuer: CN=www.mydom_3945.com, O=My Dom, Inc., C=US, ST=Oregon, L=Portland
        Validity
            Not Before: Sep 10 20:27:58 2014 GMT
            Not After : Sep 10 20:27:58 2015 GMT
        Subject: C=US, ST=Oregon, O=My Dom, Inc., CN=www.mydom.com
        Subject Public Key Info:
            Public Key Algorithm: bign-pubkey
                Public key: 509AC701C1AC3DC0A4406C1014D84A27CE53BA4AB42665A0A7D96E1DC205891487A0DFA50FCD7288F36882351003F68A6AEADADC33414237081712B5DDA5F848
                Parameter set: bign-curve256v1
        X509v3 extensions:
            X509v3 Basic Constraints: 
                CA:FALSE
            Netscape Comment: 
                OpenSSL Generated Certificate
            X509v3 Subject Key Identifier: 
                81:24:62:B0:D3:05:1A:D4:26:E8:54:C7:C4:B2:3B:81:01:4F:8F:74
            X509v3 Authority Key Identifier: 
                keyid:DC:61:5A:36:C7:90:CF:5E:91:7B:6C:3B:1D:09:C6:79:29:31:32:53

    Signature Algorithm: bign-with-hbelt
         75:d5:7c:fb:17:83:8f:0f:20:01:22:94:84:13:ca:9d:a5:2a:
         60:17:b2:4d:d4:d6:df:0a:fe:00:55:e4:b8:67:e9:ef:f1:f3:
         47:6f:8f:22:1b:63:15:98:07:d6:af:5e
-----BEGIN CERTIFICATE-----
MIICDzCCAcmgAwIBAgIBeTANBgkqcAACACJlLQwFADBlMRswGQYDVQQDDBJ3d3cu
bXlkb21fMzk0NS5jb20xFTATBgNVBAoMDE15IERvbSwgSW5jLjELMAkGA1UEBhMC
VVMxDzANBgNVBAgMBk9yZWdvbjERMA8GA1UEBwwIUG9ydGxhbmQwHhcNMTQwOTEw
MjAyNzU4WhcNMTUwOTEwMjAyNzU4WjBNMQswCQYDVQQGEwJVUzEPMA0GA1UECAwG
T3JlZ29uMRUwEwYDVQQKDAxNeSBEb20sIEluYy4xFjAUBgNVBAMMDXd3dy5teWRv
bS5jb20wXTAYBgoqcAACACJlLQIBBgoqcAACACJlLQMBA0EAUJrHAcGsPcCkQGwQ
FNhKJ85Tukq0JmWgp9luHcIFiRSHoN+lD81yiPNogjUQA/aKaura3DNBQjcIFxK1
3aX4SKN7MHkwCQYDVR0TBAIwADAsBglghkgBhvhCAQ0EHxYdT3BlblNTTCBHZW5l
cmF0ZWQgQ2VydGlmaWNhdGUwHQYDVR0OBBYEFIEkYrDTBRrUJuhUx8SyO4EBT490
MB8GA1UdIwQYMBaAFNxhWjbHkM9ekXtsOx0JxnkpMTJTMA0GCSpwAAIAImUtDAUA
AzEAddV8+xeDjw8gASKUhBPKnaUqYBeyTdTW3wr+AFXkuGfp7/HzR2+PIhtjFZgH
1q9e
-----END CERTIFICATE-----
