Certificate:
    Data:
        Version: 3 (0x2)
        Serial Number: 123 (0x7b)
    Signature Algorithm: bign-with-hbelt
        Issuer: CN=www.mydom_2270.com, O=My Dom, Inc., C=US, ST=Oregon, L=Portland
        Validity
            Not Before: Sep 10 20:28:07 2014 GMT
            Not After : Sep 10 20:28:07 2015 GMT
        Subject: C=US, ST=Oregon, O=My Dom, Inc., CN=www.mydom.com
        Subject Public Key Info:
            Public Key Algorithm: bign-pubkey
                Public key: 76AD2B03A319F34DD093DCF831511C6961CB60D4B57C6795090D50DABCB8485A3DD4A8388726CB2AC39FD7248FE7AA41C69F16D3F271DE5D66C3521C81B418D8
                Parameter set: bign-curve256v1
        X509v3 extensions:
            X509v3 Basic Constraints: 
                CA:FALSE
            Netscape Comment: 
                OpenSSL Generated Certificate
            X509v3 Subject Key Identifier: 
                9E:AB:09:D2:BE:08:49:F3:35:88:2B:91:C6:16:DA:51:7D:E9:3B:09
            X509v3 Authority Key Identifier: 
                keyid:43:06:6C:D3:18:52:2B:28:6F:2F:5C:C3:CA:35:27:B9:DA:82:AB:B7

    Signature Algorithm: bign-with-hbelt
         7d:2f:42:ca:74:95:b4:f2:3d:1f:2b:e8:32:28:fd:98:f0:89:
         cf:c7:70:bf:28:5c:8c:7e:49:69:24:84:25:15:0c:99:56:38:
         f5:d2:22:5e:a8:f0:17:79:b9:9f:da:94
-----BEGIN CERTIFICATE-----
MIICDzCCAcmgAwIBAgIBezANBgkqcAACACJlLQwFADBlMRswGQYDVQQDDBJ3d3cu
bXlkb21fMjI3MC5jb20xFTATBgNVBAoMDE15IERvbSwgSW5jLjELMAkGA1UEBhMC
VVMxDzANBgNVBAgMBk9yZWdvbjERMA8GA1UEBwwIUG9ydGxhbmQwHhcNMTQwOTEw
MjAyODA3WhcNMTUwOTEwMjAyODA3WjBNMQswCQYDVQQGEwJVUzEPMA0GA1UECAwG
T3JlZ29uMRUwEwYDVQQKDAxNeSBEb20sIEluYy4xFjAUBgNVBAMMDXd3dy5teWRv
bS5jb20wXTAYBgoqcAACACJlLQIBBgoqcAACACJlLQMBA0EAdq0rA6MZ803Qk9z4
MVEcaWHLYNS1fGeVCQ1Q2ry4SFo91Kg4hybLKsOf1ySP56pBxp8W0/Jx3l1mw1Ic
gbQY2KN7MHkwCQYDVR0TBAIwADAsBglghkgBhvhCAQ0EHxYdT3BlblNTTCBHZW5l
cmF0ZWQgQ2VydGlmaWNhdGUwHQYDVR0OBBYEFJ6rCdK+CEnzNYgrkcYW2lF96TsJ
MB8GA1UdIwQYMBaAFEMGbNMYUisoby9cw8o1J7nagqu3MA0GCSpwAAIAImUtDAUA
AzEAfS9CynSVtPI9HyvoMij9mPCJz8dwvyhcjH5JaSSEJRUMmVY49dIiXqjwF3m5
n9qU
-----END CERTIFICATE-----
