Certificate:
    Data:
        Version: 3 (0x2)
        Serial Number: 124 (0x7c)
    Signature Algorithm: bign-with-hbelt
        Issuer: CN=www.mydom_6013.com, O=My Dom, Inc., C=US, ST=Oregon, L=Portland
        Validity
            Not Before: Sep 10 20:28:07 2014 GMT
            Not After : Sep 10 20:28:07 2015 GMT
        Subject: C=US, ST=Oregon, O=My Dom, Inc., CN=www.mydom.com
        Subject Public Key Info:
            Public Key Algorithm: bign-pubkey
                Public key: A5E66651F9FEDF25681567775C9E2FFF5756164636C59062147BA3EEEE0F62B85C41A684746863AB125C4EB8B4B141D43C891A6018D27AAA8FC6468A213AF153
                Parameter set: bign-curve256v1
        X509v3 extensions:
            X509v3 Basic Constraints: 
                CA:FALSE
            Netscape Comment: 
                OpenSSL Generated Certificate
            X509v3 Subject Key Identifier: 
                DC:05:35:77:2B:F6:B3:D8:83:4F:A8:32:04:B5:A8:63:0E:EF:CE:A5
            X509v3 Authority Key Identifier: 
                keyid:26:BE:8B:D7:CD:96:9B:A8:7F:0D:29:A3:1E:3F:C0:E9:9E:7B:0D:5B

    Signature Algorithm: bign-with-hbelt
         6c:38:13:e0:27:e9:fa:e5:cc:ea:a8:6b:a2:0e:5e:03:35:f5:
         7a:f2:7e:54:71:fb:22:f7:c1:5a:4f:0c:9d:0b:3a:64:e6:f8:
         e1:eb:29:9c:b0:8a:1c:fb:cc:9b:a0:5b
-----BEGIN CERTIFICATE-----
MIICDzCCAcmgAwIBAgIBfDANBgkqcAACACJlLQwFADBlMRswGQYDVQQDDBJ3d3cu
bXlkb21fNjAxMy5jb20xFTATBgNVBAoMDE15IERvbSwgSW5jLjELMAkGA1UEBhMC
VVMxDzANBgNVBAgMBk9yZWdvbjERMA8GA1UEBwwIUG9ydGxhbmQwHhcNMTQwOTEw
MjAyODA3WhcNMTUwOTEwMjAyODA3WjBNMQswCQYDVQQGEwJVUzEPMA0GA1UECAwG
T3JlZ29uMRUwEwYDVQQKDAxNeSBEb20sIEluYy4xFjAUBgNVBAMMDXd3dy5teWRv
bS5jb20wXTAYBgoqcAACACJlLQIBBgoqcAACACJlLQMBA0EApeZmUfn+3yVoFWd3
XJ4v/1dWFkY2xZBiFHuj7u4PYrhcQaaEdGhjqxJcTri0sUHUPIkaYBjSeqqPxkaK
ITrxU6N7MHkwCQYDVR0TBAIwADAsBglghkgBhvhCAQ0EHxYdT3BlblNTTCBHZW5l
cmF0ZWQgQ2VydGlmaWNhdGUwHQYDVR0OBBYEFNwFNXcr9rPYg0+oMgS1qGMO786l
MB8GA1UdIwQYMBaAFCa+i9fNlpuofw0pox4/wOmeew1bMA0GCSpwAAIAImUtDAUA
AzEAbDgT4Cfp+uXM6qhrog5eAzX1evJ+VHH7IvfBWk8MnQs6ZOb44espnLCKHPvM
m6Bb
-----END CERTIFICATE-----
