Certificate:
    Data:
        Version: 3 (0x2)
        Serial Number: 125 (0x7d)
    Signature Algorithm: bign-with-hbelt
        Issuer: CN=www.mydom_6013.com, O=My Dom, Inc., C=US, ST=Oregon, L=Portland
        Validity
            Not Before: Sep 10 20:28:07 2014 GMT
            Not After : Sep 10 20:28:07 2015 GMT
        Subject: C=US, ST=Oregon, O=My Dom, Inc., CN=www.mydom.com
        Subject Public Key Info:
            Public Key Algorithm: bign-pubkey
                Public key: A5E66651F9FEDF25681567775C9E2FFF5756164636C59062147BA3EEEE0F62B85C41A684746863AB125C4EB8B4B141D43C891A6018D27AAA8FC6468A213AF153
                Parameter set: bign-curve256v1
        X509v3 extensions:
            X509v3 Basic Constraints: 
                CA:FALSE
            Netscape Comment: 
                OpenSSL Generated Certificate
            X509v3 Subject Key Identifier: 
                DC:05:35:77:2B:F6:B3:D8:83:4F:A8:32:04:B5:A8:63:0E:EF:CE:A5
            X509v3 Authority Key Identifier: 
                keyid:26:BE:8B:D7:CD:96:9B:A8:7F:0D:29:A3:1E:3F:C0:E9:9E:7B:0D:5B

    Signature Algorithm: bign-with-hbelt
         2f:84:cb:48:1a:0e:c2:76:28:6f:b8:73:c4:cc:b6:e5:ed:b3:
         52:60:26:f1:4b:15:e7:13:2b:a8:1b:24:55:08:51:01:23:68:
         18:a6:3a:f7:99:2f:01:2a:18:50:16:f5
-----BEGIN CERTIFICATE-----
MIICDzCCAcmgAwIBAgIBfTANBgkqcAACACJlLQwFADBlMRswGQYDVQQDDBJ3d3cu
bXlkb21fNjAxMy5jb20xFTATBgNVBAoMDE15IERvbSwgSW5jLjELMAkGA1UEBhMC
VVMxDzANBgNVBAgMBk9yZWdvbjERMA8GA1UEBwwIUG9ydGxhbmQwHhcNMTQwOTEw
MjAyODA3WhcNMTUwOTEwMjAyODA3WjBNMQswCQYDVQQGEwJVUzEPMA0GA1UECAwG
T3JlZ29uMRUwEwYDVQQKDAxNeSBEb20sIEluYy4xFjAUBgNVBAMMDXd3dy5teWRv
bS5jb20wXTAYBgoqcAACACJlLQIBBgoqcAACACJlLQMBA0EApeZmUfn+3yVoFWd3
XJ4v/1dWFkY2xZBiFHuj7u4PYrhcQaaEdGhjqxJcTri0sUHUPIkaYBjSeqqPxkaK
ITrxU6N7MHkwCQYDVR0TBAIwADAsBglghkgBhvhCAQ0EHxYdT3BlblNTTCBHZW5l
cmF0ZWQgQ2VydGlmaWNhdGUwHQYDVR0OBBYEFNwFNXcr9rPYg0+oMgS1qGMO786l
MB8GA1UdIwQYMBaAFCa+i9fNlpuofw0pox4/wOmeew1bMA0GCSpwAAIAImUtDAUA
AzEAL4TLSBoOwnYob7hzxMy25e2zUmAm8UsV5xMrqBskVQhRASNoGKY695kvASoY
UBb1
-----END CERTIFICATE-----
