Certificate:
    Data:
        Version: 3 (0x2)
        Serial Number: 126 (0x7e)
    Signature Algorithm: bign-with-hbelt
        Issuer: CN=www.mydom_687.com, O=My Dom, Inc., C=US, ST=Oregon, L=Portland
        Validity
            Not Before: Sep 10 20:28:10 2014 GMT
            Not After : Sep 10 20:28:10 2015 GMT
        Subject: C=US, ST=Oregon, O=My Dom, Inc., CN=www.mydom.com
        Subject Public Key Info:
            Public Key Algorithm: bign-pubkey
                Public key: 1F9C1467441506D0C7929232CD26329B41CEF7E7C7C54F6A2A0A91A8324EF45235EDFBB80572540D754B321A7BB700EF22641083B7DB4A29CED566EA38ED9707
                Parameter set: bign-curve256v1
        X509v3 extensions:
            X509v3 Basic Constraints: 
                CA:FALSE
            Netscape Comment: 
                OpenSSL Generated Certificate
            X509v3 Subject Key Identifier: 
                A1:1E:C6:6E:A9:01:F6:64:22:11:1A:E8:E1:6A:FA:02:7E:ED:1B:33
            X509v3 Authority Key Identifier: 
                keyid:A7:05:AF:0B:BD:1F:1D:19:88:7C:D5:CC:4E:D9:33:A8:73:98:21:4D

    Signature Algorithm: bign-with-hbelt
         81:5a:ad:44:59:a6:97:01:31:fd:2d:97:aa:88:36:be:cc:1a:
         75:32:8e:f4:1e:44:5e:c6:d3:87:ff:59:83:d1:0e:50:19:e4:
         62:98:b7:ab:d8:a1:10:1a:89:ab:d6:9b
-----BEGIN CERTIFICATE-----
MIICDjCCAcigAwIBAgIBfjANBgkqcAACACJlLQwFADBkMRowGAYDVQQDDBF3d3cu
bXlkb21fNjg3LmNvbTEVMBMGA1UECgwMTXkgRG9tLCBJbmMuMQswCQYDVQQGEwJV
UzEPMA0GA1UECAwGT3JlZ29uMREwDwYDVQQHDAhQb3J0bGFuZDAeFw0xNDA5MTAy
MDI4MTBaFw0xNTA5MTAyMDI4MTBaME0xCzAJBgNVBAYTAlVTMQ8wDQYDVQQIDAZP
cmVnb24xFTATBgNVBAoMDE15IERvbSwgSW5jLjEWMBQGA1UEAwwNd3d3Lm15ZG9t
LmNvbTBdMBgGCipwAAIAImUtAgEGCipwAAIAImUtAwEDQQAfnBRnRBUG0MeSkjLN
JjKbQc7358fFT2oqCpGoMk70UjXt+7gFclQNdUsyGnu3AO8iZBCDt9tKKc7VZuo4
7ZcHo3sweTAJBgNVHRMEAjAAMCwGCWCGSAGG+EIBDQQfFh1PcGVuU1NMIEdlbmVy
YXRlZCBDZXJ0aWZpY2F0ZTAdBgNVHQ4EFgQUoR7GbqkB9mQiERro4Wr6An7tGzMw
HwYDVR0jBBgwFoAUpwWvC70fHRmIfNXMTtkzqHOYIU0wDQYJKnAAAgAiZS0MBQAD
MQCBWq1EWaaXATH9LZeqiDa+zBp1Mo70HkRextOH/1mD0Q5QGeRimLer2KEQGomr
1ps=
-----END CERTIFICATE-----
