Certificate:
    Data:
        Version: 3 (0x2)
        Serial Number: 127 (0x7f)
    Signature Algorithm: bign-with-hbelt
        Issuer: CN=www.mydom_8193.com, O=My Dom, Inc., C=US, ST=Oregon, L=Portland
        Validity
            Not Before: Sep 10 20:28:10 2014 GMT
            Not After : Sep 10 20:28:10 2015 GMT
        Subject: C=US, ST=Oregon, O=My Dom, Inc., CN=www.mydom.com
        Subject Public Key Info:
            Public Key Algorithm: bign-pubkey
                Public key: 6CC7D1CA5A371D330622D2A6F5C0CB556D52E4DC5EEC0A51A34C18A7F9F791540E7F672350493E133C3D3F4DA0A890C73DA71D697BB8221AE7EC48162C5E80EC
                Parameter set: bign-curve256v1
        X509v3 extensions:
            X509v3 Basic Constraints: 
                CA:FALSE
            Netscape Comment: 
                OpenSSL Generated Certificate
            X509v3 Subject Key Identifier: 
                FC:47:08:80:98:58:9D:73:F9:11:7E:59:C0:BA:B2:72:FB:6B:29:E9
            X509v3 Authority Key Identifier: 
                keyid:C4:1D:5F:5D:C4:94:84:EF:1D:B2:A2:AB:54:DA:11:2F:FC:DC:4C:4D

    Signature Algorithm: bign-with-hbelt
         bb:c3:29:2f:91:ee:1d:94:9d:14:3d:c8:c8:eb:83:42:ca:8c:
         c4:e4:5b:bb:47:61:c9:01:bd:6f:ff:fa:95:db:66:b1:91:7d:
         c5:e2:7a:fd:45:8f:08:3f:60:4b:0a:8d
-----BEGIN CERTIFICATE-----
MIICDzCCAcmgAwIBAgIBfzANBgkqcAACACJlLQwFADBlMRswGQYDVQQDDBJ3d3cu
bXlkb21fODE5My5jb20xFTATBgNVBAoMDE15IERvbSwgSW5jLjELMAkGA1UEBhMC
VVMxDzANBgNVBAgMBk9yZWdvbjERMA8GA1UEBwwIUG9ydGxhbmQwHhcNMTQwOTEw
MjAyODEwWhcNMTUwOTEwMjAyODEwWjBNMQswCQYDVQQGEwJVUzEPMA0GA1UECAwG
T3JlZ29uMRUwEwYDVQQKDAxNeSBEb20sIEluYy4xFjAUBgNVBAMMDXd3dy5teWRv
bS5jb20wXTAYBgoqcAACACJlLQIBBgoqcAACACJlLQMBA0EAbMfRylo3HTMGItKm
9cDLVW1S5Nxe7ApRo0wYp/n3kVQOf2cjUEk+Ezw9P02gqJDHPacdaXu4Ihrn7EgW
LF6A7KN7MHkwCQYDVR0TBAIwADAsBglghkgBhvhCAQ0EHxYdT3BlblNTTCBHZW5l
cmF0ZWQgQ2VydGlmaWNhdGUwHQYDVR0OBBYEFPxHCICYWJ1z+RF+WcC6snL7aynp
MB8GA1UdIwQYMBaAFMQdX13ElITvHbKiq1TaES/83ExNMA0GCSpwAAIAImUtDAUA
AzEAu8MpL5HuHZSdFD3IyOuDQsqMxORbu0dhyQG9b//6ldtmsZF9xeJ6/UWPCD9g
SwqN
-----END CERTIFICATE-----
