Certificate:
    Data:
        Version: 3 (0x2)
        Serial Number: 128 (0x80)
    Signature Algorithm: bign-with-hbelt
        Issuer: CN=www.mydom_8193.com, O=My Dom, Inc., C=US, ST=Oregon, L=Portland
        Validity
            Not Before: Sep 10 20:28:10 2014 GMT
            Not After : Sep 10 20:28:10 2015 GMT
        Subject: C=US, ST=Oregon, O=My Dom, Inc., CN=www.mydom.com
        Subject Public Key Info:
            Public Key Algorithm: bign-pubkey
                Public key: 6CC7D1CA5A371D330622D2A6F5C0CB556D52E4DC5EEC0A51A34C18A7F9F791540E7F672350493E133C3D3F4DA0A890C73DA71D697BB8221AE7EC48162C5E80EC
                Parameter set: bign-curve256v1
        X509v3 extensions:
            X509v3 Basic Constraints: 
                CA:FALSE
            Netscape Comment: 
                OpenSSL Generated Certificate
            X509v3 Subject Key Identifier: 
                FC:47:08:80:98:58:9D:73:F9:11:7E:59:C0:BA:B2:72:FB:6B:29:E9
            X509v3 Authority Key Identifier: 
                keyid:C4:1D:5F:5D:C4:94:84:EF:1D:B2:A2:AB:54:DA:11:2F:FC:DC:4C:4D

    Signature Algorithm: bign-with-hbelt
         e1:9c:83:27:95:c1:aa:a7:b8:a9:a8:f3:01:85:df:e1:a4:cb:
         07:7c:01:de:a2:95:47:0e:e2:04:0f:96:45:6e:e4:af:68:fc:
         e2:6b:d6:f5:7d:51:f6:f2:6c:45:59:03
-----BEGIN CERTIFICATE-----
MIICEDCCAcqgAwIBAgICAIAwDQYJKnAAAgAiZS0MBQAwZTEbMBkGA1UEAwwSd3d3
Lm15ZG9tXzgxOTMuY29tMRUwEwYDVQQKDAxNeSBEb20sIEluYy4xCzAJBgNVBAYT
AlVTMQ8wDQYDVQQIDAZPcmVnb24xETAPBgNVBAcMCFBvcnRsYW5kMB4XDTE0MDkx
MDIwMjgxMFoXDTE1MDkxMDIwMjgxMFowTTELMAkGA1UEBhMCVVMxDzANBgNVBAgM
Bk9yZWdvbjEVMBMGA1UECgwMTXkgRG9tLCBJbmMuMRYwFAYDVQQDDA13d3cubXlk
b20uY29tMF0wGAYKKnAAAgAiZS0CAQYKKnAAAgAiZS0DAQNBAGzH0cpaNx0zBiLS
pvXAy1VtUuTcXuwKUaNMGKf595FUDn9nI1BJPhM8PT9NoKiQxz2nHWl7uCIa5+xI
FixegOyjezB5MAkGA1UdEwQCMAAwLAYJYIZIAYb4QgENBB8WHU9wZW5TU0wgR2Vu
ZXJhdGVkIENlcnRpZmljYXRlMB0GA1UdDgQWBBT8RwiAmFidc/kRflnAurJy+2sp
6TAfBgNVHSMEGDAWgBTEHV9dxJSE7x2yoqtU2hEv/NxMTTANBgkqcAACACJlLQwF
AAMxAOGcgyeVwaqnuKmo8wGF3+Gkywd8Ad6ilUcO4gQPlkVu5K9o/OJr1vV9Ufby
bEVZAw==
-----END CERTIFICATE-----
