Certificate:
    Data:
        Version: 3 (0x2)
        Serial Number: 129 (0x81)
    Signature Algorithm: bign-with-hbelt
        Issuer: CN=www.mydom_1653.com, O=My Dom, Inc., C=US, ST=Oregon, L=Portland
        Validity
            Not Before: Sep 11 04:45:58 2014 GMT
            Not After : Sep 11 04:45:58 2015 GMT
        Subject: C=US, ST=Oregon, O=My Dom, Inc., CN=www.mydom.com
        Subject Public Key Info:
            Public Key Algorithm: bign-pubkey
                Public key: 722B8D62D1C58C3A2E71CEACA62EFDC5171948B215090A2C152679C50B61D02DA801EE46A5C94F26CCD424228BD0052225FBF0A66F68F7D6F809287EE76A32DC
                Parameter set: bign-curve256v1
        X509v3 extensions:
            X509v3 Basic Constraints: 
                CA:FALSE
            Netscape Comment: 
                OpenSSL Generated Certificate
            X509v3 Subject Key Identifier: 
                B6:58:11:6A:CC:56:80:8F:4B:A7:80:F3:90:63:14:47:10:C9:8A:82
            X509v3 Authority Key Identifier: 
                keyid:C8:9F:3E:4C:0C:52:52:62:AB:70:31:94:35:CB:BA:18:D0:A9:1C:60

    Signature Algorithm: bign-with-hbelt
         03:f9:13:71:22:69:07:c1:07:c3:21:13:69:aa:6d:c0:8d:36:
         7f:47:d3:ce:4f:a4:1b:e3:6d:28:f5:5b:62:c1:01:44:55:28:
         a8:bf:65:6b:59:53:e7:6b:50:41:38:95
-----BEGIN CERTIFICATE-----
MIICEDCCAcqgAwIBAgICAIEwDQYJKnAAAgAiZS0MBQAwZTEbMBkGA1UEAwwSd3d3
Lm15ZG9tXzE2NTMuY29tMRUwEwYDVQQKDAxNeSBEb20sIEluYy4xCzAJBgNVBAYT
AlVTMQ8wDQYDVQQIDAZPcmVnb24xETAPBgNVBAcMCFBvcnRsYW5kMB4XDTE0MDkx
MTA0NDU1OFoXDTE1MDkxMTA0NDU1OFowTTELMAkGA1UEBhMCVVMxDzANBgNVBAgM
Bk9yZWdvbjEVMBMGA1UECgwMTXkgRG9tLCBJbmMuMRYwFAYDVQQDDA13d3cubXlk
b20uY29tMF0wGAYKKnAAAgAiZS0CAQYKKnAAAgAiZS0DAQNBAHIrjWLRxYw6LnHO
rKYu/cUXGUiyFQkKLBUmecULYdAtqAHuRqXJTybM1CQii9AFIiX78KZvaPfW+Ako
fudqMtyjezB5MAkGA1UdEwQCMAAwLAYJYIZIAYb4QgENBB8WHU9wZW5TU0wgR2Vu
ZXJhdGVkIENlcnRpZmljYXRlMB0GA1UdDgQWBBS2WBFqzFaAj0ungPOQYxRHEMmK
gjAfBgNVHSMEGDAWgBTInz5MDFJSYqtwMZQ1y7oY0KkcYDANBgkqcAACACJlLQwF
AAMxAAP5E3EiaQfBB8MhE2mqbcCNNn9H085PpBvjbSj1W2LBAURVKKi/ZWtZU+dr
UEE4lQ==
-----END CERTIFICATE-----
