Certificate:
    Data:
        Version: 3 (0x2)
        Serial Number: 130 (0x82)
    Signature Algorithm: bign-with-hbelt
        Issuer: CN=www.mydom_7096.com, O=My Dom, Inc., C=US, ST=Oregon, L=Portland
        Validity
            Not Before: Sep 11 04:57:29 2014 GMT
            Not After : Sep 11 04:57:29 2015 GMT
        Subject: C=US, ST=Oregon, O=My Dom, Inc., CN=www.mydom.com
        Subject Public Key Info:
            Public Key Algorithm: bign-pubkey
                Public key: 5CC09D3881AEA791D45179F8F84B616BEC4C0D2125B4B5A14E98EF2E5DEDD2783628E5ED6C18D99B2DAC982406E4E533F86820EECE82AAB5BDFB0FB35366FDDC
                Parameter set: bign-curve256v1
        X509v3 extensions:
            X509v3 Basic Constraints: 
                CA:FALSE
            Netscape Comment: 
                OpenSSL Generated Certificate
            X509v3 Subject Key Identifier: 
                32:29:C2:19:1F:25:BC:AC:2D:E0:1C:88:55:72:F6:D9:E8:A6:92:11
            X509v3 Authority Key Identifier: 
                keyid:6B:6F:1E:19:17:AF:EC:BA:88:53:E2:F3:2F:BA:88:D4:4C:B9:50:C3

    Signature Algorithm: bign-with-hbelt
         c4:6d:ad:b5:6a:a4:7a:87:e9:6d:79:67:94:38:77:29:20:60:
         29:42:33:2b:7a:6a:87:b1:d2:56:f2:a9:a6:77:cf:bf:1f:a9:
         8d:42:02:55:dc:d4:f2:4e:0b:79:41:9e
-----BEGIN CERTIFICATE-----
MIICEDCCAcqgAwIBAgICAIIwDQYJKnAAAgAiZS0MBQAwZTEbMBkGA1UEAwwSd3d3
Lm15ZG9tXzcwOTYuY29tMRUwEwYDVQQKDAxNeSBEb20sIEluYy4xCzAJBgNVBAYT
AlVTMQ8wDQYDVQQIDAZPcmVnb24xETAPBgNVBAcMCFBvcnRsYW5kMB4XDTE0MDkx
MTA0NTcyOVoXDTE1MDkxMTA0NTcyOVowTTELMAkGA1UEBhMCVVMxDzANBgNVBAgM
Bk9yZWdvbjEVMBMGA1UECgwMTXkgRG9tLCBJbmMuMRYwFAYDVQQDDA13d3cubXlk
b20uY29tMF0wGAYKKnAAAgAiZS0CAQYKKnAAAgAiZS0DAQNBAFzAnTiBrqeR1FF5
+PhLYWvsTA0hJbS1oU6Y7y5d7dJ4Nijl7WwY2ZstrJgkBuTlM/hoIO7Ogqq1vfsP
s1Nm/dyjezB5MAkGA1UdEwQCMAAwLAYJYIZIAYb4QgENBB8WHU9wZW5TU0wgR2Vu
ZXJhdGVkIENlcnRpZmljYXRlMB0GA1UdDgQWBBQyKcIZHyW8rC3gHIhVcvbZ6KaS
ETAfBgNVHSMEGDAWgBRrbx4ZF6/suohT4vMvuojUTLlQwzANBgkqcAACACJlLQwF
AAMxAMRtrbVqpHqH6W15Z5Q4dykgYClCMyt6aoex0lbyqaZ3z78fqY1CAlXc1PJO
C3lBng==
-----END CERTIFICATE-----
