Certificate:
    Data:
        Version: 3 (0x2)
        Serial Number: 131 (0x83)
    Signature Algorithm: bign-with-hbelt
        Issuer: CN=www.mydom_369.com, O=My Dom, Inc., C=US, ST=Oregon, L=Portland
        Validity
            Not Before: Sep 11 04:57:46 2014 GMT
            Not After : Sep 11 04:57:46 2015 GMT
        Subject: C=US, ST=Oregon, O=My Dom, Inc., CN=www.mydom.com
        Subject Public Key Info:
            Public Key Algorithm: bign-pubkey
                Public key: FBBF996C86F7F9F27E7E9BD98F2C8E6F0BA83D6FFD2086758697EADC9634AF14DDCED1CF7963FFAED4B71307238922E24461493D35F0454CEA69C2B5B340CD4B
                Parameter set: bign-curve256v1
        X509v3 extensions:
            X509v3 Basic Constraints: 
                CA:FALSE
            Netscape Comment: 
                OpenSSL Generated Certificate
            X509v3 Subject Key Identifier: 
                DB:8C:37:8B:87:AC:3B:4D:23:AF:0D:92:F4:68:FE:06:FF:73:54:66
            X509v3 Authority Key Identifier: 
                keyid:17:C6:C2:C1:02:A7:F7:04:C6:D0:45:C8:3C:09:29:3D:57:24:6B:AC

    Signature Algorithm: bign-with-hbelt
         3a:5d:99:94:8c:78:01:55:0c:e0:05:40:e2:bb:de:04:3c:33:
         5b:20:ce:fc:a5:f2:49:eb:72:42:da:31:c2:11:3c:d8:fd:87:
         99:04:c4:30:11:13:ae:7b:30:41:80:fb
-----BEGIN CERTIFICATE-----
MIICDzCCAcmgAwIBAgICAIMwDQYJKnAAAgAiZS0MBQAwZDEaMBgGA1UEAwwRd3d3
Lm15ZG9tXzM2OS5jb20xFTATBgNVBAoMDE15IERvbSwgSW5jLjELMAkGA1UEBhMC
VVMxDzANBgNVBAgMBk9yZWdvbjERMA8GA1UEBwwIUG9ydGxhbmQwHhcNMTQwOTEx
MDQ1NzQ2WhcNMTUwOTExMDQ1NzQ2WjBNMQswCQYDVQQGEwJVUzEPMA0GA1UECAwG
T3JlZ29uMRUwEwYDVQQKDAxNeSBEb20sIEluYy4xFjAUBgNVBAMMDXd3dy5teWRv
bS5jb20wXTAYBgoqcAACACJlLQIBBgoqcAACACJlLQMBA0EA+7+ZbIb3+fJ+fpvZ
jyyObwuoPW/9IIZ1hpfq3JY0rxTdztHPeWP/rtS3EwcjiSLiRGFJPTXwRUzqacK1
s0DNS6N7MHkwCQYDVR0TBAIwADAsBglghkgBhvhCAQ0EHxYdT3BlblNTTCBHZW5l
cmF0ZWQgQ2VydGlmaWNhdGUwHQYDVR0OBBYEFNuMN4uHrDtNI68NkvRo/gb/c1Rm
MB8GA1UdIwQYMBaAFBfGwsECp/cExtBFyDwJKT1XJGusMA0GCSpwAAIAImUtDAUA
AzEAOl2ZlIx4AVUM4AVA4rveBDwzWyDO/KXySetyQtoxwhE82P2HmQTEMBETrnsw
QYD7
-----END CERTIFICATE-----
