Certificate:
    Data:
        Version: 3 (0x2)
        Serial Number: 132 (0x84)
    Signature Algorithm: bign-with-hbelt
        Issuer: CN=www.mydom_7688.com, O=My Dom, Inc., C=US, ST=Oregon, L=Portland
        Validity
            Not Before: Sep 11 05:06:16 2014 GMT
            Not After : Sep 11 05:06:16 2015 GMT
        Subject: C=US, ST=Oregon, O=My Dom, Inc., CN=www.mydom.com
        Subject Public Key Info:
            Public Key Algorithm: bign-pubkey
                Public key: EAEA90A6B4B844907702B06B1E702E41BC8F4E47A8DE561E9810E8906458476C3B2047752C6A3F7053AD89F81EDB2A53E8B4F38D782F1B75727C3587D425AC33
                Parameter set: bign-curve256v1
        X509v3 extensions:
            X509v3 Basic Constraints: 
                CA:FALSE
            Netscape Comment: 
                OpenSSL Generated Certificate
            X509v3 Subject Key Identifier: 
                D5:CF:81:F2:42:49:95:0C:DF:61:5D:2A:C3:F9:F8:FB:97:66:2B:17
            X509v3 Authority Key Identifier: 
                keyid:4D:94:49:3C:EC:4E:9A:5D:66:A9:1A:E6:AA:02:DC:98:12:7D:AB:E8

    Signature Algorithm: bign-with-hbelt
         c4:d8:8d:c6:63:01:b5:2d:99:26:4f:46:2b:70:3f:85:9e:b5:
         42:e0:ac:ed:75:87:c5:49:c0:ef:f7:a0:4f:0b:e1:90:7b:f6:
         30:a1:02:2d:49:d0:84:a9:c5:2e:34:6a
-----BEGIN CERTIFICATE-----
MIICEDCCAcqgAwIBAgICAIQwDQYJKnAAAgAiZS0MBQAwZTEbMBkGA1UEAwwSd3d3
Lm15ZG9tXzc2ODguY29tMRUwEwYDVQQKDAxNeSBEb20sIEluYy4xCzAJBgNVBAYT
AlVTMQ8wDQYDVQQIDAZPcmVnb24xETAPBgNVBAcMCFBvcnRsYW5kMB4XDTE0MDkx
MTA1MDYxNloXDTE1MDkxMTA1MDYxNlowTTELMAkGA1UEBhMCVVMxDzANBgNVBAgM
Bk9yZWdvbjEVMBMGA1UECgwMTXkgRG9tLCBJbmMuMRYwFAYDVQQDDA13d3cubXlk
b20uY29tMF0wGAYKKnAAAgAiZS0CAQYKKnAAAgAiZS0DAQNBAOrqkKa0uESQdwKw
ax5wLkG8j05HqN5WHpgQ6JBkWEdsOyBHdSxqP3BTrYn4HtsqU+i08414Lxt1cnw1
h9QlrDOjezB5MAkGA1UdEwQCMAAwLAYJYIZIAYb4QgENBB8WHU9wZW5TU0wgR2Vu
ZXJhdGVkIENlcnRpZmljYXRlMB0GA1UdDgQWBBTVz4HyQkmVDN9hXSrD+fj7l2Yr
FzAfBgNVHSMEGDAWgBRNlEk87E6aXWapGuaqAtyYEn2r6DANBgkqcAACACJlLQwF
AAMxAMTYjcZjAbUtmSZPRitwP4WetULgrO11h8VJwO/3oE8L4ZB79jChAi1J0ISp
xS40ag==
-----END CERTIFICATE-----
