Certificate:
    Data:
        Version: 3 (0x2)
        Serial Number: 133 (0x85)
    Signature Algorithm: bign-with-hbelt
        Issuer: CN=www.mydom_566.com, O=My Dom, Inc., C=US, ST=Oregon, L=Portland
        Validity
            Not Before: Sep 11 05:07:57 2014 GMT
            Not After : Sep 11 05:07:57 2015 GMT
        Subject: C=US, ST=Oregon, O=My Dom, Inc., CN=www.mydom.com
        Subject Public Key Info:
            Public Key Algorithm: bign-pubkey
                Public key: 1984E670121A4D4B48FB5B0B80E6090012162E26C90CD6041C989C9371396CD13B926E8A682EEB12A2C6A013930CAB98D72244DB478058EAF3EA5D7B8A35B332
                Parameter set: bign-curve256v1
        X509v3 extensions:
            X509v3 Basic Constraints: 
                CA:FALSE
            Netscape Comment: 
                OpenSSL Generated Certificate
            X509v3 Subject Key Identifier: 
                F0:8E:D4:A5:E9:52:4E:3B:5C:02:69:42:17:48:91:F5:5A:A3:7D:A8
            X509v3 Authority Key Identifier: 
                keyid:A3:DA:8D:1D:39:E5:ED:8F:26:0C:AB:15:63:90:ED:BE:B0:FF:09:24

    Signature Algorithm: bign-with-hbelt
         0a:69:0c:94:1b:1d:42:69:76:ea:46:9e:09:06:43:82:95:f6:
         b0:ed:0c:46:23:3c:cd:e3:b5:52:cc:72:ad:7e:54:f4:d1:42:
         bd:2c:7c:9c:ab:24:df:82:3e:0f:be:7e
-----BEGIN CERTIFICATE-----
MIICDzCCAcmgAwIBAgICAIUwDQYJKnAAAgAiZS0MBQAwZDEaMBgGA1UEAwwRd3d3
Lm15ZG9tXzU2Ni5jb20xFTATBgNVBAoMDE15IERvbSwgSW5jLjELMAkGA1UEBhMC
VVMxDzANBgNVBAgMBk9yZWdvbjERMA8GA1UEBwwIUG9ydGxhbmQwHhcNMTQwOTEx
MDUwNzU3WhcNMTUwOTExMDUwNzU3WjBNMQswCQYDVQQGEwJVUzEPMA0GA1UECAwG
T3JlZ29uMRUwEwYDVQQKDAxNeSBEb20sIEluYy4xFjAUBgNVBAMMDXd3dy5teWRv
bS5jb20wXTAYBgoqcAACACJlLQIBBgoqcAACACJlLQMBA0EAGYTmcBIaTUtI+1sL
gOYJABIWLibJDNYEHJick3E5bNE7km6KaC7rEqLGoBOTDKuY1yJE20eAWOrz6l17
ijWzMqN7MHkwCQYDVR0TBAIwADAsBglghkgBhvhCAQ0EHxYdT3BlblNTTCBHZW5l
cmF0ZWQgQ2VydGlmaWNhdGUwHQYDVR0OBBYEFPCO1KXpUk47XAJpQhdIkfVao32o
MB8GA1UdIwQYMBaAFKPajR055e2PJgyrFWOQ7b6w/wkkMA0GCSpwAAIAImUtDAUA
AzEACmkMlBsdQml26kaeCQZDgpX2sO0MRiM8zeO1UsxyrX5U9NFCvSx8nKsk34I+
D75+
-----END CERTIFICATE-----
