Certificate:
    Data:
        Version: 3 (0x2)
        Serial Number: 134 (0x86)
    Signature Algorithm: bign-with-hbelt
        Issuer: CN=www.mydom_5461.com, O=My Dom, Inc., C=US, ST=Oregon, L=Portland
        Validity
            Not Before: Sep 11 05:08:16 2014 GMT
            Not After : Sep 11 05:08:16 2015 GMT
        Subject: C=US, ST=Oregon, O=My Dom, Inc., CN=www.mydom.com
        Subject Public Key Info:
            Public Key Algorithm: bign-pubkey
                Public key: CD4359F75647D76F05340523A07072D462CE13B77326D25B4F55F84A5A9895C582DED6B6EBE3B5A386A0B46782F43E855949314B90F39C742E4473B15E8923EE
                Parameter set: bign-curve256v1
        X509v3 extensions:
            X509v3 Basic Constraints: 
                CA:FALSE
            Netscape Comment: 
                OpenSSL Generated Certificate
            X509v3 Subject Key Identifier: 
                8D:FD:BB:A9:60:60:A4:C4:1A:2E:29:75:61:A9:BD:23:ED:E7:43:B3
            X509v3 Authority Key Identifier: 
                keyid:86:22:E6:22:22:4A:23:ED:32:6F:46:47:73:DC:8C:B7:CC:DA:C4:71

    Signature Algorithm: bign-with-hbelt
         53:8b:e3:9b:3e:d7:33:9d:91:ac:2f:68:80:30:ed:07:e0:d4:
         b4:5b:7a:44:c1:0d:9c:b0:c4:91:64:7b:37:d6:37:91:7d:16:
         8b:ee:18:ab:94:25:7b:ae:35:ea:ff:b5
-----BEGIN CERTIFICATE-----
MIICEDCCAcqgAwIBAgICAIYwDQYJKnAAAgAiZS0MBQAwZTEbMBkGA1UEAwwSd3d3
Lm15ZG9tXzU0NjEuY29tMRUwEwYDVQQKDAxNeSBEb20sIEluYy4xCzAJBgNVBAYT
AlVTMQ8wDQYDVQQIDAZPcmVnb24xETAPBgNVBAcMCFBvcnRsYW5kMB4XDTE0MDkx
MTA1MDgxNloXDTE1MDkxMTA1MDgxNlowTTELMAkGA1UEBhMCVVMxDzANBgNVBAgM
Bk9yZWdvbjEVMBMGA1UECgwMTXkgRG9tLCBJbmMuMRYwFAYDVQQDDA13d3cubXlk
b20uY29tMF0wGAYKKnAAAgAiZS0CAQYKKnAAAgAiZS0DAQNBAM1DWfdWR9dvBTQF
I6BwctRizhO3cybSW09V+EpamJXFgt7WtuvjtaOGoLRngvQ+hVlJMUuQ85x0LkRz
sV6JI+6jezB5MAkGA1UdEwQCMAAwLAYJYIZIAYb4QgENBB8WHU9wZW5TU0wgR2Vu
ZXJhdGVkIENlcnRpZmljYXRlMB0GA1UdDgQWBBSN/bupYGCkxBouKXVhqb0j7edD
szAfBgNVHSMEGDAWgBSGIuYiIkoj7TJvRkdz3Iy3zNrEcTANBgkqcAACACJlLQwF
AAMxAFOL45s+1zOdkawvaIAw7Qfg1LRbekTBDZywxJFkezfWN5F9FovuGKuUJXuu
Ner/tQ==
-----END CERTIFICATE-----
