Certificate:
    Data:
        Version: 3 (0x2)
        Serial Number: 135 (0x87)
    Signature Algorithm: bign-with-hbelt
        Issuer: CN=www.mydom_4521.com, O=My Dom, Inc., C=US, ST=Oregon, L=Portland
        Validity
            Not Before: Sep 11 05:09:15 2014 GMT
            Not After : Sep 11 05:09:15 2015 GMT
        Subject: C=US, ST=Oregon, O=My Dom, Inc., CN=www.mydom.com
        Subject Public Key Info:
            Public Key Algorithm: bign-pubkey
                Public key: 724B52CD6380BB61BD63D821A4F0BBA981C308392DE3F8AA7E3C4F6471B1630523F0E7082849D2ABD40D1FB71A2B068DFCA31ED68CBB2D7F13F48DCAEEC6D70E
                Parameter set: bign-curve256v1
        X509v3 extensions:
            X509v3 Basic Constraints: 
                CA:FALSE
            Netscape Comment: 
                OpenSSL Generated Certificate
            X509v3 Subject Key Identifier: 
                EE:B0:FF:3A:5B:6E:8B:EE:83:C9:21:0C:F3:F6:FC:AA:58:C1:BD:6D
            X509v3 Authority Key Identifier: 
                keyid:A3:D7:72:82:13:CB:03:6B:1A:0B:F9:C3:73:F6:0F:F0:EA:A5:82:0B

    Signature Algorithm: bign-with-hbelt
         d2:bb:86:3c:1c:fa:c9:0a:44:ca:90:9d:3f:33:80:87:d5:de:
         f1:89:d7:07:ec:4c:3a:88:ae:ae:d8:c8:d7:55:ab:17:cb:0f:
         46:51:21:98:43:21:e5:62:62:46:cd:d5
-----BEGIN CERTIFICATE-----
MIICEDCCAcqgAwIBAgICAIcwDQYJKnAAAgAiZS0MBQAwZTEbMBkGA1UEAwwSd3d3
Lm15ZG9tXzQ1MjEuY29tMRUwEwYDVQQKDAxNeSBEb20sIEluYy4xCzAJBgNVBAYT
AlVTMQ8wDQYDVQQIDAZPcmVnb24xETAPBgNVBAcMCFBvcnRsYW5kMB4XDTE0MDkx
MTA1MDkxNVoXDTE1MDkxMTA1MDkxNVowTTELMAkGA1UEBhMCVVMxDzANBgNVBAgM
Bk9yZWdvbjEVMBMGA1UECgwMTXkgRG9tLCBJbmMuMRYwFAYDVQQDDA13d3cubXlk
b20uY29tMF0wGAYKKnAAAgAiZS0CAQYKKnAAAgAiZS0DAQNBAHJLUs1jgLthvWPY
IaTwu6mBwwg5LeP4qn48T2RxsWMFI/DnCChJ0qvUDR+3GisGjfyjHtaMuy1/E/SN
yu7G1w6jezB5MAkGA1UdEwQCMAAwLAYJYIZIAYb4QgENBB8WHU9wZW5TU0wgR2Vu
ZXJhdGVkIENlcnRpZmljYXRlMB0GA1UdDgQWBBTusP86W26L7oPJIQzz9vyqWMG9
bTAfBgNVHSMEGDAWgBSj13KCE8sDaxoL+cNz9g/w6qWCCzANBgkqcAACACJlLQwF
AAMxANK7hjwc+skKRMqQnT8zgIfV3vGJ1wfsTDqIrq7YyNdVqxfLD0ZRIZhDIeVi
YkbN1Q==
-----END CERTIFICATE-----
