Certificate:
    Data:
        Version: 3 (0x2)
        Serial Number: 136 (0x88)
    Signature Algorithm: bign-with-hbelt
        Issuer: CN=www.mydom_2912.com, O=My Dom, Inc., C=US, ST=Oregon, L=Portland
        Validity
            Not Before: Sep 11 05:14:28 2014 GMT
            Not After : Sep 11 05:14:28 2015 GMT
        Subject: C=US, ST=Oregon, O=My Dom, Inc., CN=www.mydom.com
        Subject Public Key Info:
            Public Key Algorithm: bign-pubkey
                Public key: B6CFCA506604469E3D084A941CE84A719C28C8D0C901A6A64477F77E86804D21E957CB6233E14190589D81455451F910E8189525736BAA9BEE57FADD05033C6D
                Parameter set: bign-curve256v1
        X509v3 extensions:
            X509v3 Basic Constraints: 
                CA:FALSE
            Netscape Comment: 
                OpenSSL Generated Certificate
            X509v3 Subject Key Identifier: 
                5F:BE:15:E9:34:29:64:30:17:D8:4F:92:5E:43:93:85:20:0C:D9:A4
            X509v3 Authority Key Identifier: 
                keyid:17:2A:6D:DB:D1:73:0F:06:A2:6F:14:E6:78:3C:59:AD:EA:C3:18:0E

    Signature Algorithm: bign-with-hbelt
         c0:37:a4:5d:ff:f8:d4:02:20:dc:38:57:81:84:0b:51:f9:81:
         b5:ff:24:4b:fb:8d:02:8f:55:5d:82:23:dc:e7:99:27:c6:1b:
         b2:9e:a9:1a:ef:ab:c6:f2:bf:74:23:7d
-----BEGIN CERTIFICATE-----
MIICEDCCAcqgAwIBAgICAIgwDQYJKnAAAgAiZS0MBQAwZTEbMBkGA1UEAwwSd3d3
Lm15ZG9tXzI5MTIuY29tMRUwEwYDVQQKDAxNeSBEb20sIEluYy4xCzAJBgNVBAYT
AlVTMQ8wDQYDVQQIDAZPcmVnb24xETAPBgNVBAcMCFBvcnRsYW5kMB4XDTE0MDkx
MTA1MTQyOFoXDTE1MDkxMTA1MTQyOFowTTELMAkGA1UEBhMCVVMxDzANBgNVBAgM
Bk9yZWdvbjEVMBMGA1UECgwMTXkgRG9tLCBJbmMuMRYwFAYDVQQDDA13d3cubXlk
b20uY29tMF0wGAYKKnAAAgAiZS0CAQYKKnAAAgAiZS0DAQNBALbPylBmBEaePQhK
lBzoSnGcKMjQyQGmpkR3936GgE0h6VfLYjPhQZBYnYFFVFH5EOgYlSVza6qb7lf6
3QUDPG2jezB5MAkGA1UdEwQCMAAwLAYJYIZIAYb4QgENBB8WHU9wZW5TU0wgR2Vu
ZXJhdGVkIENlcnRpZmljYXRlMB0GA1UdDgQWBBRfvhXpNClkMBfYT5JeQ5OFIAzZ
pDAfBgNVHSMEGDAWgBQXKm3b0XMPBqJvFOZ4PFmt6sMYDjANBgkqcAACACJlLQwF
AAMxAMA3pF3/+NQCINw4V4GEC1H5gbX/JEv7jQKPVV2CI9znmSfGG7KeqRrvq8by
v3QjfQ==
-----END CERTIFICATE-----
