Certificate:
    Data:
        Version: 3 (0x2)
        Serial Number: 137 (0x89)
    Signature Algorithm: bign-with-hbelt
        Issuer: CN=www.mydom_5929.com, O=My Dom, Inc., C=US, ST=Oregon, L=Portland
        Validity
            Not Before: Sep 11 05:16:05 2014 GMT
            Not After : Sep 11 05:16:05 2015 GMT
        Subject: C=US, ST=Oregon, O=My Dom, Inc., CN=www.mydom.com
        Subject Public Key Info:
            Public Key Algorithm: bign-pubkey
                Public key: 30D2DA17DB0BB9630C47E954308D3BF3B074873BE0A793609765FE98C4544C13721729512B9C5A80238CF4D4DB39534D03EF85F8C76EABCA65EA560F3EA2F416
                Parameter set: bign-curve256v1
        X509v3 extensions:
            X509v3 Basic Constraints: 
                CA:FALSE
            Netscape Comment: 
                OpenSSL Generated Certificate
            X509v3 Subject Key Identifier: 
                0C:84:F3:27:C8:93:EF:99:4C:33:62:18:FC:14:14:D7:5A:14:09:02
            X509v3 Authority Key Identifier: 
                keyid:F4:73:0A:94:8D:6C:49:06:6A:78:C6:1F:4A:FB:C0:2E:44:E2:B2:D4

    Signature Algorithm: bign-with-hbelt
         46:5a:89:5d:7a:87:a8:12:24:5c:f5:74:63:c7:85:05:40:89:
         44:62:60:ab:50:07:63:76:79:6f:10:5c:6d:ad:54:72:df:a9:
         5c:72:4d:39:5f:ed:66:f7:4e:ef:6c:6f
-----BEGIN CERTIFICATE-----
MIICEDCCAcqgAwIBAgICAIkwDQYJKnAAAgAiZS0MBQAwZTEbMBkGA1UEAwwSd3d3
Lm15ZG9tXzU5MjkuY29tMRUwEwYDVQQKDAxNeSBEb20sIEluYy4xCzAJBgNVBAYT
AlVTMQ8wDQYDVQQIDAZPcmVnb24xETAPBgNVBAcMCFBvcnRsYW5kMB4XDTE0MDkx
MTA1MTYwNVoXDTE1MDkxMTA1MTYwNVowTTELMAkGA1UEBhMCVVMxDzANBgNVBAgM
Bk9yZWdvbjEVMBMGA1UECgwMTXkgRG9tLCBJbmMuMRYwFAYDVQQDDA13d3cubXlk
b20uY29tMF0wGAYKKnAAAgAiZS0CAQYKKnAAAgAiZS0DAQNBADDS2hfbC7ljDEfp
VDCNO/OwdIc74KeTYJdl/pjEVEwTchcpUSucWoAjjPTU2zlTTQPvhfjHbqvKZepW
Dz6i9BajezB5MAkGA1UdEwQCMAAwLAYJYIZIAYb4QgENBB8WHU9wZW5TU0wgR2Vu
ZXJhdGVkIENlcnRpZmljYXRlMB0GA1UdDgQWBBQMhPMnyJPvmUwzYhj8FBTXWhQJ
AjAfBgNVHSMEGDAWgBT0cwqUjWxJBmp4xh9K+8AuROKy1DANBgkqcAACACJlLQwF
AAMxAEZaiV16h6gSJFz1dGPHhQVAiURiYKtQB2N2eW8QXG2tVHLfqVxyTTlf7Wb3
Tu9sbw==
-----END CERTIFICATE-----
