Certificate:
    Data:
        Version: 3 (0x2)
        Serial Number: 138 (0x8a)
    Signature Algorithm: bign-with-hbelt
        Issuer: CN=www.mydom_9035.com, O=My Dom, Inc., C=US, ST=Oregon, L=Portland
        Validity
            Not Before: Sep 11 05:17:33 2014 GMT
            Not After : Sep 11 05:17:33 2015 GMT
        Subject: C=US, ST=Oregon, O=My Dom, Inc., CN=www.mydom.com
        Subject Public Key Info:
            Public Key Algorithm: bign-pubkey
                Public key: 1C2551528C23AB87015C260BD1F051737E1D427207E6ED0CBBBA36136F6FDFE6A72DE5ABE7E053638002D712B44BFB7BF0181AE3C8E327A8939AAAB9090D48C7
                Parameter set: bign-curve256v1
        X509v3 extensions:
            X509v3 Basic Constraints: 
                CA:FALSE
            Netscape Comment: 
                OpenSSL Generated Certificate
            X509v3 Subject Key Identifier: 
                60:36:1A:B0:E6:1F:E5:7A:B9:EC:C2:8A:51:01:49:E3:37:3B:33:53
            X509v3 Authority Key Identifier: 
                keyid:F1:C5:94:76:91:5B:C8:EB:85:CD:8B:00:BB:80:79:05:62:5C:16:39

    Signature Algorithm: bign-with-hbelt
         21:c1:d5:cb:70:c8:d9:04:95:36:b9:c2:7a:d4:e5:ee:58:a5:
         c3:be:2b:fa:ff:c7:38:a6:43:9b:92:2d:40:b6:ae:ef:1c:94:
         a7:dd:b6:51:eb:10:8f:4a:49:a6:0c:ee
-----BEGIN CERTIFICATE-----
MIICEDCCAcqgAwIBAgICAIowDQYJKnAAAgAiZS0MBQAwZTEbMBkGA1UEAwwSd3d3
Lm15ZG9tXzkwMzUuY29tMRUwEwYDVQQKDAxNeSBEb20sIEluYy4xCzAJBgNVBAYT
AlVTMQ8wDQYDVQQIDAZPcmVnb24xETAPBgNVBAcMCFBvcnRsYW5kMB4XDTE0MDkx
MTA1MTczM1oXDTE1MDkxMTA1MTczM1owTTELMAkGA1UEBhMCVVMxDzANBgNVBAgM
Bk9yZWdvbjEVMBMGA1UECgwMTXkgRG9tLCBJbmMuMRYwFAYDVQQDDA13d3cubXlk
b20uY29tMF0wGAYKKnAAAgAiZS0CAQYKKnAAAgAiZS0DAQNBABwlUVKMI6uHAVwm
C9HwUXN+HUJyB+btDLu6NhNvb9/mpy3lq+fgU2OAAtcStEv7e/AYGuPI4yeok5qq
uQkNSMejezB5MAkGA1UdEwQCMAAwLAYJYIZIAYb4QgENBB8WHU9wZW5TU0wgR2Vu
ZXJhdGVkIENlcnRpZmljYXRlMB0GA1UdDgQWBBRgNhqw5h/lernswopRAUnjNzsz
UzAfBgNVHSMEGDAWgBTxxZR2kVvI64XNiwC7gHkFYlwWOTANBgkqcAACACJlLQwF
AAMxACHB1ctwyNkElTa5wnrU5e5YpcO+K/r/xzimQ5uSLUC2ru8clKfdtlHrEI9K
SaYM7g==
-----END CERTIFICATE-----
