Certificate:
    Data:
        Version: 3 (0x2)
        Serial Number: 139 (0x8b)
    Signature Algorithm: bign-with-hbelt
        Issuer: CN=www.mydom_1813.com, O=My Dom, Inc., C=US, ST=Oregon, L=Portland
        Validity
            Not Before: Sep 11 05:18:36 2014 GMT
            Not After : Sep 11 05:18:36 2015 GMT
        Subject: C=US, ST=Oregon, O=My Dom, Inc., CN=www.mydom.com
        Subject Public Key Info:
            Public Key Algorithm: bign-pubkey
                Public key: 3AFB90C3A446B62ED9C48A154B1F4D93A29D5FCA059794EC08C0EE5CD86338B8B82477222E848DE44868C1B2AB7F28D6B2D3136A3C6A0A0DB035312D4326DAB6
                Parameter set: bign-curve256v1
        X509v3 extensions:
            X509v3 Basic Constraints: 
                CA:FALSE
            Netscape Comment: 
                OpenSSL Generated Certificate
            X509v3 Subject Key Identifier: 
                4F:19:C8:F8:62:15:66:93:53:1F:26:E1:F0:BB:97:B7:2A:1F:ED:A2
            X509v3 Authority Key Identifier: 
                keyid:89:B0:A0:4D:C6:7C:90:D2:EA:B8:BC:5D:46:74:3D:5A:59:91:CE:49

    Signature Algorithm: bign-with-hbelt
         e9:3c:2b:e1:76:b4:5e:4c:20:96:c8:90:fe:fe:90:a4:f9:3c:
         7d:fa:9d:b5:89:e1:a4:f6:7f:c9:ec:db:ac:ca:49:ea:3e:e2:
         a6:fc:90:69:02:a6:96:43:bb:83:35:31
-----BEGIN CERTIFICATE-----
MIICEDCCAcqgAwIBAgICAIswDQYJKnAAAgAiZS0MBQAwZTEbMBkGA1UEAwwSd3d3
Lm15ZG9tXzE4MTMuY29tMRUwEwYDVQQKDAxNeSBEb20sIEluYy4xCzAJBgNVBAYT
AlVTMQ8wDQYDVQQIDAZPcmVnb24xETAPBgNVBAcMCFBvcnRsYW5kMB4XDTE0MDkx
MTA1MTgzNloXDTE1MDkxMTA1MTgzNlowTTELMAkGA1UEBhMCVVMxDzANBgNVBAgM
Bk9yZWdvbjEVMBMGA1UECgwMTXkgRG9tLCBJbmMuMRYwFAYDVQQDDA13d3cubXlk
b20uY29tMF0wGAYKKnAAAgAiZS0CAQYKKnAAAgAiZS0DAQNBADr7kMOkRrYu2cSK
FUsfTZOinV/KBZeU7AjA7lzYYzi4uCR3Ii6EjeRIaMGyq38o1rLTE2o8agoNsDUx
LUMm2rajezB5MAkGA1UdEwQCMAAwLAYJYIZIAYb4QgENBB8WHU9wZW5TU0wgR2Vu
ZXJhdGVkIENlcnRpZmljYXRlMB0GA1UdDgQWBBRPGcj4YhVmk1MfJuHwu5e3Kh/t
ojAfBgNVHSMEGDAWgBSJsKBNxnyQ0uq4vF1GdD1aWZHOSTANBgkqcAACACJlLQwF
AAMxAOk8K+F2tF5MIJbIkP7+kKT5PH36nbWJ4aT2f8ns26zKSeo+4qb8kGkCppZD
u4M1MQ==
-----END CERTIFICATE-----
