Certificate:
    Data:
        Version: 3 (0x2)
        Serial Number: 140 (0x8c)
    Signature Algorithm: bign-with-hbelt
        Issuer: CN=www.mydom_5159.com, O=My Dom, Inc., C=US, ST=Oregon, L=Portland
        Validity
            Not Before: Sep 11 06:15:51 2014 GMT
            Not After : Sep 11 06:15:51 2015 GMT
        Subject: C=US, ST=Oregon, O=My Dom, Inc., CN=www.mydom.com
        Subject Public Key Info:
            Public Key Algorithm: bign-pubkey
                Public key: C2FC083BE9D3C8D0BC92CBA4A4B8AB349248DC1333AEE2D9D88CF5E0F6CA843F32DF0487B78A03A98B12877094DBE48FA3BA865DF68389B8F69F9252E38E8E4E
                Parameter set: bign-curve256v1
        X509v3 extensions:
            X509v3 Basic Constraints: 
                CA:FALSE
            Netscape Comment: 
                OpenSSL Generated Certificate
            X509v3 Subject Key Identifier: 
                58:90:68:4D:38:4C:03:F6:B1:23:06:DE:F5:32:32:B7:05:27:CC:78
            X509v3 Authority Key Identifier: 
                keyid:E4:FC:08:DC:D6:52:43:87:4E:F2:45:0A:CB:AA:55:B9:08:FE:83:4D

    Signature Algorithm: bign-with-hbelt
         eb:73:29:96:a1:b1:ab:33:2d:9a:c9:0f:02:66:90:06:a9:3b:
         e4:83:7b:e6:86:08:a6:c4:b0:a8:b1:91:0c:be:d4:3f:46:8e:
         95:82:51:e7:19:91:4d:be:43:dd:01:c6
-----BEGIN CERTIFICATE-----
MIICEDCCAcqgAwIBAgICAIwwDQYJKnAAAgAiZS0MBQAwZTEbMBkGA1UEAwwSd3d3
Lm15ZG9tXzUxNTkuY29tMRUwEwYDVQQKDAxNeSBEb20sIEluYy4xCzAJBgNVBAYT
AlVTMQ8wDQYDVQQIDAZPcmVnb24xETAPBgNVBAcMCFBvcnRsYW5kMB4XDTE0MDkx
MTA2MTU1MVoXDTE1MDkxMTA2MTU1MVowTTELMAkGA1UEBhMCVVMxDzANBgNVBAgM
Bk9yZWdvbjEVMBMGA1UECgwMTXkgRG9tLCBJbmMuMRYwFAYDVQQDDA13d3cubXlk
b20uY29tMF0wGAYKKnAAAgAiZS0CAQYKKnAAAgAiZS0DAQNBAML8CDvp08jQvJLL
pKS4qzSSSNwTM67i2diM9eD2yoQ/Mt8Eh7eKA6mLEodwlNvkj6O6hl32g4m49p+S
UuOOjk6jezB5MAkGA1UdEwQCMAAwLAYJYIZIAYb4QgENBB8WHU9wZW5TU0wgR2Vu
ZXJhdGVkIENlcnRpZmljYXRlMB0GA1UdDgQWBBRYkGhNOEwD9rEjBt71MjK3BSfM
eDAfBgNVHSMEGDAWgBTk/Ajc1lJDh07yRQrLqlW5CP6DTTANBgkqcAACACJlLQwF
AAMxAOtzKZahsaszLZrJDwJmkAapO+SDe+aGCKbEsKixkQy+1D9GjpWCUecZkU2+
Q90Bxg==
-----END CERTIFICATE-----
