Certificate:
    Data:
        Version: 3 (0x2)
        Serial Number: 141 (0x8d)
    Signature Algorithm: bign-with-hbelt
        Issuer: CN=www.mydom_5628.com, O=My Dom, Inc., C=US, ST=Oregon, L=Portland
        Validity
            Not Before: Sep 11 06:16:16 2014 GMT
            Not After : Sep 11 06:16:16 2015 GMT
        Subject: C=US, ST=Oregon, O=My Dom, Inc., CN=www.mydom.com
        Subject Public Key Info:
            Public Key Algorithm: bign-pubkey
                Public key: 65C37285270E41ECC718F4544108AB5BAD39C5934DD10F8F02F555E9D233FFFF5B4CC038459E233CC827106B6EDC1F8873DC915B4EB7941A790293BCFE5966CC
                Parameter set: bign-curve256v1
        X509v3 extensions:
            X509v3 Basic Constraints: 
                CA:FALSE
            Netscape Comment: 
                OpenSSL Generated Certificate
            X509v3 Subject Key Identifier: 
                34:40:1C:03:AE:BE:92:AE:66:66:44:09:9B:2D:43:A1:35:BE:BA:B5
            X509v3 Authority Key Identifier: 
                keyid:75:37:7E:AB:2D:2B:0B:57:BD:3A:91:0F:42:99:77:39:87:28:FC:07

    Signature Algorithm: bign-with-hbelt
         15:de:e6:70:7a:08:a8:90:ae:8b:33:30:8a:18:2d:50:e8:82:
         ba:63:8e:4e:33:82:7f:da:6d:c7:4f:2a:ce:cf:3a:43:27:d1:
         89:b0:76:b6:b0:76:d2:ff:53:f1:10:86
-----BEGIN CERTIFICATE-----
MIICEDCCAcqgAwIBAgICAI0wDQYJKnAAAgAiZS0MBQAwZTEbMBkGA1UEAwwSd3d3
Lm15ZG9tXzU2MjguY29tMRUwEwYDVQQKDAxNeSBEb20sIEluYy4xCzAJBgNVBAYT
AlVTMQ8wDQYDVQQIDAZPcmVnb24xETAPBgNVBAcMCFBvcnRsYW5kMB4XDTE0MDkx
MTA2MTYxNloXDTE1MDkxMTA2MTYxNlowTTELMAkGA1UEBhMCVVMxDzANBgNVBAgM
Bk9yZWdvbjEVMBMGA1UECgwMTXkgRG9tLCBJbmMuMRYwFAYDVQQDDA13d3cubXlk
b20uY29tMF0wGAYKKnAAAgAiZS0CAQYKKnAAAgAiZS0DAQNBAGXDcoUnDkHsxxj0
VEEIq1utOcWTTdEPjwL1VenSM///W0zAOEWeIzzIJxBrbtwfiHPckVtOt5QaeQKT
vP5ZZsyjezB5MAkGA1UdEwQCMAAwLAYJYIZIAYb4QgENBB8WHU9wZW5TU0wgR2Vu
ZXJhdGVkIENlcnRpZmljYXRlMB0GA1UdDgQWBBQ0QBwDrr6SrmZmRAmbLUOhNb66
tTAfBgNVHSMEGDAWgBR1N36rLSsLV706kQ9CmXc5hyj8BzANBgkqcAACACJlLQwF
AAMxABXe5nB6CKiQroszMIoYLVDogrpjjk4zgn/abcdPKs7POkMn0YmwdrawdtL/
U/EQhg==
-----END CERTIFICATE-----
