Certificate:
    Data:
        Version: 3 (0x2)
        Serial Number: 142 (0x8e)
    Signature Algorithm: bign-with-hbelt
        Issuer: CN=www.mydom_5474.com, O=My Dom, Inc., C=US, ST=Oregon, L=Portland
        Validity
            Not Before: Sep 11 06:17:30 2014 GMT
            Not After : Sep 11 06:17:30 2015 GMT
        Subject: C=US, ST=Oregon, O=My Dom, Inc., CN=www.mydom.com
        Subject Public Key Info:
            Public Key Algorithm: bign-pubkey
                Public key: B05288603875CCE86C406A8DDADE4993C9549432690DC8DEA9AD814A411150C827C5392CECD3E522174061047C6573A91A51EAD5F088CF15EE65AD9D4FAF1D84
                Parameter set: bign-curve256v1
        X509v3 extensions:
            X509v3 Basic Constraints: 
                CA:FALSE
            Netscape Comment: 
                OpenSSL Generated Certificate
            X509v3 Subject Key Identifier: 
                87:F6:B4:D1:3A:59:8B:79:94:F3:36:F0:1E:45:5A:92:80:F5:7C:33
            X509v3 Authority Key Identifier: 
                keyid:30:C6:12:00:0D:A6:73:94:04:EA:D1:CF:44:49:DE:50:C6:12:59:57

    Signature Algorithm: bign-with-hbelt
         94:0f:e4:d6:2d:ed:08:01:6b:31:46:12:cc:e1:05:bb:fb:53:
         b1:e5:cf:9b:64:9a:a2:11:46:c6:62:ef:f9:8f:63:3e:7d:cf:
         17:bb:9f:c3:2d:14:b4:0c:d0:54:47:fa
-----BEGIN CERTIFICATE-----
MIICEDCCAcqgAwIBAgICAI4wDQYJKnAAAgAiZS0MBQAwZTEbMBkGA1UEAwwSd3d3
Lm15ZG9tXzU0NzQuY29tMRUwEwYDVQQKDAxNeSBEb20sIEluYy4xCzAJBgNVBAYT
AlVTMQ8wDQYDVQQIDAZPcmVnb24xETAPBgNVBAcMCFBvcnRsYW5kMB4XDTE0MDkx
MTA2MTczMFoXDTE1MDkxMTA2MTczMFowTTELMAkGA1UEBhMCVVMxDzANBgNVBAgM
Bk9yZWdvbjEVMBMGA1UECgwMTXkgRG9tLCBJbmMuMRYwFAYDVQQDDA13d3cubXlk
b20uY29tMF0wGAYKKnAAAgAiZS0CAQYKKnAAAgAiZS0DAQNBALBSiGA4dczobEBq
jdreSZPJVJQyaQ3I3qmtgUpBEVDIJ8U5LOzT5SIXQGEEfGVzqRpR6tXwiM8V7mWt
nU+vHYSjezB5MAkGA1UdEwQCMAAwLAYJYIZIAYb4QgENBB8WHU9wZW5TU0wgR2Vu
ZXJhdGVkIENlcnRpZmljYXRlMB0GA1UdDgQWBBSH9rTROlmLeZTzNvAeRVqSgPV8
MzAfBgNVHSMEGDAWgBQwxhIADaZzlATq0c9ESd5QxhJZVzANBgkqcAACACJlLQwF
AAMxAJQP5NYt7QgBazFGEszhBbv7U7Hlz5tkmqIRRsZi7/mPYz59zxe7n8MtFLQM
0FRH+g==
-----END CERTIFICATE-----
