Certificate:
    Data:
        Version: 3 (0x2)
        Serial Number: 143 (0x8f)
    Signature Algorithm: bign-with-hbelt
        Issuer: CN=www.mydom_7706.com, O=My Dom, Inc., C=US, ST=Oregon, L=Portland
        Validity
            Not Before: Sep 11 06:18:22 2014 GMT
            Not After : Sep 11 06:18:22 2015 GMT
        Subject: C=US, ST=Oregon, O=My Dom, Inc., CN=www.mydom.com
        Subject Public Key Info:
            Public Key Algorithm: bign-pubkey
                Public key: ECDF01FF5E280E13B18AE824A1EBEF43B34BCF899472974838DD468CD18B61C788F214D5B67904BAAFF532230CB9C6D6A2B62CB5E5CE49304A1DC32FCC89DC97
                Parameter set: bign-curve256v1
        X509v3 extensions:
            X509v3 Basic Constraints: 
                CA:FALSE
            Netscape Comment: 
                OpenSSL Generated Certificate
            X509v3 Subject Key Identifier: 
                E4:1A:B9:EE:C3:99:66:2D:D2:13:C2:E7:4E:80:61:7A:44:E7:30:88
            X509v3 Authority Key Identifier: 
                keyid:1B:1B:4E:95:94:71:A8:F0:D9:66:96:BA:C1:99:6E:9A:0B:88:B0:76

    Signature Algorithm: bign-with-hbelt
         45:ba:fa:b0:ea:ae:63:52:09:18:2c:a2:90:23:ad:8c:f2:f6:
         49:d4:9a:b9:f6:8a:d2:83:f6:f5:63:72:d5:9c:9e:56:99:9a:
         9b:ba:71:fc:64:36:59:4f:a1:35:b4:24
-----BEGIN CERTIFICATE-----
MIICEDCCAcqgAwIBAgICAI8wDQYJKnAAAgAiZS0MBQAwZTEbMBkGA1UEAwwSd3d3
Lm15ZG9tXzc3MDYuY29tMRUwEwYDVQQKDAxNeSBEb20sIEluYy4xCzAJBgNVBAYT
AlVTMQ8wDQYDVQQIDAZPcmVnb24xETAPBgNVBAcMCFBvcnRsYW5kMB4XDTE0MDkx
MTA2MTgyMloXDTE1MDkxMTA2MTgyMlowTTELMAkGA1UEBhMCVVMxDzANBgNVBAgM
Bk9yZWdvbjEVMBMGA1UECgwMTXkgRG9tLCBJbmMuMRYwFAYDVQQDDA13d3cubXlk
b20uY29tMF0wGAYKKnAAAgAiZS0CAQYKKnAAAgAiZS0DAQNBAOzfAf9eKA4TsYro
JKHr70OzS8+JlHKXSDjdRozRi2HHiPIU1bZ5BLqv9TIjDLnG1qK2LLXlzkkwSh3D
L8yJ3JejezB5MAkGA1UdEwQCMAAwLAYJYIZIAYb4QgENBB8WHU9wZW5TU0wgR2Vu
ZXJhdGVkIENlcnRpZmljYXRlMB0GA1UdDgQWBBTkGrnuw5lmLdITwudOgGF6ROcw
iDAfBgNVHSMEGDAWgBQbG06VlHGo8NlmlrrBmW6aC4iwdjANBgkqcAACACJlLQwF
AAMxAEW6+rDqrmNSCRgsopAjrYzy9knUmrn2itKD9vVjctWcnlaZmpu6cfxkNllP
oTW0JA==
-----END CERTIFICATE-----
