Certificate:
    Data:
        Version: 3 (0x2)
        Serial Number: 144 (0x90)
    Signature Algorithm: bign-with-hbelt
        Issuer: CN=www.mydom_5630.com, O=My Dom, Inc., C=US, ST=Oregon, L=Portland
        Validity
            Not Before: Sep 11 06:33:20 2014 GMT
            Not After : Sep 11 06:33:20 2015 GMT
        Subject: C=US, ST=Oregon, O=My Dom, Inc., CN=www.mydom.com
        Subject Public Key Info:
            Public Key Algorithm: bign-pubkey
                Public key: 97ADAF29C2F8621717781547BC17EF56230ACC91B64A83103179DC4D59D8AF0F7C497C0B72CDB39D307999E822D4420C09BF4A8590F801F0462FF7AF5571B4E2
                Parameter set: bign-curve256v1
        X509v3 extensions:
            X509v3 Basic Constraints: 
                CA:FALSE
            Netscape Comment: 
                OpenSSL Generated Certificate
            X509v3 Subject Key Identifier: 
                59:3E:75:C0:EC:F0:C6:37:91:15:DB:81:CF:96:0C:7A:AB:91:BA:26
            X509v3 Authority Key Identifier: 
                keyid:39:BD:D5:CE:05:0C:75:80:34:02:A8:56:13:B3:74:20:09:B2:7A:4B

    Signature Algorithm: bign-with-hbelt
         00:47:ba:84:e6:c5:c5:f1:76:48:98:07:4a:e2:26:2a:1d:27:
         51:82:f5:b6:55:e5:09:89:be:5c:fa:42:e6:09:b9:ed:ab:2f:
         c5:43:16:34:6e:08:8c:2e:c9:6e:5f:32
-----BEGIN CERTIFICATE-----
MIICEDCCAcqgAwIBAgICAJAwDQYJKnAAAgAiZS0MBQAwZTEbMBkGA1UEAwwSd3d3
Lm15ZG9tXzU2MzAuY29tMRUwEwYDVQQKDAxNeSBEb20sIEluYy4xCzAJBgNVBAYT
AlVTMQ8wDQYDVQQIDAZPcmVnb24xETAPBgNVBAcMCFBvcnRsYW5kMB4XDTE0MDkx
MTA2MzMyMFoXDTE1MDkxMTA2MzMyMFowTTELMAkGA1UEBhMCVVMxDzANBgNVBAgM
Bk9yZWdvbjEVMBMGA1UECgwMTXkgRG9tLCBJbmMuMRYwFAYDVQQDDA13d3cubXlk
b20uY29tMF0wGAYKKnAAAgAiZS0CAQYKKnAAAgAiZS0DAQNBAJetrynC+GIXF3gV
R7wX71YjCsyRtkqDEDF53E1Z2K8PfEl8C3LNs50weZnoItRCDAm/SoWQ+AHwRi/3
r1VxtOKjezB5MAkGA1UdEwQCMAAwLAYJYIZIAYb4QgENBB8WHU9wZW5TU0wgR2Vu
ZXJhdGVkIENlcnRpZmljYXRlMB0GA1UdDgQWBBRZPnXA7PDGN5EV24HPlgx6q5G6
JjAfBgNVHSMEGDAWgBQ5vdXOBQx1gDQCqFYTs3QgCbJ6SzANBgkqcAACACJlLQwF
AAMxAABHuoTmxcXxdkiYB0riJiodJ1GC9bZV5QmJvlz6QuYJue2rL8VDFjRuCIwu
yW5fMg==
-----END CERTIFICATE-----
