Certificate:
    Data:
        Version: 3 (0x2)
        Serial Number: 145 (0x91)
    Signature Algorithm: bign-with-hbelt
        Issuer: CN=www.mydom_6600.com, O=My Dom, Inc., C=US, ST=Oregon, L=Portland
        Validity
            Not Before: Sep 11 07:26:14 2014 GMT
            Not After : Sep 11 07:26:14 2015 GMT
        Subject: C=US, ST=Oregon, O=My Dom, Inc., CN=www.mydom.com
        Subject Public Key Info:
            Public Key Algorithm: bign-pubkey
                Public key: CCC420EA90BFBBE7F14190BD94C8956C9DAD5B609EC81AFC87634206CF11347C6AB53D69009B5D700FCA3FA1DCE92D70B7C59B5C0AE3E42A3FC89E3F59025F0E
                Parameter set: bign-curve256v1
        X509v3 extensions:
            X509v3 Basic Constraints: 
                CA:FALSE
            Netscape Comment: 
                OpenSSL Generated Certificate
            X509v3 Subject Key Identifier: 
                52:43:60:0C:04:97:F0:12:C4:A6:1A:44:BF:38:99:C6:43:29:CD:A7
            X509v3 Authority Key Identifier: 
                keyid:C0:75:6D:0D:0F:35:54:35:13:AA:64:4F:DC:C8:BD:B4:EC:0F:E3:A5

    Signature Algorithm: bign-with-hbelt
         67:8e:76:59:3c:e4:14:44:33:6d:64:e1:05:02:51:a4:95:23:
         04:29:c9:87:15:da:b5:cc:75:4b:43:7f:13:78:70:ca:a7:9a:
         4f:3a:86:90:f4:e8:6f:6a:f1:e5:74:46
-----BEGIN CERTIFICATE-----
MIICEDCCAcqgAwIBAgICAJEwDQYJKnAAAgAiZS0MBQAwZTEbMBkGA1UEAwwSd3d3
Lm15ZG9tXzY2MDAuY29tMRUwEwYDVQQKDAxNeSBEb20sIEluYy4xCzAJBgNVBAYT
AlVTMQ8wDQYDVQQIDAZPcmVnb24xETAPBgNVBAcMCFBvcnRsYW5kMB4XDTE0MDkx
MTA3MjYxNFoXDTE1MDkxMTA3MjYxNFowTTELMAkGA1UEBhMCVVMxDzANBgNVBAgM
Bk9yZWdvbjEVMBMGA1UECgwMTXkgRG9tLCBJbmMuMRYwFAYDVQQDDA13d3cubXlk
b20uY29tMF0wGAYKKnAAAgAiZS0CAQYKKnAAAgAiZS0DAQNBAMzEIOqQv7vn8UGQ
vZTIlWydrVtgnsga/IdjQgbPETR8arU9aQCbXXAPyj+h3OktcLfFm1wK4+QqP8ie
P1kCXw6jezB5MAkGA1UdEwQCMAAwLAYJYIZIAYb4QgENBB8WHU9wZW5TU0wgR2Vu
ZXJhdGVkIENlcnRpZmljYXRlMB0GA1UdDgQWBBRSQ2AMBJfwEsSmGkS/OJnGQynN
pzAfBgNVHSMEGDAWgBTAdW0NDzVUNROqZE/cyL207A/jpTANBgkqcAACACJlLQwF
AAMxAGeOdlk85BREM21k4QUCUaSVIwQpyYcV2rXMdUtDfxN4cMqnmk86hpD06G9q
8eV0Rg==
-----END CERTIFICATE-----
