Certificate:
    Data:
        Version: 3 (0x2)
        Serial Number: 146 (0x92)
    Signature Algorithm: bign-with-hbelt
        Issuer: CN=www.mydom_3162.com, O=My Dom, Inc., C=US, ST=Oregon, L=Portland
        Validity
            Not Before: Sep 11 07:26:29 2014 GMT
            Not After : Sep 11 07:26:29 2015 GMT
        Subject: C=US, ST=Oregon, O=My Dom, Inc., CN=www.mydom.com
        Subject Public Key Info:
            Public Key Algorithm: bign-pubkey
                Public key: 5DABC7D886FDEFFF6228093761D67034C86418D56CA8A12AD7FF281DCDE4BA71AC6B1910590719297C4764FAFA162963B6A968B8BF7D2B203E4E4215E035A410
                Parameter set: bign-curve256v1
        X509v3 extensions:
            X509v3 Basic Constraints: 
                CA:FALSE
            Netscape Comment: 
                OpenSSL Generated Certificate
            X509v3 Subject Key Identifier: 
                8C:B0:AE:24:6E:8C:7C:85:F5:BB:AD:F4:84:EC:6F:A5:DC:6A:49:A4
            X509v3 Authority Key Identifier: 
                keyid:EE:2E:F5:25:3D:3F:B2:35:D9:74:5A:CB:8F:B5:08:23:E1:31:60:E8

    Signature Algorithm: bign-with-hbelt
         9f:ea:99:72:a3:0a:88:0b:8b:db:99:07:5f:be:31:d3:a9:1f:
         d1:5f:f6:70:6c:43:27:b7:1c:c0:7e:f3:89:7d:90:e4:d0:93:
         bb:ff:55:4c:f9:4e:42:af:4c:91:e8:ce
-----BEGIN CERTIFICATE-----
MIICEDCCAcqgAwIBAgICAJIwDQYJKnAAAgAiZS0MBQAwZTEbMBkGA1UEAwwSd3d3
Lm15ZG9tXzMxNjIuY29tMRUwEwYDVQQKDAxNeSBEb20sIEluYy4xCzAJBgNVBAYT
AlVTMQ8wDQYDVQQIDAZPcmVnb24xETAPBgNVBAcMCFBvcnRsYW5kMB4XDTE0MDkx
MTA3MjYyOVoXDTE1MDkxMTA3MjYyOVowTTELMAkGA1UEBhMCVVMxDzANBgNVBAgM
Bk9yZWdvbjEVMBMGA1UECgwMTXkgRG9tLCBJbmMuMRYwFAYDVQQDDA13d3cubXlk
b20uY29tMF0wGAYKKnAAAgAiZS0CAQYKKnAAAgAiZS0DAQNBAF2rx9iG/e//YigJ
N2HWcDTIZBjVbKihKtf/KB3N5LpxrGsZEFkHGSl8R2T6+hYpY7apaLi/fSsgPk5C
FeA1pBCjezB5MAkGA1UdEwQCMAAwLAYJYIZIAYb4QgENBB8WHU9wZW5TU0wgR2Vu
ZXJhdGVkIENlcnRpZmljYXRlMB0GA1UdDgQWBBSMsK4kbox8hfW7rfSE7G+l3GpJ
pDAfBgNVHSMEGDAWgBTuLvUlPT+yNdl0WsuPtQgj4TFg6DANBgkqcAACACJlLQwF
AAMxAJ/qmXKjCogLi9uZB1++MdOpH9Ff9nBsQye3HMB+84l9kOTQk7v/VUz5TkKv
TJHozg==
-----END CERTIFICATE-----
