Certificate:
    Data:
        Version: 3 (0x2)
        Serial Number: 147 (0x93)
    Signature Algorithm: bign-with-hbelt
        Issuer: CN=www.mydom_5388.com, O=My Dom, Inc., C=US, ST=Oregon, L=Portland
        Validity
            Not Before: Sep 11 07:27:52 2014 GMT
            Not After : Sep 11 07:27:52 2015 GMT
        Subject: C=US, ST=Oregon, O=My Dom, Inc., CN=www.mydom.com
        Subject Public Key Info:
            Public Key Algorithm: bign-pubkey
                Public key: F81ACEFBDCAEB71BB06C28D18E39AB86F8070ED32E0502CAFA9C234527BDB5EA317C23230FBBCB862CA46FCC7FA685BD8B0E3417B1A781C0DADBE709E82838B2
                Parameter set: bign-curve256v1
        X509v3 extensions:
            X509v3 Basic Constraints: 
                CA:FALSE
            Netscape Comment: 
                OpenSSL Generated Certificate
            X509v3 Subject Key Identifier: 
                87:D3:49:46:46:0D:39:B7:59:A2:87:EF:B7:EA:70:67:41:A1:C3:D9
            X509v3 Authority Key Identifier: 
                keyid:0D:A9:43:A6:75:6B:EA:EA:1C:C9:D3:59:94:06:03:B1:2F:58:07:54

    Signature Algorithm: bign-with-hbelt
         14:d1:0f:29:a2:22:4b:3e:d7:5c:b6:39:8a:1c:95:a2:17:46:
         bc:99:76:f0:67:33:67:51:eb:75:96:87:d3:0f:24:80:de:8c:
         fe:31:06:ef:eb:ac:70:1a:98:08:11:91
-----BEGIN CERTIFICATE-----
MIICEDCCAcqgAwIBAgICAJMwDQYJKnAAAgAiZS0MBQAwZTEbMBkGA1UEAwwSd3d3
Lm15ZG9tXzUzODguY29tMRUwEwYDVQQKDAxNeSBEb20sIEluYy4xCzAJBgNVBAYT
AlVTMQ8wDQYDVQQIDAZPcmVnb24xETAPBgNVBAcMCFBvcnRsYW5kMB4XDTE0MDkx
MTA3Mjc1MloXDTE1MDkxMTA3Mjc1MlowTTELMAkGA1UEBhMCVVMxDzANBgNVBAgM
Bk9yZWdvbjEVMBMGA1UECgwMTXkgRG9tLCBJbmMuMRYwFAYDVQQDDA13d3cubXlk
b20uY29tMF0wGAYKKnAAAgAiZS0CAQYKKnAAAgAiZS0DAQNBAPgazvvcrrcbsGwo
0Y45q4b4Bw7TLgUCyvqcI0UnvbXqMXwjIw+7y4YspG/Mf6aFvYsONBexp4HA2tvn
CegoOLKjezB5MAkGA1UdEwQCMAAwLAYJYIZIAYb4QgENBB8WHU9wZW5TU0wgR2Vu
ZXJhdGVkIENlcnRpZmljYXRlMB0GA1UdDgQWBBSH00lGRg05t1mih++36nBnQaHD
2TAfBgNVHSMEGDAWgBQNqUOmdWvq6hzJ01mUBgOxL1gHVDANBgkqcAACACJlLQwF
AAMxABTRDymiIks+11y2OYoclaIXRryZdvBnM2dR63WWh9MPJIDejP4xBu/rrHAa
mAgRkQ==
-----END CERTIFICATE-----
