Certificate:
    Data:
        Version: 3 (0x2)
        Serial Number: 148 (0x94)
    Signature Algorithm: bign-with-hbelt
        Issuer: CN=www.mydom_4717.com, O=My Dom, Inc., C=US, ST=Oregon, L=Portland
        Validity
            Not Before: Sep 11 07:29:47 2014 GMT
            Not After : Sep 11 07:29:47 2015 GMT
        Subject: C=US, ST=Oregon, O=My Dom, Inc., CN=www.mydom.com
        Subject Public Key Info:
            Public Key Algorithm: bign-pubkey
                Public key: 40C7AF15911AB6AC1866B6A40B796C0BFFCA5132D95EC351AF880C78E19FF578CE451DD6509E39A1DAE39BC59587EBD1BA597156E44F0EC0982EE65583EC74E2
                Parameter set: bign-curve256v1
        X509v3 extensions:
            X509v3 Basic Constraints: 
                CA:FALSE
            Netscape Comment: 
                OpenSSL Generated Certificate
            X509v3 Subject Key Identifier: 
                2F:F4:C4:86:1D:33:75:D0:A7:E7:CB:02:4D:D8:F8:E0:1E:C4:46:A6
            X509v3 Authority Key Identifier: 
                keyid:E5:A4:C1:63:96:ED:E6:E9:11:67:6C:76:11:79:BD:D1:19:7C:D3:27

    Signature Algorithm: bign-with-hbelt
         42:21:57:dd:52:e2:a6:f6:24:b2:4a:49:12:5c:86:67:a2:95:
         e7:22:24:72:7b:56:b7:12:3b:fb:2d:34:f1:51:91:34:ed:6c:
         bf:0a:f9:a6:17:c3:d1:48:a1:8c:dd:3b
-----BEGIN CERTIFICATE-----
MIICEDCCAcqgAwIBAgICAJQwDQYJKnAAAgAiZS0MBQAwZTEbMBkGA1UEAwwSd3d3
Lm15ZG9tXzQ3MTcuY29tMRUwEwYDVQQKDAxNeSBEb20sIEluYy4xCzAJBgNVBAYT
AlVTMQ8wDQYDVQQIDAZPcmVnb24xETAPBgNVBAcMCFBvcnRsYW5kMB4XDTE0MDkx
MTA3Mjk0N1oXDTE1MDkxMTA3Mjk0N1owTTELMAkGA1UEBhMCVVMxDzANBgNVBAgM
Bk9yZWdvbjEVMBMGA1UECgwMTXkgRG9tLCBJbmMuMRYwFAYDVQQDDA13d3cubXlk
b20uY29tMF0wGAYKKnAAAgAiZS0CAQYKKnAAAgAiZS0DAQNBAEDHrxWRGrasGGa2
pAt5bAv/ylEy2V7DUa+IDHjhn/V4zkUd1lCeOaHa45vFlYfr0bpZcVbkTw7AmC7m
VYPsdOKjezB5MAkGA1UdEwQCMAAwLAYJYIZIAYb4QgENBB8WHU9wZW5TU0wgR2Vu
ZXJhdGVkIENlcnRpZmljYXRlMB0GA1UdDgQWBBQv9MSGHTN10KfnywJN2PjgHsRG
pjAfBgNVHSMEGDAWgBTlpMFjlu3m6RFnbHYReb3RGXzTJzANBgkqcAACACJlLQwF
AAMxAEIhV91S4qb2JLJKSRJchmeileciJHJ7VrcSO/stNPFRkTTtbL8K+aYXw9FI
oYzdOw==
-----END CERTIFICATE-----
