Certificate:
    Data:
        Version: 3 (0x2)
        Serial Number: 149 (0x95)
    Signature Algorithm: bign-with-hbelt
        Issuer: CN=www.mydom_8295.com, O=My Dom, Inc., C=US, ST=Oregon, L=Portland
        Validity
            Not Before: Sep 11 07:29:57 2014 GMT
            Not After : Sep 11 07:29:57 2015 GMT
        Subject: C=US, ST=Oregon, O=My Dom, Inc., CN=www.mydom.com
        Subject Public Key Info:
            Public Key Algorithm: bign-pubkey
                Public key: 830F985C9F7EDC4B27EC57D8FAEBB143F68E194A3786323A4FBE85D2F2752B25D903C4A61C6E9AAA62E4C5AC456FC4FDF7A3FA6675287BE2E68272667C01C8BC
                Parameter set: bign-curve256v1
        X509v3 extensions:
            X509v3 Basic Constraints: 
                CA:FALSE
            Netscape Comment: 
                OpenSSL Generated Certificate
            X509v3 Subject Key Identifier: 
                6A:A1:08:0C:4E:3B:6E:E6:AA:A4:23:2F:30:7E:1C:99:66:FA:62:DE
            X509v3 Authority Key Identifier: 
                keyid:94:C1:0D:1B:3F:6C:64:49:DD:81:46:DA:9A:1D:9C:6C:77:56:19:E4

    Signature Algorithm: bign-with-hbelt
         6d:d1:1e:7a:c1:1d:9a:d7:06:66:b6:21:5b:8a:f7:78:f9:ae:
         b0:4c:f5:be:aa:4a:d2:63:36:da:f9:e9:cd:d0:58:4c:8b:2b:
         28:f1:b5:a1:96:4c:7b:95:47:2c:2b:4c
-----BEGIN CERTIFICATE-----
MIICEDCCAcqgAwIBAgICAJUwDQYJKnAAAgAiZS0MBQAwZTEbMBkGA1UEAwwSd3d3
Lm15ZG9tXzgyOTUuY29tMRUwEwYDVQQKDAxNeSBEb20sIEluYy4xCzAJBgNVBAYT
AlVTMQ8wDQYDVQQIDAZPcmVnb24xETAPBgNVBAcMCFBvcnRsYW5kMB4XDTE0MDkx
MTA3Mjk1N1oXDTE1MDkxMTA3Mjk1N1owTTELMAkGA1UEBhMCVVMxDzANBgNVBAgM
Bk9yZWdvbjEVMBMGA1UECgwMTXkgRG9tLCBJbmMuMRYwFAYDVQQDDA13d3cubXlk
b20uY29tMF0wGAYKKnAAAgAiZS0CAQYKKnAAAgAiZS0DAQNBAIMPmFyfftxLJ+xX
2PrrsUP2jhlKN4YyOk++hdLydSsl2QPEphxumqpi5MWsRW/E/fej+mZ1KHvi5oJy
ZnwByLyjezB5MAkGA1UdEwQCMAAwLAYJYIZIAYb4QgENBB8WHU9wZW5TU0wgR2Vu
ZXJhdGVkIENlcnRpZmljYXRlMB0GA1UdDgQWBBRqoQgMTjtu5qqkIy8wfhyZZvpi
3jAfBgNVHSMEGDAWgBSUwQ0bP2xkSd2BRtqaHZxsd1YZ5DANBgkqcAACACJlLQwF
AAMxAG3RHnrBHZrXBma2IVuK93j5rrBM9b6qStJjNtr56c3QWEyLKyjxtaGWTHuV
RywrTA==
-----END CERTIFICATE-----
