Certificate:
    Data:
        Version: 3 (0x2)
        Serial Number: 150 (0x96)
    Signature Algorithm: bign-with-hbelt
        Issuer: CN=www.mydom_397.com, O=My Dom, Inc., C=US, ST=Oregon, L=Portland
        Validity
            Not Before: Sep 11 07:30:42 2014 GMT
            Not After : Sep 11 07:30:42 2015 GMT
        Subject: C=US, ST=Oregon, O=My Dom, Inc., CN=www.mydom.com
        Subject Public Key Info:
            Public Key Algorithm: bign-pubkey
                Public key: 6C65C96C93B775BBE2C0AA52840E281DD39DBC083DC79A2187F03846512864F31BD50E51D9E420E0021F1E9A91560CB620E82CA71A5ADBEE278FB6F2ECD98B54
                Parameter set: bign-curve256v1
        X509v3 extensions:
            X509v3 Basic Constraints: 
                CA:FALSE
            Netscape Comment: 
                OpenSSL Generated Certificate
            X509v3 Subject Key Identifier: 
                4C:A6:EE:D7:51:33:69:60:26:E3:DE:FC:23:42:ED:FE:93:DA:98:1D
            X509v3 Authority Key Identifier: 
                keyid:0C:81:34:98:E4:B9:02:FE:71:D1:47:89:DF:D8:33:E0:6F:03:DB:44

    Signature Algorithm: bign-with-hbelt
         31:fe:45:cc:07:b8:3b:06:da:6d:7d:29:67:b4:88:a5:dc:5d:
         67:9c:bd:8a:77:be:04:79:c5:01:21:41:0c:28:55:62:c5:80:
         72:15:59:70:af:04:ac:ac:f3:f1:f6:c6
-----BEGIN CERTIFICATE-----
MIICDzCCAcmgAwIBAgICAJYwDQYJKnAAAgAiZS0MBQAwZDEaMBgGA1UEAwwRd3d3
Lm15ZG9tXzM5Ny5jb20xFTATBgNVBAoMDE15IERvbSwgSW5jLjELMAkGA1UEBhMC
VVMxDzANBgNVBAgMBk9yZWdvbjERMA8GA1UEBwwIUG9ydGxhbmQwHhcNMTQwOTEx
MDczMDQyWhcNMTUwOTExMDczMDQyWjBNMQswCQYDVQQGEwJVUzEPMA0GA1UECAwG
T3JlZ29uMRUwEwYDVQQKDAxNeSBEb20sIEluYy4xFjAUBgNVBAMMDXd3dy5teWRv
bS5jb20wXTAYBgoqcAACACJlLQIBBgoqcAACACJlLQMBA0EAbGXJbJO3dbviwKpS
hA4oHdOdvAg9x5ohh/A4RlEoZPMb1Q5R2eQg4AIfHpqRVgy2IOgspxpa2+4nj7by
7NmLVKN7MHkwCQYDVR0TBAIwADAsBglghkgBhvhCAQ0EHxYdT3BlblNTTCBHZW5l
cmF0ZWQgQ2VydGlmaWNhdGUwHQYDVR0OBBYEFEym7tdRM2lgJuPe/CNC7f6T2pgd
MB8GA1UdIwQYMBaAFAyBNJjkuQL+cdFHid/YM+BvA9tEMA0GCSpwAAIAImUtDAUA
AzEAMf5FzAe4OwbabX0pZ7SIpdxdZ5y9ine+BHnFASFBDChVYsWAchVZcK8ErKzz
8fbG
-----END CERTIFICATE-----
