Certificate:
    Data:
        Version: 3 (0x2)
        Serial Number: 151 (0x97)
    Signature Algorithm: bign-with-hbelt
        Issuer: CN=www.mydom_1088.com, O=My Dom, Inc., C=US, ST=Oregon, L=Portland
        Validity
            Not Before: Sep 11 07:35:10 2014 GMT
            Not After : Sep 11 07:35:10 2015 GMT
        Subject: C=US, ST=Oregon, O=My Dom, Inc., CN=www.mydom.com
        Subject Public Key Info:
            Public Key Algorithm: bign-pubkey
                Public key: AECA59DEEABC1A1D1A6AA40F29061F02C921A4149A6FCDF909FD07666DCBC8A7334076A2C1E652AEFE07EB26EA07C37E527C67AAEE11A3E94447156F399C4B8A
                Parameter set: bign-curve256v1
        X509v3 extensions:
            X509v3 Basic Constraints: 
                CA:FALSE
            Netscape Comment: 
                OpenSSL Generated Certificate
            X509v3 Subject Key Identifier: 
                FD:3D:E9:3F:8E:84:94:CC:83:84:74:62:B3:EB:C1:41:01:67:D7:1A
            X509v3 Authority Key Identifier: 
                keyid:E5:22:AB:E5:9B:9E:99:CA:09:BA:06:DA:B6:2B:CD:71:04:C0:15:DE

    Signature Algorithm: bign-with-hbelt
         93:f4:56:35:29:27:a5:94:de:8a:81:44:22:c2:be:bc:f5:ac:
         e2:70:bd:5c:e7:f4:0e:b5:b6:c1:cb:b2:27:d6:ed:fd:61:fb:
         55:bc:3b:08:58:86:4d:ee:70:86:59:01
-----BEGIN CERTIFICATE-----
MIICEDCCAcqgAwIBAgICAJcwDQYJKnAAAgAiZS0MBQAwZTEbMBkGA1UEAwwSd3d3
Lm15ZG9tXzEwODguY29tMRUwEwYDVQQKDAxNeSBEb20sIEluYy4xCzAJBgNVBAYT
AlVTMQ8wDQYDVQQIDAZPcmVnb24xETAPBgNVBAcMCFBvcnRsYW5kMB4XDTE0MDkx
MTA3MzUxMFoXDTE1MDkxMTA3MzUxMFowTTELMAkGA1UEBhMCVVMxDzANBgNVBAgM
Bk9yZWdvbjEVMBMGA1UECgwMTXkgRG9tLCBJbmMuMRYwFAYDVQQDDA13d3cubXlk
b20uY29tMF0wGAYKKnAAAgAiZS0CAQYKKnAAAgAiZS0DAQNBAK7KWd7qvBodGmqk
DykGHwLJIaQUmm/N+Qn9B2Zty8inM0B2osHmUq7+B+sm6gfDflJ8Z6ruEaPpREcV
bzmcS4qjezB5MAkGA1UdEwQCMAAwLAYJYIZIAYb4QgENBB8WHU9wZW5TU0wgR2Vu
ZXJhdGVkIENlcnRpZmljYXRlMB0GA1UdDgQWBBT9Pek/joSUzIOEdGKz68FBAWfX
GjAfBgNVHSMEGDAWgBTlIqvlm56Zygm6Btq2K81xBMAV3jANBgkqcAACACJlLQwF
AAMxAJP0VjUpJ6WU3oqBRCLCvrz1rOJwvVzn9A61tsHLsifW7f1h+1W8OwhYhk3u
cIZZAQ==
-----END CERTIFICATE-----
