Certificate:
    Data:
        Version: 3 (0x2)
        Serial Number: 153 (0x99)
    Signature Algorithm: bign-with-hbelt
        Issuer: CN=www.mydom_7137.com, O=My Dom, Inc., C=US, ST=Oregon, L=Portland
        Validity
            Not Before: Sep 11 07:35:11 2014 GMT
            Not After : Sep 11 07:35:11 2015 GMT
        Subject: C=US, ST=Oregon, O=My Dom, Inc., CN=www.mydom.com
        Subject Public Key Info:
            Public Key Algorithm: bign-pubkey
                Public key: 26447142FB1B189A1B6787D6A31E6BFB581D2721246CAA1B773C5077D7854D0468C129B2D0CB5D243D58ABB514721CD0F99A98A2C11CC821671060F9F11175FF
                Parameter set: bign-curve256v1
        X509v3 extensions:
            X509v3 Basic Constraints: 
                CA:FALSE
            Netscape Comment: 
                OpenSSL Generated Certificate
            X509v3 Subject Key Identifier: 
                9F:90:D3:0E:74:69:2B:CC:CC:0A:2A:D5:E2:92:08:F2:9D:12:31:EE
            X509v3 Authority Key Identifier: 
                keyid:D8:28:76:AC:AC:1D:7B:D2:D8:51:D7:66:D2:0E:9E:22:61:1D:C5:2E

    Signature Algorithm: bign-with-hbelt
         26:15:57:c4:2f:85:9b:3c:1b:51:15:f0:4f:64:23:87:99:1d:
         29:90:c8:28:2b:5b:3f:f5:ae:5b:82:14:35:c7:b6:e5:d8:1c:
         87:8e:7d:88:aa:94:c5:a9:92:6a:dd:09
-----BEGIN CERTIFICATE-----
MIICEDCCAcqgAwIBAgICAJkwDQYJKnAAAgAiZS0MBQAwZTEbMBkGA1UEAwwSd3d3
Lm15ZG9tXzcxMzcuY29tMRUwEwYDVQQKDAxNeSBEb20sIEluYy4xCzAJBgNVBAYT
AlVTMQ8wDQYDVQQIDAZPcmVnb24xETAPBgNVBAcMCFBvcnRsYW5kMB4XDTE0MDkx
MTA3MzUxMVoXDTE1MDkxMTA3MzUxMVowTTELMAkGA1UEBhMCVVMxDzANBgNVBAgM
Bk9yZWdvbjEVMBMGA1UECgwMTXkgRG9tLCBJbmMuMRYwFAYDVQQDDA13d3cubXlk
b20uY29tMF0wGAYKKnAAAgAiZS0CAQYKKnAAAgAiZS0DAQNBACZEcUL7GxiaG2eH
1qMea/tYHSchJGyqG3c8UHfXhU0EaMEpstDLXSQ9WKu1FHIc0PmamKLBHMghZxBg
+fERdf+jezB5MAkGA1UdEwQCMAAwLAYJYIZIAYb4QgENBB8WHU9wZW5TU0wgR2Vu
ZXJhdGVkIENlcnRpZmljYXRlMB0GA1UdDgQWBBSfkNMOdGkrzMwKKtXikgjynRIx
7jAfBgNVHSMEGDAWgBTYKHasrB170thR12bSDp4iYR3FLjANBgkqcAACACJlLQwF
AAMxACYVV8QvhZs8G1EV8E9kI4eZHSmQyCgrWz/1rluCFDXHtuXYHIeOfYiqlMWp
kmrdCQ==
-----END CERTIFICATE-----
