Certificate:
    Data:
        Version: 3 (0x2)
        Serial Number: 154 (0x9a)
    Signature Algorithm: bign-with-hbelt
        Issuer: CN=www.mydom_1010.com, O=My Dom, Inc., C=US, ST=Oregon, L=Portland
        Validity
            Not Before: Sep 11 07:55:46 2014 GMT
            Not After : Sep 11 07:55:46 2015 GMT
        Subject: C=US, ST=Oregon, O=My Dom, Inc., CN=www.mydom.com
        Subject Public Key Info:
            Public Key Algorithm: bign-pubkey
                Public key: 4F1B0EB45A0E0BD7ABB7E7219D421A0ABBD76926153C6905076AFF46F659DC1CC9D17CA4E2043291138805B56A0593C7A276F932A63C7335067AEFA23DA39736
                Parameter set: bign-curve256v1
        X509v3 extensions:
            X509v3 Basic Constraints: 
                CA:FALSE
            Netscape Comment: 
                OpenSSL Generated Certificate
            X509v3 Subject Key Identifier: 
                1F:0C:4A:0D:1A:F1:89:DB:6C:3E:54:3C:DE:A6:D9:1F:17:81:D3:23
            X509v3 Authority Key Identifier: 
                keyid:7F:B6:5B:FB:E6:DD:38:A2:E6:EC:3E:01:49:8D:A0:13:98:06:0B:15

    Signature Algorithm: bign-with-hbelt
         82:1d:f8:f5:67:62:f2:35:46:c9:2b:91:76:92:96:21:95:b6:
         a3:ed:d4:c1:67:46:ab:bf:65:5d:e4:7b:9c:4b:95:1f:8d:b8:
         ea:fb:be:7e:31:62:96:6d:99:51:d8:21
-----BEGIN CERTIFICATE-----
MIICEDCCAcqgAwIBAgICAJowDQYJKnAAAgAiZS0MBQAwZTEbMBkGA1UEAwwSd3d3
Lm15ZG9tXzEwMTAuY29tMRUwEwYDVQQKDAxNeSBEb20sIEluYy4xCzAJBgNVBAYT
AlVTMQ8wDQYDVQQIDAZPcmVnb24xETAPBgNVBAcMCFBvcnRsYW5kMB4XDTE0MDkx
MTA3NTU0NloXDTE1MDkxMTA3NTU0NlowTTELMAkGA1UEBhMCVVMxDzANBgNVBAgM
Bk9yZWdvbjEVMBMGA1UECgwMTXkgRG9tLCBJbmMuMRYwFAYDVQQDDA13d3cubXlk
b20uY29tMF0wGAYKKnAAAgAiZS0CAQYKKnAAAgAiZS0DAQNBAE8bDrRaDgvXq7fn
IZ1CGgq712kmFTxpBQdq/0b2WdwcydF8pOIEMpETiAW1agWTx6J2+TKmPHM1Bnrv
oj2jlzajezB5MAkGA1UdEwQCMAAwLAYJYIZIAYb4QgENBB8WHU9wZW5TU0wgR2Vu
ZXJhdGVkIENlcnRpZmljYXRlMB0GA1UdDgQWBBQfDEoNGvGJ22w+VDzeptkfF4HT
IzAfBgNVHSMEGDAWgBR/tlv75t04oubsPgFJjaATmAYLFTANBgkqcAACACJlLQwF
AAMxAIId+PVnYvI1RskrkXaSliGVtqPt1MFnRqu/ZV3ke5xLlR+NuOr7vn4xYpZt
mVHYIQ==
-----END CERTIFICATE-----
