Certificate:
    Data:
        Version: 3 (0x2)
        Serial Number: 155 (0x9b)
    Signature Algorithm: bign-with-hbelt
        Issuer: CN=www.mydom_562.com, O=My Dom, Inc., C=US, ST=Oregon, L=Portland
        Validity
            Not Before: Sep 11 09:02:04 2014 GMT
            Not After : Sep 11 09:02:04 2015 GMT
        Subject: C=US, ST=Oregon, O=My Dom, Inc., CN=www.mydom.com
        Subject Public Key Info:
            Public Key Algorithm: bign-pubkey
                Public key: C69D1C4F476FD079E739416E40C27301A801DE0024AEA59A2EF1DE24C48459F280B01D48BC5B846128365CFE1706DC27043DB86BABC4BC061AFF6766AAD25CDA
                Parameter set: bign-curve256v1
        X509v3 extensions:
            X509v3 Basic Constraints: 
                CA:FALSE
            Netscape Comment: 
                OpenSSL Generated Certificate
            X509v3 Subject Key Identifier: 
                4C:77:3E:9B:EE:3B:5E:33:B0:29:F2:01:C4:F2:D0:72:60:2C:34:78
            X509v3 Authority Key Identifier: 
                keyid:7E:C8:6A:7F:32:92:A3:BB:D2:99:9D:DB:52:D6:69:A5:82:8C:2F:98

    Signature Algorithm: bign-with-hbelt
         be:bd:e0:79:25:46:d2:97:4f:0d:0b:64:36:75:22:7e:17:9a:
         35:57:4b:e2:7a:db:2d:03:94:47:24:89:2a:25:cb:eb:9d:c7:
         df:7f:8b:95:8b:f2:da:d9:59:5d:86:01
-----BEGIN CERTIFICATE-----
MIICDzCCAcmgAwIBAgICAJswDQYJKnAAAgAiZS0MBQAwZDEaMBgGA1UEAwwRd3d3
Lm15ZG9tXzU2Mi5jb20xFTATBgNVBAoMDE15IERvbSwgSW5jLjELMAkGA1UEBhMC
VVMxDzANBgNVBAgMBk9yZWdvbjERMA8GA1UEBwwIUG9ydGxhbmQwHhcNMTQwOTEx
MDkwMjA0WhcNMTUwOTExMDkwMjA0WjBNMQswCQYDVQQGEwJVUzEPMA0GA1UECAwG
T3JlZ29uMRUwEwYDVQQKDAxNeSBEb20sIEluYy4xFjAUBgNVBAMMDXd3dy5teWRv
bS5jb20wXTAYBgoqcAACACJlLQIBBgoqcAACACJlLQMBA0EAxp0cT0dv0HnnOUFu
QMJzAagB3gAkrqWaLvHeJMSEWfKAsB1IvFuEYSg2XP4XBtwnBD24a6vEvAYa/2dm
qtJc2qN7MHkwCQYDVR0TBAIwADAsBglghkgBhvhCAQ0EHxYdT3BlblNTTCBHZW5l
cmF0ZWQgQ2VydGlmaWNhdGUwHQYDVR0OBBYEFEx3PpvuO14zsCnyAcTy0HJgLDR4
MB8GA1UdIwQYMBaAFH7Ian8ykqO70pmd21LWaaWCjC+YMA0GCSpwAAIAImUtDAUA
AzEAvr3geSVG0pdPDQtkNnUifheaNVdL4nrbLQOURySJKiXL653H33+LlYvy2tlZ
XYYB
-----END CERTIFICATE-----
