Certificate:
    Data:
        Version: 3 (0x2)
        Serial Number: 156 (0x9c)
    Signature Algorithm: bign-with-hbelt
        Issuer: CN=www.mydom_3193.com, O=My Dom, Inc., C=US, ST=Oregon, L=Portland
        Validity
            Not Before: Sep 11 09:03:52 2014 GMT
            Not After : Sep 11 09:03:52 2015 GMT
        Subject: C=US, ST=Oregon, O=My Dom, Inc., CN=www.mydom.com
        Subject Public Key Info:
            Public Key Algorithm: bign-pubkey
                Public key: A33641BBD8F87C899557A6147A7B3E0B8E7CAF3ACE02B2F6B0F1728710D769D9E97D8CBFC419250B9EA9422618A3EEE58855AB1281E70D037BECD38A94057EAC
                Parameter set: bign-curve256v1
        X509v3 extensions:
            X509v3 Basic Constraints: 
                CA:FALSE
            Netscape Comment: 
                OpenSSL Generated Certificate
            X509v3 Subject Key Identifier: 
                6F:AC:92:CB:F7:8D:F2:22:26:A4:5B:81:87:64:E4:07:44:CD:C8:C3
            X509v3 Authority Key Identifier: 
                keyid:DD:91:C2:1C:91:8F:76:4D:64:B4:12:6C:0A:F0:24:61:6E:63:D2:6B

    Signature Algorithm: bign-with-hbelt
         23:d1:5a:94:da:d4:6f:c0:43:ec:f9:03:cd:1f:84:98:25:90:
         70:95:d8:50:32:b0:d1:74:d7:13:a2:dc:03:36:8d:12:29:68:
         aa:07:ad:6f:b9:ca:04:e2:5b:d9:33:7c
-----BEGIN CERTIFICATE-----
MIICEDCCAcqgAwIBAgICAJwwDQYJKnAAAgAiZS0MBQAwZTEbMBkGA1UEAwwSd3d3
Lm15ZG9tXzMxOTMuY29tMRUwEwYDVQQKDAxNeSBEb20sIEluYy4xCzAJBgNVBAYT
AlVTMQ8wDQYDVQQIDAZPcmVnb24xETAPBgNVBAcMCFBvcnRsYW5kMB4XDTE0MDkx
MTA5MDM1MloXDTE1MDkxMTA5MDM1MlowTTELMAkGA1UEBhMCVVMxDzANBgNVBAgM
Bk9yZWdvbjEVMBMGA1UECgwMTXkgRG9tLCBJbmMuMRYwFAYDVQQDDA13d3cubXlk
b20uY29tMF0wGAYKKnAAAgAiZS0CAQYKKnAAAgAiZS0DAQNBAKM2QbvY+HyJlVem
FHp7PguOfK86zgKy9rDxcocQ12nZ6X2Mv8QZJQueqUImGKPu5YhVqxKB5w0De+zT
ipQFfqyjezB5MAkGA1UdEwQCMAAwLAYJYIZIAYb4QgENBB8WHU9wZW5TU0wgR2Vu
ZXJhdGVkIENlcnRpZmljYXRlMB0GA1UdDgQWBBRvrJLL943yIiakW4GHZOQHRM3I
wzAfBgNVHSMEGDAWgBTdkcIckY92TWS0EmwK8CRhbmPSazANBgkqcAACACJlLQwF
AAMxACPRWpTa1G/AQ+z5A80fhJglkHCV2FAysNF01xOi3AM2jRIpaKoHrW+5ygTi
W9kzfA==
-----END CERTIFICATE-----
