Certificate:
    Data:
        Version: 3 (0x2)
        Serial Number: 157 (0x9d)
    Signature Algorithm: bign-with-hbelt
        Issuer: CN=www.mydom_854.com, O=My Dom, Inc., C=US, ST=Oregon, L=Portland
        Validity
            Not Before: Sep 11 09:03:56 2014 GMT
            Not After : Sep 11 09:03:56 2015 GMT
        Subject: C=US, ST=Oregon, O=My Dom, Inc., CN=www.mydom.com
        Subject Public Key Info:
            Public Key Algorithm: bign-pubkey
                Public key: 87F4A162CFC0200FBAF3B5F9310BAABAB049140D6411A0DF76C3F09DECEBDAE4B05C4B1A7342ED3CEC2A026124E93D60DE1E95DB070711B56CDF072E76110F45
                Parameter set: bign-curve256v1
        X509v3 extensions:
            X509v3 Basic Constraints: 
                CA:FALSE
            Netscape Comment: 
                OpenSSL Generated Certificate
            X509v3 Subject Key Identifier: 
                3B:42:06:3F:D4:C4:8A:9A:E2:46:BD:00:E1:32:4C:A8:55:AD:14:25
            X509v3 Authority Key Identifier: 
                keyid:C7:61:E6:14:67:1A:1E:D3:FB:0E:C2:D6:79:F1:15:BA:D3:B3:49:33

    Signature Algorithm: bign-with-hbelt
         18:cf:7f:a4:65:87:c9:79:c5:6a:98:18:f7:46:16:dd:c5:a0:
         31:58:38:b0:3d:0e:98:c4:4e:49:1e:a5:5b:75:c2:01:e5:e5:
         2e:18:c5:4e:67:b6:68:83:9e:1c:fa:14
-----BEGIN CERTIFICATE-----
MIICDzCCAcmgAwIBAgICAJ0wDQYJKnAAAgAiZS0MBQAwZDEaMBgGA1UEAwwRd3d3
Lm15ZG9tXzg1NC5jb20xFTATBgNVBAoMDE15IERvbSwgSW5jLjELMAkGA1UEBhMC
VVMxDzANBgNVBAgMBk9yZWdvbjERMA8GA1UEBwwIUG9ydGxhbmQwHhcNMTQwOTEx
MDkwMzU2WhcNMTUwOTExMDkwMzU2WjBNMQswCQYDVQQGEwJVUzEPMA0GA1UECAwG
T3JlZ29uMRUwEwYDVQQKDAxNeSBEb20sIEluYy4xFjAUBgNVBAMMDXd3dy5teWRv
bS5jb20wXTAYBgoqcAACACJlLQIBBgoqcAACACJlLQMBA0EAh/ShYs/AIA+687X5
MQuqurBJFA1kEaDfdsPwnezr2uSwXEsac0LtPOwqAmEk6T1g3h6V2wcHEbVs3wcu
dhEPRaN7MHkwCQYDVR0TBAIwADAsBglghkgBhvhCAQ0EHxYdT3BlblNTTCBHZW5l
cmF0ZWQgQ2VydGlmaWNhdGUwHQYDVR0OBBYEFDtCBj/UxIqa4ka9AOEyTKhVrRQl
MB8GA1UdIwQYMBaAFMdh5hRnGh7T+w7C1nnxFbrTs0kzMA0GCSpwAAIAImUtDAUA
AzEAGM9/pGWHyXnFapgY90YW3cWgMVg4sD0OmMROSR6lW3XCAeXlLhjFTme2aIOe
HPoU
-----END CERTIFICATE-----
