Certificate:
    Data:
        Version: 3 (0x2)
        Serial Number: 158 (0x9e)
    Signature Algorithm: bign-with-hbelt
        Issuer: CN=www.mydom_7468.com, O=My Dom, Inc., C=US, ST=Oregon, L=Portland
        Validity
            Not Before: Sep 11 09:03:56 2014 GMT
            Not After : Sep 11 09:03:56 2015 GMT
        Subject: C=US, ST=Oregon, O=My Dom, Inc., CN=www.mydom.com
        Subject Public Key Info:
            Public Key Algorithm: bign-pubkey
                Public key: 632FC8D3035176C9BAA88BA88C36481146234BFDC885613D9A2F67ED48312F93165F800BC6ADF1359D8C5A8C4C7EB31A27919AA200A930F10BA44BB8A7FF05F8
                Parameter set: bign-curve256v1
        X509v3 extensions:
            X509v3 Basic Constraints: 
                CA:FALSE
            Netscape Comment: 
                OpenSSL Generated Certificate
            X509v3 Subject Key Identifier: 
                37:DB:93:AC:B4:39:59:9C:8D:1F:BB:11:CB:13:90:AE:74:20:77:5A
            X509v3 Authority Key Identifier: 
                keyid:18:C6:25:AD:2C:39:BF:F3:D8:4A:9D:38:29:62:8D:E3:78:47:BE:91

    Signature Algorithm: bign-with-hbelt
         03:f6:a4:24:2e:6b:ca:75:32:a6:66:0d:9b:34:d3:c0:77:a6:
         42:73:bf:05:fa:16:78:49:75:25:aa:2d:7d:16:d3:2f:45:f2:
         08:bf:e9:82:16:5b:31:91:a2:88:12:a2
-----BEGIN CERTIFICATE-----
MIICEDCCAcqgAwIBAgICAJ4wDQYJKnAAAgAiZS0MBQAwZTEbMBkGA1UEAwwSd3d3
Lm15ZG9tXzc0NjguY29tMRUwEwYDVQQKDAxNeSBEb20sIEluYy4xCzAJBgNVBAYT
AlVTMQ8wDQYDVQQIDAZPcmVnb24xETAPBgNVBAcMCFBvcnRsYW5kMB4XDTE0MDkx
MTA5MDM1NloXDTE1MDkxMTA5MDM1NlowTTELMAkGA1UEBhMCVVMxDzANBgNVBAgM
Bk9yZWdvbjEVMBMGA1UECgwMTXkgRG9tLCBJbmMuMRYwFAYDVQQDDA13d3cubXlk
b20uY29tMF0wGAYKKnAAAgAiZS0CAQYKKnAAAgAiZS0DAQNBAGMvyNMDUXbJuqiL
qIw2SBFGI0v9yIVhPZovZ+1IMS+TFl+AC8at8TWdjFqMTH6zGieRmqIAqTDxC6RL
uKf/BfijezB5MAkGA1UdEwQCMAAwLAYJYIZIAYb4QgENBB8WHU9wZW5TU0wgR2Vu
ZXJhdGVkIENlcnRpZmljYXRlMB0GA1UdDgQWBBQ325OstDlZnI0fuxHLE5CudCB3
WjAfBgNVHSMEGDAWgBQYxiWtLDm/89hKnTgpYo3jeEe+kTANBgkqcAACACJlLQwF
AAMxAAP2pCQua8p1MqZmDZs008B3pkJzvwX6FnhJdSWqLX0W0y9F8gi/6YIWWzGR
oogSog==
-----END CERTIFICATE-----
