Certificate:
    Data:
        Version: 3 (0x2)
        Serial Number: 159 (0x9f)
    Signature Algorithm: bign-with-hbelt
        Issuer: CN=www.mydom_7468.com, O=My Dom, Inc., C=US, ST=Oregon, L=Portland
        Validity
            Not Before: Sep 11 09:03:56 2014 GMT
            Not After : Sep 11 09:03:56 2015 GMT
        Subject: C=US, ST=Oregon, O=My Dom, Inc., CN=www.mydom.com
        Subject Public Key Info:
            Public Key Algorithm: bign-pubkey
                Public key: 632FC8D3035176C9BAA88BA88C36481146234BFDC885613D9A2F67ED48312F93165F800BC6ADF1359D8C5A8C4C7EB31A27919AA200A930F10BA44BB8A7FF05F8
                Parameter set: bign-curve256v1
        X509v3 extensions:
            X509v3 Basic Constraints: 
                CA:FALSE
            Netscape Comment: 
                OpenSSL Generated Certificate
            X509v3 Subject Key Identifier: 
                37:DB:93:AC:B4:39:59:9C:8D:1F:BB:11:CB:13:90:AE:74:20:77:5A
            X509v3 Authority Key Identifier: 
                keyid:18:C6:25:AD:2C:39:BF:F3:D8:4A:9D:38:29:62:8D:E3:78:47:BE:91

    Signature Algorithm: bign-with-hbelt
         dc:26:1a:4a:d6:fd:4c:e4:1a:a8:81:76:ba:7f:d9:f1:cc:e4:
         dd:1c:59:f5:59:5c:e3:6e:69:64:01:aa:43:39:83:59:de:ae:
         d9:2f:83:1b:92:59:de:aa:ab:c3:a0:e4
-----BEGIN CERTIFICATE-----
MIICEDCCAcqgAwIBAgICAJ8wDQYJKnAAAgAiZS0MBQAwZTEbMBkGA1UEAwwSd3d3
Lm15ZG9tXzc0NjguY29tMRUwEwYDVQQKDAxNeSBEb20sIEluYy4xCzAJBgNVBAYT
AlVTMQ8wDQYDVQQIDAZPcmVnb24xETAPBgNVBAcMCFBvcnRsYW5kMB4XDTE0MDkx
MTA5MDM1NloXDTE1MDkxMTA5MDM1NlowTTELMAkGA1UEBhMCVVMxDzANBgNVBAgM
Bk9yZWdvbjEVMBMGA1UECgwMTXkgRG9tLCBJbmMuMRYwFAYDVQQDDA13d3cubXlk
b20uY29tMF0wGAYKKnAAAgAiZS0CAQYKKnAAAgAiZS0DAQNBAGMvyNMDUXbJuqiL
qIw2SBFGI0v9yIVhPZovZ+1IMS+TFl+AC8at8TWdjFqMTH6zGieRmqIAqTDxC6RL
uKf/BfijezB5MAkGA1UdEwQCMAAwLAYJYIZIAYb4QgENBB8WHU9wZW5TU0wgR2Vu
ZXJhdGVkIENlcnRpZmljYXRlMB0GA1UdDgQWBBQ325OstDlZnI0fuxHLE5CudCB3
WjAfBgNVHSMEGDAWgBQYxiWtLDm/89hKnTgpYo3jeEe+kTANBgkqcAACACJlLQwF
AAMxANwmGkrW/UzkGqiBdrp/2fHM5N0cWfVZXONuaWQBqkM5g1nertkvgxuSWd6q
q8Og5A==
-----END CERTIFICATE-----
