Certificate:
    Data:
        Version: 3 (0x2)
        Serial Number: 160 (0xa0)
    Signature Algorithm: bign-with-hbelt
        Issuer: CN=www.mydom_4999.com, O=My Dom, Inc., C=US, ST=Oregon, L=Portland
        Validity
            Not Before: Sep 16 17:00:38 2014 GMT
            Not After : Sep 16 17:00:38 2015 GMT
        Subject: C=US, ST=Oregon, O=My Dom, Inc., CN=www.mydom.com
        Subject Public Key Info:
            Public Key Algorithm: bign-pubkey
                Public key: FB2BD71AFC2494CE9E22E3029E88BA469D59EE9A2AEC2FB7897A5706A6CBB1A3ECEA5B6000A7AC236D7EE85AEF47AEE0A19648F7DA658C0AE2333ED6AE58138C
                Parameter set: bign-curve256v1
        X509v3 extensions:
            X509v3 Basic Constraints: 
                CA:FALSE
            Netscape Comment: 
                OpenSSL Generated Certificate
            X509v3 Subject Key Identifier: 
                DA:12:83:D4:85:26:2F:6C:71:5F:F5:25:C4:01:D3:42:62:28:00:02
            X509v3 Authority Key Identifier: 
                keyid:DD:BC:C8:62:9F:E2:AE:F3:4B:A7:A4:7E:13:5A:0B:86:01:77:5B:40

    Signature Algorithm: bign-with-hbelt
         d6:e3:f4:9f:e1:c3:71:a4:6d:65:15:2e:16:bc:cd:9e:7a:f7:
         b0:43:a1:e4:fc:16:e5:a0:a5:05:47:8a:f9:d1:72:85:9a:af:
         c0:c0:37:04:11:7f:0e:eb:5f:81:e5:6a
-----BEGIN CERTIFICATE-----
MIICEDCCAcqgAwIBAgICAKAwDQYJKnAAAgAiZS0MBQAwZTEbMBkGA1UEAwwSd3d3
Lm15ZG9tXzQ5OTkuY29tMRUwEwYDVQQKDAxNeSBEb20sIEluYy4xCzAJBgNVBAYT
AlVTMQ8wDQYDVQQIDAZPcmVnb24xETAPBgNVBAcMCFBvcnRsYW5kMB4XDTE0MDkx
NjE3MDAzOFoXDTE1MDkxNjE3MDAzOFowTTELMAkGA1UEBhMCVVMxDzANBgNVBAgM
Bk9yZWdvbjEVMBMGA1UECgwMTXkgRG9tLCBJbmMuMRYwFAYDVQQDDA13d3cubXlk
b20uY29tMF0wGAYKKnAAAgAiZS0CAQYKKnAAAgAiZS0DAQNBAPsr1xr8JJTOniLj
Ap6IukadWe6aKuwvt4l6Vwamy7Gj7OpbYACnrCNtfuha70eu4KGWSPfaZYwK4jM+
1q5YE4yjezB5MAkGA1UdEwQCMAAwLAYJYIZIAYb4QgENBB8WHU9wZW5TU0wgR2Vu
ZXJhdGVkIENlcnRpZmljYXRlMB0GA1UdDgQWBBTaEoPUhSYvbHFf9SXEAdNCYigA
AjAfBgNVHSMEGDAWgBTdvMhin+Ku80unpH4TWguGAXdbQDANBgkqcAACACJlLQwF
AAMxANbj9J/hw3GkbWUVLha8zZ5697BDoeT8FuWgpQVHivnRcoWar8DANwQRfw7r
X4Hlag==
-----END CERTIFICATE-----
