Certificate:
    Data:
        Version: 3 (0x2)
        Serial Number: 161 (0xa1)
    Signature Algorithm: bign-with-hbelt
        Issuer: CN=www.mydom_8537.com, O=My Dom, Inc., C=US, ST=Oregon, L=Portland
        Validity
            Not Before: Sep 17 12:55:17 2014 GMT
            Not After : Sep 17 12:55:17 2015 GMT
        Subject: C=US, ST=Oregon, O=My Dom, Inc., CN=www.mydom.com
        Subject Public Key Info:
            Public Key Algorithm: bign-pubkey
                Public key: 3DA25FFB71D5D2A874E4392CF807C09DA4FFB2B5496D5335A60F301CC0828977A0A4749883B20333107878C9811DAF543AE4F33D73BED887C0C2FA5AE70DE79A
                Parameter set: bign-curve256v1
        X509v3 extensions:
            X509v3 Basic Constraints: 
                CA:FALSE
            Netscape Comment: 
                OpenSSL Generated Certificate
            X509v3 Subject Key Identifier: 
                46:F7:4E:32:65:59:22:7E:36:BE:CD:43:AD:A9:6F:DA:CB:CB:ED:83
            X509v3 Authority Key Identifier: 
                keyid:CD:7A:D9:27:AF:4B:D8:F1:F8:43:F8:8B:54:D1:CB:4C:B8:1B:63:13

    Signature Algorithm: bign-with-hbelt
         0c:1f:c3:6f:08:fe:2f:cd:50:08:0c:1a:2a:88:71:1b:d8:6e:
         4a:61:12:7d:43:92:e8:66:e3:b6:bb:74:65:14:8b:0a:5c:fa:
         76:7d:f0:3b:b9:5b:a9:87:38:af:37:64
-----BEGIN CERTIFICATE-----
MIICEDCCAcqgAwIBAgICAKEwDQYJKnAAAgAiZS0MBQAwZTEbMBkGA1UEAwwSd3d3
Lm15ZG9tXzg1MzcuY29tMRUwEwYDVQQKDAxNeSBEb20sIEluYy4xCzAJBgNVBAYT
AlVTMQ8wDQYDVQQIDAZPcmVnb24xETAPBgNVBAcMCFBvcnRsYW5kMB4XDTE0MDkx
NzEyNTUxN1oXDTE1MDkxNzEyNTUxN1owTTELMAkGA1UEBhMCVVMxDzANBgNVBAgM
Bk9yZWdvbjEVMBMGA1UECgwMTXkgRG9tLCBJbmMuMRYwFAYDVQQDDA13d3cubXlk
b20uY29tMF0wGAYKKnAAAgAiZS0CAQYKKnAAAgAiZS0DAQNBAD2iX/tx1dKodOQ5
LPgHwJ2k/7K1SW1TNaYPMBzAgol3oKR0mIOyAzMQeHjJgR2vVDrk8z1zvtiHwML6
WucN55qjezB5MAkGA1UdEwQCMAAwLAYJYIZIAYb4QgENBB8WHU9wZW5TU0wgR2Vu
ZXJhdGVkIENlcnRpZmljYXRlMB0GA1UdDgQWBBRG904yZVkifja+zUOtqW/ay8vt
gzAfBgNVHSMEGDAWgBTNetknr0vY8fhD+ItU0ctMuBtjEzANBgkqcAACACJlLQwF
AAMxAAwfw28I/i/NUAgMGiqIcRvYbkphEn1Dkuhm47a7dGUUiwpc+nZ98Du5W6mH
OK83ZA==
-----END CERTIFICATE-----
