Certificate:
    Data:
        Version: 3 (0x2)
        Serial Number: 162 (0xa2)
    Signature Algorithm: bign-with-hbelt
        Issuer: CN=www.mydom_1800.com, O=My Dom, Inc., C=US, ST=Oregon, L=Portland
        Validity
            Not Before: Sep 17 12:56:38 2014 GMT
            Not After : Sep 17 12:56:38 2015 GMT
        Subject: C=US, ST=Oregon, O=My Dom, Inc., CN=www.mydom.com
        Subject Public Key Info:
            Public Key Algorithm: bign-pubkey
                Public key: BC52BC7E052E958941CED9D64B574E3C1DC39AA22C762A0BA2227E693FB8F6250A17478B5974A158158A95B1392C5510EE8B7FB333FAD8D9722EFACE291C92F8
                Parameter set: bign-curve256v1
        X509v3 extensions:
            X509v3 Basic Constraints: 
                CA:FALSE
            Netscape Comment: 
                OpenSSL Generated Certificate
            X509v3 Subject Key Identifier: 
                65:0F:A5:89:09:71:72:45:4A:FC:E5:3C:DC:1B:1E:58:9C:57:B5:2A
            X509v3 Authority Key Identifier: 
                keyid:0C:47:0D:D5:26:09:28:5D:6D:E3:4A:50:89:30:DD:B2:7E:26:5D:81

    Signature Algorithm: bign-with-hbelt
         f1:1c:a7:0a:fd:0b:e4:30:18:ab:5a:a0:bf:6f:fa:0a:78:ac:
         b1:a5:6a:77:79:5e:32:65:ac:8b:28:f7:e5:49:96:5d:2e:fc:
         73:16:5b:7a:5c:2b:6b:6a:6c:dc:14:49
-----BEGIN CERTIFICATE-----
MIICEDCCAcqgAwIBAgICAKIwDQYJKnAAAgAiZS0MBQAwZTEbMBkGA1UEAwwSd3d3
Lm15ZG9tXzE4MDAuY29tMRUwEwYDVQQKDAxNeSBEb20sIEluYy4xCzAJBgNVBAYT
AlVTMQ8wDQYDVQQIDAZPcmVnb24xETAPBgNVBAcMCFBvcnRsYW5kMB4XDTE0MDkx
NzEyNTYzOFoXDTE1MDkxNzEyNTYzOFowTTELMAkGA1UEBhMCVVMxDzANBgNVBAgM
Bk9yZWdvbjEVMBMGA1UECgwMTXkgRG9tLCBJbmMuMRYwFAYDVQQDDA13d3cubXlk
b20uY29tMF0wGAYKKnAAAgAiZS0CAQYKKnAAAgAiZS0DAQNBALxSvH4FLpWJQc7Z
1ktXTjwdw5qiLHYqC6Iifmk/uPYlChdHi1l0oVgVipWxOSxVEO6Lf7Mz+tjZci76
zikckvijezB5MAkGA1UdEwQCMAAwLAYJYIZIAYb4QgENBB8WHU9wZW5TU0wgR2Vu
ZXJhdGVkIENlcnRpZmljYXRlMB0GA1UdDgQWBBRlD6WJCXFyRUr85TzcGx5YnFe1
KjAfBgNVHSMEGDAWgBQMRw3VJgkoXW3jSlCJMN2yfiZdgTANBgkqcAACACJlLQwF
AAMxAPEcpwr9C+QwGKtaoL9v+gp4rLGland5XjJlrIso9+VJll0u/HMWW3pcK2tq
bNwUSQ==
-----END CERTIFICATE-----
