Certificate:
    Data:
        Version: 3 (0x2)
        Serial Number: 163 (0xa3)
    Signature Algorithm: bign-with-hbelt
        Issuer: CN=www.mydom_7633.com, O=My Dom, Inc., C=US, ST=Oregon, L=Portland
        Validity
            Not Before: Sep 17 12:57:02 2014 GMT
            Not After : Sep 17 12:57:02 2015 GMT
        Subject: C=US, ST=Oregon, O=My Dom, Inc., CN=www.mydom.com
        Subject Public Key Info:
            Public Key Algorithm: bign-pubkey
                Public key: 3C951A4CAACC6859DD5C8994E33470995E6BDF1E5E8AD9E7E6966430BE355B7F280B99D0198B75DB17B1EF41219AB2C9BF012452E39BD92BBAB6F7B44E07FC3B
                Parameter set: bign-curve256v1
        X509v3 extensions:
            X509v3 Basic Constraints: 
                CA:FALSE
            Netscape Comment: 
                OpenSSL Generated Certificate
            X509v3 Subject Key Identifier: 
                73:26:D4:25:D8:34:B9:B3:DE:07:1C:BC:B9:EB:CE:DE:BA:36:AB:C3
            X509v3 Authority Key Identifier: 
                keyid:BB:83:C3:FC:B9:CD:BC:D7:E2:5A:D1:67:B0:D3:71:A7:CD:A8:29:33

    Signature Algorithm: bign-with-hbelt
         8d:6f:80:90:7d:0f:2f:d0:39:59:39:f9:82:76:8b:6b:95:7d:
         7c:e4:58:5b:40:49:43:5e:46:2d:58:21:28:50:31:1f:88:75:
         62:42:d6:7f:4a:05:18:e4:9d:82:06:e4
-----BEGIN CERTIFICATE-----
MIICEDCCAcqgAwIBAgICAKMwDQYJKnAAAgAiZS0MBQAwZTEbMBkGA1UEAwwSd3d3
Lm15ZG9tXzc2MzMuY29tMRUwEwYDVQQKDAxNeSBEb20sIEluYy4xCzAJBgNVBAYT
AlVTMQ8wDQYDVQQIDAZPcmVnb24xETAPBgNVBAcMCFBvcnRsYW5kMB4XDTE0MDkx
NzEyNTcwMloXDTE1MDkxNzEyNTcwMlowTTELMAkGA1UEBhMCVVMxDzANBgNVBAgM
Bk9yZWdvbjEVMBMGA1UECgwMTXkgRG9tLCBJbmMuMRYwFAYDVQQDDA13d3cubXlk
b20uY29tMF0wGAYKKnAAAgAiZS0CAQYKKnAAAgAiZS0DAQNBADyVGkyqzGhZ3VyJ
lOM0cJlea98eXorZ5+aWZDC+NVt/KAuZ0BmLddsXse9BIZqyyb8BJFLjm9krurb3
tE4H/DujezB5MAkGA1UdEwQCMAAwLAYJYIZIAYb4QgENBB8WHU9wZW5TU0wgR2Vu
ZXJhdGVkIENlcnRpZmljYXRlMB0GA1UdDgQWBBRzJtQl2DS5s94HHLy5687eujar
wzAfBgNVHSMEGDAWgBS7g8P8uc281+Ja0Wew03GnzagpMzANBgkqcAACACJlLQwF
AAMxAI1vgJB9Dy/QOVk5+YJ2i2uVfXzkWFtASUNeRi1YIShQMR+IdWJC1n9KBRjk
nYIG5A==
-----END CERTIFICATE-----
