Certificate:
    Data:
        Version: 3 (0x2)
        Serial Number: 164 (0xa4)
    Signature Algorithm: bign-with-hbelt
        Issuer: CN=www.mydom_3298.com, O=My Dom, Inc., C=US, ST=Oregon, L=Portland
        Validity
            Not Before: Sep 17 12:57:59 2014 GMT
            Not After : Sep 17 12:57:59 2015 GMT
        Subject: C=US, ST=Oregon, O=My Dom, Inc., CN=www.mydom.com
        Subject Public Key Info:
            Public Key Algorithm: bign-pubkey
                Public key: 0AD570802234E4E8000D51960B796498D333CC9DF2D7A11F749F961C653F3F6F32C309162A9665A311518E942A974E634BE07106AE3F96EB52E40677212469C6
                Parameter set: bign-curve256v1
        X509v3 extensions:
            X509v3 Basic Constraints: 
                CA:FALSE
            Netscape Comment: 
                OpenSSL Generated Certificate
            X509v3 Subject Key Identifier: 
                21:7C:70:20:12:55:29:C7:2C:5E:B0:34:77:2E:4E:BF:A4:1A:C8:4F
            X509v3 Authority Key Identifier: 
                keyid:31:09:58:A6:4B:58:7B:EA:AD:E5:65:41:49:F0:E8:FE:05:DB:FC:DF

    Signature Algorithm: bign-with-hbelt
         37:2f:da:48:72:11:86:11:6f:ea:88:54:9f:66:36:0c:e2:1f:
         07:cf:24:37:5a:e9:f7:16:b8:f7:ae:7a:9b:17:64:50:ee:cf:
         9f:9d:b6:9e:c0:45:d7:d4:18:8e:66:b3
-----BEGIN CERTIFICATE-----
MIICEDCCAcqgAwIBAgICAKQwDQYJKnAAAgAiZS0MBQAwZTEbMBkGA1UEAwwSd3d3
Lm15ZG9tXzMyOTguY29tMRUwEwYDVQQKDAxNeSBEb20sIEluYy4xCzAJBgNVBAYT
AlVTMQ8wDQYDVQQIDAZPcmVnb24xETAPBgNVBAcMCFBvcnRsYW5kMB4XDTE0MDkx
NzEyNTc1OVoXDTE1MDkxNzEyNTc1OVowTTELMAkGA1UEBhMCVVMxDzANBgNVBAgM
Bk9yZWdvbjEVMBMGA1UECgwMTXkgRG9tLCBJbmMuMRYwFAYDVQQDDA13d3cubXlk
b20uY29tMF0wGAYKKnAAAgAiZS0CAQYKKnAAAgAiZS0DAQNBAArVcIAiNOToAA1R
lgt5ZJjTM8yd8tehH3SflhxlPz9vMsMJFiqWZaMRUY6UKpdOY0vgcQauP5brUuQG
dyEkacajezB5MAkGA1UdEwQCMAAwLAYJYIZIAYb4QgENBB8WHU9wZW5TU0wgR2Vu
ZXJhdGVkIENlcnRpZmljYXRlMB0GA1UdDgQWBBQhfHAgElUpxyxesDR3Lk6/pBrI
TzAfBgNVHSMEGDAWgBQxCVimS1h76q3lZUFJ8Oj+Bdv83zANBgkqcAACACJlLQwF
AAMxADcv2khyEYYRb+qIVJ9mNgziHwfPJDda6fcWuPeuepsXZFDuz5+dtp7ARdfU
GI5msw==
-----END CERTIFICATE-----
