Certificate:
    Data:
        Version: 3 (0x2)
        Serial Number: 165 (0xa5)
    Signature Algorithm: bign-with-hbelt
        Issuer: CN=www.mydom_1437.com, O=My Dom, Inc., C=US, ST=Oregon, L=Portland
        Validity
            Not Before: Sep 17 12:58:40 2014 GMT
            Not After : Sep 17 12:58:40 2015 GMT
        Subject: C=US, ST=Oregon, O=My Dom, Inc., CN=www.mydom.com
        Subject Public Key Info:
            Public Key Algorithm: bign-pubkey
                Public key: E28045622DB731ED91B9F4972B2AE86BC0830F09C14A8B176FC91858CA30BEC1677EE395591191417416FE774CDA1DEF648764926CA2873A34626A4C43D88EED
                Parameter set: bign-curve256v1
        X509v3 extensions:
            X509v3 Basic Constraints: 
                CA:FALSE
            Netscape Comment: 
                OpenSSL Generated Certificate
            X509v3 Subject Key Identifier: 
                A5:CF:72:CC:FF:CA:07:B8:52:37:40:75:48:CD:8B:C0:3D:33:AA:D4
            X509v3 Authority Key Identifier: 
                keyid:A1:C5:60:FE:2B:60:76:35:46:DA:44:AC:99:48:00:3F:92:69:6A:C8

    Signature Algorithm: bign-with-hbelt
         a8:ba:c1:d5:b2:eb:70:d8:72:f7:cc:0f:48:71:ab:fa:5c:ae:
         e4:b9:95:a5:aa:45:53:6c:f5:bf:1a:e5:37:12:42:5a:ac:6e:
         0f:eb:76:23:f9:ad:da:db:24:aa:03:2a
-----BEGIN CERTIFICATE-----
MIICEDCCAcqgAwIBAgICAKUwDQYJKnAAAgAiZS0MBQAwZTEbMBkGA1UEAwwSd3d3
Lm15ZG9tXzE0MzcuY29tMRUwEwYDVQQKDAxNeSBEb20sIEluYy4xCzAJBgNVBAYT
AlVTMQ8wDQYDVQQIDAZPcmVnb24xETAPBgNVBAcMCFBvcnRsYW5kMB4XDTE0MDkx
NzEyNTg0MFoXDTE1MDkxNzEyNTg0MFowTTELMAkGA1UEBhMCVVMxDzANBgNVBAgM
Bk9yZWdvbjEVMBMGA1UECgwMTXkgRG9tLCBJbmMuMRYwFAYDVQQDDA13d3cubXlk
b20uY29tMF0wGAYKKnAAAgAiZS0CAQYKKnAAAgAiZS0DAQNBAOKARWIttzHtkbn0
lysq6GvAgw8JwUqLF2/JGFjKML7BZ37jlVkRkUF0Fv53TNod72SHZJJsooc6NGJq
TEPYju2jezB5MAkGA1UdEwQCMAAwLAYJYIZIAYb4QgENBB8WHU9wZW5TU0wgR2Vu
ZXJhdGVkIENlcnRpZmljYXRlMB0GA1UdDgQWBBSlz3LM/8oHuFI3QHVIzYvAPTOq
1DAfBgNVHSMEGDAWgBShxWD+K2B2NUbaRKyZSAA/kmlqyDANBgkqcAACACJlLQwF
AAMxAKi6wdWy63DYcvfMD0hxq/pcruS5laWqRVNs9b8a5TcSQlqsbg/rdiP5rdrb
JKoDKg==
-----END CERTIFICATE-----
