Certificate:
    Data:
        Version: 3 (0x2)
        Serial Number: 166 (0xa6)
    Signature Algorithm: bign-with-hbelt
        Issuer: CN=www.mydom_7745.com, O=My Dom, Inc., C=US, ST=Oregon, L=Portland
        Validity
            Not Before: Sep 17 13:00:16 2014 GMT
            Not After : Sep 17 13:00:16 2015 GMT
        Subject: C=US, ST=Oregon, O=My Dom, Inc., CN=www.mydom.com
        Subject Public Key Info:
            Public Key Algorithm: bign-pubkey
                Public key: 6D84D2C5FB5362E915BC982D41D2B18E6BBB1F2B8CB5D2A2D16503F8B60202A7D0C26174C7D5F73702420F6E6A822516686A890495D98366138D8A3F8A7A1A4B
                Parameter set: bign-curve256v1
        X509v3 extensions:
            X509v3 Basic Constraints: 
                CA:FALSE
            Netscape Comment: 
                OpenSSL Generated Certificate
            X509v3 Subject Key Identifier: 
                E8:AB:A6:7E:C8:F8:3D:88:B8:B4:B0:4D:C3:C8:26:54:28:2B:84:72
            X509v3 Authority Key Identifier: 
                keyid:69:D2:49:BE:2C:67:91:BB:9E:6E:16:F0:53:F9:47:E3:60:78:36:88

    Signature Algorithm: bign-with-hbelt
         b6:93:45:54:d1:d4:c4:20:fc:23:38:00:69:1e:42:94:46:78:
         dc:08:ce:b5:07:c8:4a:06:b0:96:e9:98:d5:e4:d4:13:1f:5c:
         df:5d:51:e3:1d:54:f8:d7:f1:35:69:5c
-----BEGIN CERTIFICATE-----
MIICEDCCAcqgAwIBAgICAKYwDQYJKnAAAgAiZS0MBQAwZTEbMBkGA1UEAwwSd3d3
Lm15ZG9tXzc3NDUuY29tMRUwEwYDVQQKDAxNeSBEb20sIEluYy4xCzAJBgNVBAYT
AlVTMQ8wDQYDVQQIDAZPcmVnb24xETAPBgNVBAcMCFBvcnRsYW5kMB4XDTE0MDkx
NzEzMDAxNloXDTE1MDkxNzEzMDAxNlowTTELMAkGA1UEBhMCVVMxDzANBgNVBAgM
Bk9yZWdvbjEVMBMGA1UECgwMTXkgRG9tLCBJbmMuMRYwFAYDVQQDDA13d3cubXlk
b20uY29tMF0wGAYKKnAAAgAiZS0CAQYKKnAAAgAiZS0DAQNBAG2E0sX7U2LpFbyY
LUHSsY5rux8rjLXSotFlA/i2AgKn0MJhdMfV9zcCQg9uaoIlFmhqiQSV2YNmE42K
P4p6GkujezB5MAkGA1UdEwQCMAAwLAYJYIZIAYb4QgENBB8WHU9wZW5TU0wgR2Vu
ZXJhdGVkIENlcnRpZmljYXRlMB0GA1UdDgQWBBToq6Z+yPg9iLi0sE3DyCZUKCuE
cjAfBgNVHSMEGDAWgBRp0km+LGeRu55uFvBT+UfjYHg2iDANBgkqcAACACJlLQwF
AAMxALaTRVTR1MQg/CM4AGkeQpRGeNwIzrUHyEoGsJbpmNXk1BMfXN9dUeMdVPjX
8TVpXA==
-----END CERTIFICATE-----
