Certificate:
    Data:
        Version: 3 (0x2)
        Serial Number: 167 (0xa7)
    Signature Algorithm: bign-with-hbelt
        Issuer: CN=www.mydom_9109.com, O=My Dom, Inc., C=US, ST=Oregon, L=Portland
        Validity
            Not Before: Sep 17 13:07:57 2014 GMT
            Not After : Sep 17 13:07:57 2015 GMT
        Subject: C=US, ST=Oregon, O=My Dom, Inc., CN=www.mydom.com
        Subject Public Key Info:
            Public Key Algorithm: bign-pubkey
                Public key: CB9126F533573E9010E783090ABC406D8B760325E6E5B09F2811EAE1C7031C31E3EA31883DAB564FE1E4FFE32366798E519CB062E93D759E175DC211981A681B
                Parameter set: bign-curve256v1
        X509v3 extensions:
            X509v3 Basic Constraints: 
                CA:FALSE
            Netscape Comment: 
                OpenSSL Generated Certificate
            X509v3 Subject Key Identifier: 
                BB:8E:B5:73:A9:95:E1:EE:D4:B6:D5:00:4A:5B:D6:FE:C7:DA:F2:21
            X509v3 Authority Key Identifier: 
                keyid:87:D2:A0:32:8C:12:1C:1B:54:44:7E:4A:38:D7:15:ED:43:05:65:2A

    Signature Algorithm: bign-with-hbelt
         9e:56:90:78:6d:10:f9:04:ef:61:9c:e9:0a:0a:b7:fa:c7:a9:
         2b:3a:f7:a5:0e:c0:9d:f3:5f:4d:30:d4:61:26:1e:96:3b:19:
         a2:42:3d:06:68:6e:df:af:26:59:0c:ce
-----BEGIN CERTIFICATE-----
MIICEDCCAcqgAwIBAgICAKcwDQYJKnAAAgAiZS0MBQAwZTEbMBkGA1UEAwwSd3d3
Lm15ZG9tXzkxMDkuY29tMRUwEwYDVQQKDAxNeSBEb20sIEluYy4xCzAJBgNVBAYT
AlVTMQ8wDQYDVQQIDAZPcmVnb24xETAPBgNVBAcMCFBvcnRsYW5kMB4XDTE0MDkx
NzEzMDc1N1oXDTE1MDkxNzEzMDc1N1owTTELMAkGA1UEBhMCVVMxDzANBgNVBAgM
Bk9yZWdvbjEVMBMGA1UECgwMTXkgRG9tLCBJbmMuMRYwFAYDVQQDDA13d3cubXlk
b20uY29tMF0wGAYKKnAAAgAiZS0CAQYKKnAAAgAiZS0DAQNBAMuRJvUzVz6QEOeD
CQq8QG2LdgMl5uWwnygR6uHHAxwx4+oxiD2rVk/h5P/jI2Z5jlGcsGLpPXWeF13C
EZgaaBujezB5MAkGA1UdEwQCMAAwLAYJYIZIAYb4QgENBB8WHU9wZW5TU0wgR2Vu
ZXJhdGVkIENlcnRpZmljYXRlMB0GA1UdDgQWBBS7jrVzqZXh7tS21QBKW9b+x9ry
ITAfBgNVHSMEGDAWgBSH0qAyjBIcG1REfko41xXtQwVlKjANBgkqcAACACJlLQwF
AAMxAJ5WkHhtEPkE72Gc6QoKt/rHqSs696UOwJ3zX00w1GEmHpY7GaJCPQZobt+v
JlkMzg==
-----END CERTIFICATE-----
