Certificate:
    Data:
        Version: 3 (0x2)
        Serial Number: 168 (0xa8)
    Signature Algorithm: bign-with-hbelt
        Issuer: CN=www.mydom_3136.com, O=My Dom, Inc., C=US, ST=Oregon, L=Portland
        Validity
            Not Before: Sep 17 13:08:14 2014 GMT
            Not After : Sep 17 13:08:14 2015 GMT
        Subject: C=US, ST=Oregon, O=My Dom, Inc., CN=www.mydom.com
        Subject Public Key Info:
            Public Key Algorithm: bign-pubkey
                Public key: 904EA12A4D2B468423A430810D0FDDCCEB794C875EF78D00FBA1A83B3B05F361DA53F3A14205CADD0729D4F46020636BC6741CAA72886B2584300B01EE6FCC00
                Parameter set: bign-curve256v1
        X509v3 extensions:
            X509v3 Basic Constraints: 
                CA:FALSE
            Netscape Comment: 
                OpenSSL Generated Certificate
            X509v3 Subject Key Identifier: 
                67:4B:94:C7:8A:47:C0:CF:06:05:A7:DD:06:3B:0E:1F:03:52:C3:17
            X509v3 Authority Key Identifier: 
                keyid:A9:1C:E5:BC:ED:02:16:BC:0B:1F:39:05:E1:82:6E:3A:A7:BB:38:3F

    Signature Algorithm: bign-with-hbelt
         e2:09:e0:75:9f:d0:63:46:fb:c4:d9:61:1a:fb:d6:e9:5f:ca:
         74:de:e7:af:1f:d7:88:fa:1a:8f:4e:15:86:5a:14:aa:45:3e:
         f3:f7:80:bc:19:3c:e0:1e:d8:10:12:2a
-----BEGIN CERTIFICATE-----
MIICEDCCAcqgAwIBAgICAKgwDQYJKnAAAgAiZS0MBQAwZTEbMBkGA1UEAwwSd3d3
Lm15ZG9tXzMxMzYuY29tMRUwEwYDVQQKDAxNeSBEb20sIEluYy4xCzAJBgNVBAYT
AlVTMQ8wDQYDVQQIDAZPcmVnb24xETAPBgNVBAcMCFBvcnRsYW5kMB4XDTE0MDkx
NzEzMDgxNFoXDTE1MDkxNzEzMDgxNFowTTELMAkGA1UEBhMCVVMxDzANBgNVBAgM
Bk9yZWdvbjEVMBMGA1UECgwMTXkgRG9tLCBJbmMuMRYwFAYDVQQDDA13d3cubXlk
b20uY29tMF0wGAYKKnAAAgAiZS0CAQYKKnAAAgAiZS0DAQNBAJBOoSpNK0aEI6Qw
gQ0P3czreUyHXveNAPuhqDs7BfNh2lPzoUIFyt0HKdT0YCBja8Z0HKpyiGslhDAL
Ae5vzACjezB5MAkGA1UdEwQCMAAwLAYJYIZIAYb4QgENBB8WHU9wZW5TU0wgR2Vu
ZXJhdGVkIENlcnRpZmljYXRlMB0GA1UdDgQWBBRnS5THikfAzwYFp90GOw4fA1LD
FzAfBgNVHSMEGDAWgBSpHOW87QIWvAsfOQXhgm46p7s4PzANBgkqcAACACJlLQwF
AAMxAOIJ4HWf0GNG+8TZYRr71ulfynTe568f14j6Go9OFYZaFKpFPvP3gLwZPOAe
2BASKg==
-----END CERTIFICATE-----
