Certificate:
    Data:
        Version: 3 (0x2)
        Serial Number: 169 (0xa9)
    Signature Algorithm: bign-with-hbelt
        Issuer: CN=www.mydom_1810.com, O=My Dom, Inc., C=US, ST=Oregon, L=Portland
        Validity
            Not Before: Sep 17 13:08:30 2014 GMT
            Not After : Sep 17 13:08:30 2015 GMT
        Subject: C=US, ST=Oregon, O=My Dom, Inc., CN=www.mydom.com
        Subject Public Key Info:
            Public Key Algorithm: bign-pubkey
                Public key: D7D9E6904CCE82445B251FADA2ADFC749FC51427039CD1A6FAFC53B451FA3E705718AA43423101F9C335DF95F8193A2C5DD064A962FC40CEC85FF3D4C86FFA7A
                Parameter set: bign-curve256v1
        X509v3 extensions:
            X509v3 Basic Constraints: 
                CA:FALSE
            Netscape Comment: 
                OpenSSL Generated Certificate
            X509v3 Subject Key Identifier: 
                54:A7:48:28:B3:85:92:D0:33:2D:9C:CF:EC:A8:32:5B:FB:F8:50:D8
            X509v3 Authority Key Identifier: 
                keyid:28:0B:9D:D1:AB:B3:3C:A4:1B:47:79:5C:2B:D1:B9:5F:69:05:89:AF

    Signature Algorithm: bign-with-hbelt
         93:81:d9:74:f4:6f:8a:24:b7:ef:35:c2:f9:26:a6:a8:b9:f0:
         ce:c5:ac:7c:cc:a9:b2:fb:54:fd:43:c1:e7:4e:dc:9c:4c:ff:
         6f:b8:c2:b3:06:93:a4:da:2e:72:76:34
-----BEGIN CERTIFICATE-----
MIICEDCCAcqgAwIBAgICAKkwDQYJKnAAAgAiZS0MBQAwZTEbMBkGA1UEAwwSd3d3
Lm15ZG9tXzE4MTAuY29tMRUwEwYDVQQKDAxNeSBEb20sIEluYy4xCzAJBgNVBAYT
AlVTMQ8wDQYDVQQIDAZPcmVnb24xETAPBgNVBAcMCFBvcnRsYW5kMB4XDTE0MDkx
NzEzMDgzMFoXDTE1MDkxNzEzMDgzMFowTTELMAkGA1UEBhMCVVMxDzANBgNVBAgM
Bk9yZWdvbjEVMBMGA1UECgwMTXkgRG9tLCBJbmMuMRYwFAYDVQQDDA13d3cubXlk
b20uY29tMF0wGAYKKnAAAgAiZS0CAQYKKnAAAgAiZS0DAQNBANfZ5pBMzoJEWyUf
raKt/HSfxRQnA5zRpvr8U7RR+j5wVxiqQ0IxAfnDNd+V+Bk6LF3QZKli/EDOyF/z
1Mhv+nqjezB5MAkGA1UdEwQCMAAwLAYJYIZIAYb4QgENBB8WHU9wZW5TU0wgR2Vu
ZXJhdGVkIENlcnRpZmljYXRlMB0GA1UdDgQWBBRUp0gos4WS0DMtnM/sqDJb+/hQ
2DAfBgNVHSMEGDAWgBQoC53Rq7M8pBtHeVwr0blfaQWJrzANBgkqcAACACJlLQwF
AAMxAJOB2XT0b4okt+81wvkmpqi58M7FrHzMqbL7VP1DwedO3JxM/2+4wrMGk6Ta
LnJ2NA==
-----END CERTIFICATE-----
