Certificate:
    Data:
        Version: 3 (0x2)
        Serial Number: 170 (0xaa)
    Signature Algorithm: bign-with-hbelt
        Issuer: CN=www.mydom_5022.com, O=My Dom, Inc., C=US, ST=Oregon, L=Portland
        Validity
            Not Before: Sep 17 13:09:37 2014 GMT
            Not After : Sep 17 13:09:37 2015 GMT
        Subject: C=US, ST=Oregon, O=My Dom, Inc., CN=www.mydom.com
        Subject Public Key Info:
            Public Key Algorithm: bign-pubkey
                Public key: DD94B1BC9F682075168AA37AC60B6878CECE738AE8E0330A16A8AFAAEFAAD59AC2331331E516709AF03E0CCAB859AFC8FB52C21A6257C1C61B860234407886B4
                Parameter set: bign-curve256v1
        X509v3 extensions:
            X509v3 Basic Constraints: 
                CA:FALSE
            Netscape Comment: 
                OpenSSL Generated Certificate
            X509v3 Subject Key Identifier: 
                D3:9C:8E:D5:FD:AE:EA:00:AB:EE:0C:E9:70:EB:EF:BE:84:70:E9:55
            X509v3 Authority Key Identifier: 
                keyid:2C:A0:67:90:08:45:AD:A7:42:DC:36:7F:B9:2B:D3:20:6B:11:8C:C3

    Signature Algorithm: bign-with-hbelt
         a0:a8:6b:be:f9:d1:d5:94:33:0e:e5:0f:08:20:86:e6:30:a2:
         78:75:01:cd:b6:d8:98:0c:fe:52:9f:82:6e:65:37:27:36:7d:
         f1:59:ca:49:6a:b3:a1:76:7a:3a:69:37
-----BEGIN CERTIFICATE-----
MIICEDCCAcqgAwIBAgICAKowDQYJKnAAAgAiZS0MBQAwZTEbMBkGA1UEAwwSd3d3
Lm15ZG9tXzUwMjIuY29tMRUwEwYDVQQKDAxNeSBEb20sIEluYy4xCzAJBgNVBAYT
AlVTMQ8wDQYDVQQIDAZPcmVnb24xETAPBgNVBAcMCFBvcnRsYW5kMB4XDTE0MDkx
NzEzMDkzN1oXDTE1MDkxNzEzMDkzN1owTTELMAkGA1UEBhMCVVMxDzANBgNVBAgM
Bk9yZWdvbjEVMBMGA1UECgwMTXkgRG9tLCBJbmMuMRYwFAYDVQQDDA13d3cubXlk
b20uY29tMF0wGAYKKnAAAgAiZS0CAQYKKnAAAgAiZS0DAQNBAN2UsbyfaCB1Foqj
esYLaHjOznOK6OAzChaor6rvqtWawjMTMeUWcJrwPgzKuFmvyPtSwhpiV8HGG4YC
NEB4hrSjezB5MAkGA1UdEwQCMAAwLAYJYIZIAYb4QgENBB8WHU9wZW5TU0wgR2Vu
ZXJhdGVkIENlcnRpZmljYXRlMB0GA1UdDgQWBBTTnI7V/a7qAKvuDOlw6+++hHDp
VTAfBgNVHSMEGDAWgBQsoGeQCEWtp0LcNn+5K9MgaxGMwzANBgkqcAACACJlLQwF
AAMxAKCoa7750dWUMw7lDwgghuYwonh1Ac222JgM/lKfgm5lNyc2ffFZyklqs6F2
ejppNw==
-----END CERTIFICATE-----
