Certificate:
    Data:
        Version: 3 (0x2)
        Serial Number: 171 (0xab)
    Signature Algorithm: bign-with-hbelt
        Issuer: CN=www.mydom_7962.com, O=My Dom, Inc., C=US, ST=Oregon, L=Portland
        Validity
            Not Before: Sep 17 13:11:51 2014 GMT
            Not After : Sep 17 13:11:51 2015 GMT
        Subject: C=US, ST=Oregon, O=My Dom, Inc., CN=www.mydom.com
        Subject Public Key Info:
            Public Key Algorithm: bign-pubkey
                Public key: AE23D2D406BF506C6001E098F23364F6716A9760E508FE3A68A38C8C3F77F28C140C48454E99DA0882763651610C59996153E01BD390CC118284CBA53AE68E9F
                Parameter set: bign-curve256v1
        X509v3 extensions:
            X509v3 Basic Constraints: 
                CA:FALSE
            Netscape Comment: 
                OpenSSL Generated Certificate
            X509v3 Subject Key Identifier: 
                37:5E:48:66:7E:CD:E9:0A:F1:41:1A:C9:E8:67:24:5F:0C:E6:D4:88
            X509v3 Authority Key Identifier: 
                keyid:91:F4:79:F1:48:A7:7E:2C:32:3E:4E:7D:2E:D8:B2:52:24:CB:27:F5

    Signature Algorithm: bign-with-hbelt
         a7:0b:47:82:f3:8c:eb:8c:87:0c:38:0e:f9:ab:df:f4:70:a5:
         6a:42:6e:64:af:4b:83:50:fc:44:b0:a8:bb:4e:21:1b:1b:c4:
         5a:bc:18:aa:c1:fb:41:18:7c:2c:1a:8c
-----BEGIN CERTIFICATE-----
MIICEDCCAcqgAwIBAgICAKswDQYJKnAAAgAiZS0MBQAwZTEbMBkGA1UEAwwSd3d3
Lm15ZG9tXzc5NjIuY29tMRUwEwYDVQQKDAxNeSBEb20sIEluYy4xCzAJBgNVBAYT
AlVTMQ8wDQYDVQQIDAZPcmVnb24xETAPBgNVBAcMCFBvcnRsYW5kMB4XDTE0MDkx
NzEzMTE1MVoXDTE1MDkxNzEzMTE1MVowTTELMAkGA1UEBhMCVVMxDzANBgNVBAgM
Bk9yZWdvbjEVMBMGA1UECgwMTXkgRG9tLCBJbmMuMRYwFAYDVQQDDA13d3cubXlk
b20uY29tMF0wGAYKKnAAAgAiZS0CAQYKKnAAAgAiZS0DAQNBAK4j0tQGv1BsYAHg
mPIzZPZxapdg5Qj+OmijjIw/d/KMFAxIRU6Z2giCdjZRYQxZmWFT4BvTkMwRgoTL
pTrmjp+jezB5MAkGA1UdEwQCMAAwLAYJYIZIAYb4QgENBB8WHU9wZW5TU0wgR2Vu
ZXJhdGVkIENlcnRpZmljYXRlMB0GA1UdDgQWBBQ3Xkhmfs3pCvFBGsnoZyRfDObU
iDAfBgNVHSMEGDAWgBSR9HnxSKd+LDI+Tn0u2LJSJMsn9TANBgkqcAACACJlLQwF
AAMxAKcLR4LzjOuMhww4Dvmr3/RwpWpCbmSvS4NQ/ESwqLtOIRsbxFq8GKrB+0EY
fCwajA==
-----END CERTIFICATE-----
