Certificate:
    Data:
        Version: 3 (0x2)
        Serial Number: 172 (0xac)
    Signature Algorithm: bign-with-hbelt
        Issuer: CN=www.mydom_4914.com, O=My Dom, Inc., C=US, ST=Oregon, L=Portland
        Validity
            Not Before: Sep 17 13:12:13 2014 GMT
            Not After : Sep 17 13:12:13 2015 GMT
        Subject: C=US, ST=Oregon, O=My Dom, Inc., CN=www.mydom.com
        Subject Public Key Info:
            Public Key Algorithm: bign-pubkey
                Public key: 299E65A7946379D8AB4D8C11377BEB8A606F1ED4D7302B5F0AA71A143AD5966D24582594123921EA4EC9260B7B5B2BD3B898B8779535F55409ABF50A018D8B7E
                Parameter set: bign-curve256v1
        X509v3 extensions:
            X509v3 Basic Constraints: 
                CA:FALSE
            Netscape Comment: 
                OpenSSL Generated Certificate
            X509v3 Subject Key Identifier: 
                C5:75:63:53:63:54:10:63:B3:26:9C:3A:DB:DF:07:76:50:8D:EA:FD
            X509v3 Authority Key Identifier: 
                keyid:12:EB:43:D6:64:70:3B:CB:84:27:32:0C:72:A6:BC:4D:B6:74:80:9C

    Signature Algorithm: bign-with-hbelt
         3d:d8:05:5e:2a:b9:23:52:93:94:21:0b:4d:7e:cf:dd:b0:d7:
         7c:50:c1:95:f3:c0:31:21:d2:23:62:05:d0:cb:7a:36:43:20:
         fe:bb:bf:70:05:39:b8:2d:ff:18:f5:be
-----BEGIN CERTIFICATE-----
MIICEDCCAcqgAwIBAgICAKwwDQYJKnAAAgAiZS0MBQAwZTEbMBkGA1UEAwwSd3d3
Lm15ZG9tXzQ5MTQuY29tMRUwEwYDVQQKDAxNeSBEb20sIEluYy4xCzAJBgNVBAYT
AlVTMQ8wDQYDVQQIDAZPcmVnb24xETAPBgNVBAcMCFBvcnRsYW5kMB4XDTE0MDkx
NzEzMTIxM1oXDTE1MDkxNzEzMTIxM1owTTELMAkGA1UEBhMCVVMxDzANBgNVBAgM
Bk9yZWdvbjEVMBMGA1UECgwMTXkgRG9tLCBJbmMuMRYwFAYDVQQDDA13d3cubXlk
b20uY29tMF0wGAYKKnAAAgAiZS0CAQYKKnAAAgAiZS0DAQNBACmeZaeUY3nYq02M
ETd764pgbx7U1zArXwqnGhQ61ZZtJFgllBI5IepOySYLe1sr07iYuHeVNfVUCav1
CgGNi36jezB5MAkGA1UdEwQCMAAwLAYJYIZIAYb4QgENBB8WHU9wZW5TU0wgR2Vu
ZXJhdGVkIENlcnRpZmljYXRlMB0GA1UdDgQWBBTFdWNTY1QQY7MmnDrb3wd2UI3q
/TAfBgNVHSMEGDAWgBQS60PWZHA7y4QnMgxyprxNtnSAnDANBgkqcAACACJlLQwF
AAMxAD3YBV4quSNSk5QhC01+z92w13xQwZXzwDEh0iNiBdDLejZDIP67v3AFObgt
/xj1vg==
-----END CERTIFICATE-----
