Certificate:
    Data:
        Version: 3 (0x2)
        Serial Number: 173 (0xad)
    Signature Algorithm: bign-with-hbelt
        Issuer: CN=www.mydom_8757.com, O=My Dom, Inc., C=US, ST=Oregon, L=Portland
        Validity
            Not Before: Sep 17 13:12:45 2014 GMT
            Not After : Sep 17 13:12:45 2015 GMT
        Subject: C=US, ST=Oregon, O=My Dom, Inc., CN=www.mydom.com
        Subject Public Key Info:
            Public Key Algorithm: bign-pubkey
                Public key: BC90CEC98FAE508B2D18C799274C30B7AFA91C5695C297F1045FAD0C193E4F95CAE0664226CAAAF650583995C5478B6F9DAF001B372A5D3B04B5E0897D763A75
                Parameter set: bign-curve256v1
        X509v3 extensions:
            X509v3 Basic Constraints: 
                CA:FALSE
            Netscape Comment: 
                OpenSSL Generated Certificate
            X509v3 Subject Key Identifier: 
                E5:DA:E3:4B:D2:B2:62:30:7D:B0:08:C9:BF:93:82:8A:F7:A2:F9:40
            X509v3 Authority Key Identifier: 
                keyid:9F:9C:C0:A9:04:31:F8:6E:AE:A2:F9:E5:A0:3B:D9:41:F1:26:9A:55

    Signature Algorithm: bign-with-hbelt
         a5:5b:33:ee:cf:9b:65:87:17:c5:8a:75:78:04:c4:37:fb:43:
         df:9a:bd:dc:a0:2e:de:03:45:e4:77:30:eb:2b:7d:77:4f:92:
         85:85:8b:90:50:1c:5c:94:e4:d8:92:77
-----BEGIN CERTIFICATE-----
MIICEDCCAcqgAwIBAgICAK0wDQYJKnAAAgAiZS0MBQAwZTEbMBkGA1UEAwwSd3d3
Lm15ZG9tXzg3NTcuY29tMRUwEwYDVQQKDAxNeSBEb20sIEluYy4xCzAJBgNVBAYT
AlVTMQ8wDQYDVQQIDAZPcmVnb24xETAPBgNVBAcMCFBvcnRsYW5kMB4XDTE0MDkx
NzEzMTI0NVoXDTE1MDkxNzEzMTI0NVowTTELMAkGA1UEBhMCVVMxDzANBgNVBAgM
Bk9yZWdvbjEVMBMGA1UECgwMTXkgRG9tLCBJbmMuMRYwFAYDVQQDDA13d3cubXlk
b20uY29tMF0wGAYKKnAAAgAiZS0CAQYKKnAAAgAiZS0DAQNBALyQzsmPrlCLLRjH
mSdMMLevqRxWlcKX8QRfrQwZPk+VyuBmQibKqvZQWDmVxUeLb52vABs3Kl07BLXg
iX12OnWjezB5MAkGA1UdEwQCMAAwLAYJYIZIAYb4QgENBB8WHU9wZW5TU0wgR2Vu
ZXJhdGVkIENlcnRpZmljYXRlMB0GA1UdDgQWBBTl2uNL0rJiMH2wCMm/k4KK96L5
QDAfBgNVHSMEGDAWgBSfnMCpBDH4bq6i+eWgO9lB8SaaVTANBgkqcAACACJlLQwF
AAMxAKVbM+7Pm2WHF8WKdXgExDf7Q9+avdygLt4DReR3MOsrfXdPkoWFi5BQHFyU
5NiSdw==
-----END CERTIFICATE-----
