Certificate:
    Data:
        Version: 3 (0x2)
        Serial Number: 174 (0xae)
    Signature Algorithm: bign-with-hbelt
        Issuer: CN=www.mydom_5737.com, O=My Dom, Inc., C=US, ST=Oregon, L=Portland
        Validity
            Not Before: Sep 17 13:13:25 2014 GMT
            Not After : Sep 17 13:13:25 2015 GMT
        Subject: C=US, ST=Oregon, O=My Dom, Inc., CN=www.mydom.com
        Subject Public Key Info:
            Public Key Algorithm: bign-pubkey
                Public key: 752BDC5DDF78AD3F08643C10ED0184348BAC34B1E21C948D693A7BC22B8AB2D3EFF85EC3469E0F9FA045CFDAA4FC4D5C6D274818CD71B610B6064DF989C4EB1F
                Parameter set: bign-curve256v1
        X509v3 extensions:
            X509v3 Basic Constraints: 
                CA:FALSE
            Netscape Comment: 
                OpenSSL Generated Certificate
            X509v3 Subject Key Identifier: 
                DF:74:35:CB:E5:5D:6D:C5:BE:F4:67:43:96:EE:53:FD:BE:E9:43:E7
            X509v3 Authority Key Identifier: 
                keyid:3C:78:31:C5:BD:84:6C:C5:14:65:B4:08:D2:51:96:F5:AD:BE:0B:AD

    Signature Algorithm: bign-with-hbelt
         16:8d:d6:67:51:09:0d:1f:68:8e:f2:49:2c:ac:2d:31:4e:b5:
         f4:89:08:f4:59:62:eb:bc:29:f3:a5:56:69:f5:53:3e:22:07:
         cd:53:e1:f6:0f:26:a5:f8:6b:7a:c3:56
-----BEGIN CERTIFICATE-----
MIICEDCCAcqgAwIBAgICAK4wDQYJKnAAAgAiZS0MBQAwZTEbMBkGA1UEAwwSd3d3
Lm15ZG9tXzU3MzcuY29tMRUwEwYDVQQKDAxNeSBEb20sIEluYy4xCzAJBgNVBAYT
AlVTMQ8wDQYDVQQIDAZPcmVnb24xETAPBgNVBAcMCFBvcnRsYW5kMB4XDTE0MDkx
NzEzMTMyNVoXDTE1MDkxNzEzMTMyNVowTTELMAkGA1UEBhMCVVMxDzANBgNVBAgM
Bk9yZWdvbjEVMBMGA1UECgwMTXkgRG9tLCBJbmMuMRYwFAYDVQQDDA13d3cubXlk
b20uY29tMF0wGAYKKnAAAgAiZS0CAQYKKnAAAgAiZS0DAQNBAHUr3F3feK0/CGQ8
EO0BhDSLrDSx4hyUjWk6e8IrirLT7/hew0aeD5+gRc/apPxNXG0nSBjNcbYQtgZN
+YnE6x+jezB5MAkGA1UdEwQCMAAwLAYJYIZIAYb4QgENBB8WHU9wZW5TU0wgR2Vu
ZXJhdGVkIENlcnRpZmljYXRlMB0GA1UdDgQWBBTfdDXL5V1txb70Z0OW7lP9vulD
5zAfBgNVHSMEGDAWgBQ8eDHFvYRsxRRltAjSUZb1rb4LrTANBgkqcAACACJlLQwF
AAMxABaN1mdRCQ0faI7ySSysLTFOtfSJCPRZYuu8KfOlVmn1Uz4iB81T4fYPJqX4
a3rDVg==
-----END CERTIFICATE-----
