Certificate:
    Data:
        Version: 3 (0x2)
        Serial Number: 175 (0xaf)
    Signature Algorithm: bign-with-hbelt
        Issuer: CN=www.mydom_2830.com, O=My Dom, Inc., C=US, ST=Oregon, L=Portland
        Validity
            Not Before: Sep 17 13:14:43 2014 GMT
            Not After : Sep 17 13:14:43 2015 GMT
        Subject: C=US, ST=Oregon, O=My Dom, Inc., CN=www.mydom.com
        Subject Public Key Info:
            Public Key Algorithm: bign-pubkey
                Public key: E0D792382BED2C1A3727A5789E5F1CD0C5587DC24A095AC66158FC333E39A35AF2046EA15E631C32A0B8ECFDCEDE7649ADEC35F72FE6E6598D85C93730D4A276
                Parameter set: bign-curve256v1
        X509v3 extensions:
            X509v3 Basic Constraints: 
                CA:FALSE
            Netscape Comment: 
                OpenSSL Generated Certificate
            X509v3 Subject Key Identifier: 
                59:DD:72:FE:07:0B:C2:20:84:60:FB:A1:4C:EB:D9:B2:AD:0C:83:1B
            X509v3 Authority Key Identifier: 
                keyid:A3:5B:0C:C6:A4:16:F1:96:49:27:3A:CB:0B:93:A7:AD:7C:56:1F:BF

    Signature Algorithm: bign-with-hbelt
         79:78:41:a7:ec:7c:cb:1d:d5:4a:18:13:e9:3a:d2:b0:1c:fa:
         30:e0:e9:1a:65:89:5b:a9:c7:ba:76:2e:26:57:20:fe:02:7b:
         cc:40:e6:ca:09:f4:92:e3:3a:34:3d:e1
-----BEGIN CERTIFICATE-----
MIICEDCCAcqgAwIBAgICAK8wDQYJKnAAAgAiZS0MBQAwZTEbMBkGA1UEAwwSd3d3
Lm15ZG9tXzI4MzAuY29tMRUwEwYDVQQKDAxNeSBEb20sIEluYy4xCzAJBgNVBAYT
AlVTMQ8wDQYDVQQIDAZPcmVnb24xETAPBgNVBAcMCFBvcnRsYW5kMB4XDTE0MDkx
NzEzMTQ0M1oXDTE1MDkxNzEzMTQ0M1owTTELMAkGA1UEBhMCVVMxDzANBgNVBAgM
Bk9yZWdvbjEVMBMGA1UECgwMTXkgRG9tLCBJbmMuMRYwFAYDVQQDDA13d3cubXlk
b20uY29tMF0wGAYKKnAAAgAiZS0CAQYKKnAAAgAiZS0DAQNBAODXkjgr7SwaNyel
eJ5fHNDFWH3CSglaxmFY/DM+OaNa8gRuoV5jHDKguOz9zt52Sa3sNfcv5uZZjYXJ
NzDUonajezB5MAkGA1UdEwQCMAAwLAYJYIZIAYb4QgENBB8WHU9wZW5TU0wgR2Vu
ZXJhdGVkIENlcnRpZmljYXRlMB0GA1UdDgQWBBRZ3XL+BwvCIIRg+6FM69myrQyD
GzAfBgNVHSMEGDAWgBSjWwzGpBbxlkknOssLk6etfFYfvzANBgkqcAACACJlLQwF
AAMxAHl4QafsfMsd1UoYE+k60rAc+jDg6RpliVupx7p2LiZXIP4Ce8xA5soJ9JLj
OjQ94Q==
-----END CERTIFICATE-----
