Certificate:
    Data:
        Version: 3 (0x2)
        Serial Number: 176 (0xb0)
    Signature Algorithm: bign-with-hbelt
        Issuer: CN=www.mydom_5515.com, O=My Dom, Inc., C=US, ST=Oregon, L=Portland
        Validity
            Not Before: Sep 17 13:15:30 2014 GMT
            Not After : Sep 17 13:15:30 2015 GMT
        Subject: C=US, ST=Oregon, O=My Dom, Inc., CN=www.mydom.com
        Subject Public Key Info:
            Public Key Algorithm: bign-pubkey
                Public key: 4A2BF76FA40BE89C4A488E9F5B7DAC2D75AF9FA6A8290A9E46BCA704B4B281CC009DB94EC90F60D0D2E4C284CE99484E41A91EDDCB2F45C0840519CD71A150BA
                Parameter set: bign-curve256v1
        X509v3 extensions:
            X509v3 Basic Constraints: 
                CA:FALSE
            Netscape Comment: 
                OpenSSL Generated Certificate
            X509v3 Subject Key Identifier: 
                E6:D2:3D:F3:73:C0:C1:91:8B:80:2D:B4:08:11:1B:E9:06:DC:61:90
            X509v3 Authority Key Identifier: 
                keyid:13:16:C6:CA:C1:BE:26:28:1F:52:EB:4A:D9:82:54:45:69:B6:F0:7C

    Signature Algorithm: bign-with-hbelt
         91:e7:10:af:c5:c7:38:15:40:c4:ba:5c:8e:c7:51:32:d2:47:
         56:9a:19:76:2f:7e:35:a4:9c:c4:88:f0:51:67:d1:28:32:7f:
         80:05:6d:51:1c:e5:43:f7:97:6e:bb:2f
-----BEGIN CERTIFICATE-----
MIICEDCCAcqgAwIBAgICALAwDQYJKnAAAgAiZS0MBQAwZTEbMBkGA1UEAwwSd3d3
Lm15ZG9tXzU1MTUuY29tMRUwEwYDVQQKDAxNeSBEb20sIEluYy4xCzAJBgNVBAYT
AlVTMQ8wDQYDVQQIDAZPcmVnb24xETAPBgNVBAcMCFBvcnRsYW5kMB4XDTE0MDkx
NzEzMTUzMFoXDTE1MDkxNzEzMTUzMFowTTELMAkGA1UEBhMCVVMxDzANBgNVBAgM
Bk9yZWdvbjEVMBMGA1UECgwMTXkgRG9tLCBJbmMuMRYwFAYDVQQDDA13d3cubXlk
b20uY29tMF0wGAYKKnAAAgAiZS0CAQYKKnAAAgAiZS0DAQNBAEor92+kC+icSkiO
n1t9rC11r5+mqCkKnka8pwS0soHMAJ25TskPYNDS5MKEzplITkGpHt3LL0XAhAUZ
zXGhULqjezB5MAkGA1UdEwQCMAAwLAYJYIZIAYb4QgENBB8WHU9wZW5TU0wgR2Vu
ZXJhdGVkIENlcnRpZmljYXRlMB0GA1UdDgQWBBTm0j3zc8DBkYuALbQIERvpBtxh
kDAfBgNVHSMEGDAWgBQTFsbKwb4mKB9S60rZglRFabbwfDANBgkqcAACACJlLQwF
AAMxAJHnEK/FxzgVQMS6XI7HUTLSR1aaGXYvfjWknMSI8FFn0Sgyf4AFbVEc5UP3
l267Lw==
-----END CERTIFICATE-----
