Certificate:
    Data:
        Version: 3 (0x2)
        Serial Number: 177 (0xb1)
    Signature Algorithm: bign-with-hbelt
        Issuer: CN=www.mydom_5795.com, O=My Dom, Inc., C=US, ST=Oregon, L=Portland
        Validity
            Not Before: Sep 17 13:16:10 2014 GMT
            Not After : Sep 17 13:16:10 2015 GMT
        Subject: C=US, ST=Oregon, O=My Dom, Inc., CN=www.mydom.com
        Subject Public Key Info:
            Public Key Algorithm: bign-pubkey
                Public key: 63FC1DA97A5EF949269CA34B78895E20AE57ED840414FE696E7F2B6A451E7FFD46831C95D9775AB88B4B02F84D8BCDA441A2C34D29C1DC37F2751E9C21E052D2
                Parameter set: bign-curve256v1
        X509v3 extensions:
            X509v3 Basic Constraints: 
                CA:FALSE
            Netscape Comment: 
                OpenSSL Generated Certificate
            X509v3 Subject Key Identifier: 
                8A:16:B3:26:42:00:98:7B:E2:80:83:2E:D0:58:21:E7:E4:3A:31:47
            X509v3 Authority Key Identifier: 
                keyid:70:4A:4F:B2:7B:26:B9:D2:C6:D5:45:8D:A5:08:C3:24:08:9B:61:63

    Signature Algorithm: bign-with-hbelt
         2b:d0:e8:ae:8a:6e:70:a4:71:4f:34:1f:b1:95:54:8c:e6:7e:
         38:d1:ff:69:61:c0:16:37:9e:f9:1c:6a:72:c1:32:db:4c:76:
         3b:64:b4:e3:b2:5c:87:e4:d7:f2:70:e1
-----BEGIN CERTIFICATE-----
MIICEDCCAcqgAwIBAgICALEwDQYJKnAAAgAiZS0MBQAwZTEbMBkGA1UEAwwSd3d3
Lm15ZG9tXzU3OTUuY29tMRUwEwYDVQQKDAxNeSBEb20sIEluYy4xCzAJBgNVBAYT
AlVTMQ8wDQYDVQQIDAZPcmVnb24xETAPBgNVBAcMCFBvcnRsYW5kMB4XDTE0MDkx
NzEzMTYxMFoXDTE1MDkxNzEzMTYxMFowTTELMAkGA1UEBhMCVVMxDzANBgNVBAgM
Bk9yZWdvbjEVMBMGA1UECgwMTXkgRG9tLCBJbmMuMRYwFAYDVQQDDA13d3cubXlk
b20uY29tMF0wGAYKKnAAAgAiZS0CAQYKKnAAAgAiZS0DAQNBAGP8Hal6XvlJJpyj
S3iJXiCuV+2EBBT+aW5/K2pFHn/9RoMcldl3WriLSwL4TYvNpEGiw00pwdw38nUe
nCHgUtKjezB5MAkGA1UdEwQCMAAwLAYJYIZIAYb4QgENBB8WHU9wZW5TU0wgR2Vu
ZXJhdGVkIENlcnRpZmljYXRlMB0GA1UdDgQWBBSKFrMmQgCYe+KAgy7QWCHn5Dox
RzAfBgNVHSMEGDAWgBRwSk+yeya50sbVRY2lCMMkCJthYzANBgkqcAACACJlLQwF
AAMxACvQ6K6KbnCkcU80H7GVVIzmfjjR/2lhwBY3nvkcanLBMttMdjtktOOyXIfk
1/Jw4Q==
-----END CERTIFICATE-----
