Certificate:
    Data:
        Version: 3 (0x2)
        Serial Number: 178 (0xb2)
    Signature Algorithm: bign-with-hbelt
        Issuer: CN=www.mydom_4674.com, O=My Dom, Inc., C=US, ST=Oregon, L=Portland
        Validity
            Not Before: Sep 17 13:16:47 2014 GMT
            Not After : Sep 17 13:16:47 2015 GMT
        Subject: C=US, ST=Oregon, O=My Dom, Inc., CN=www.mydom.com
        Subject Public Key Info:
            Public Key Algorithm: bign-pubkey
                Public key: 52A0791136877B725D38B5C816594254EFFD5AAB708250BAA1FBB9F9E8F120F9C1D7DE752E5147C0446EC3739EA4D33859A12748E98DAD6F1A0A59360A635A24
                Parameter set: bign-curve256v1
        X509v3 extensions:
            X509v3 Basic Constraints: 
                CA:FALSE
            Netscape Comment: 
                OpenSSL Generated Certificate
            X509v3 Subject Key Identifier: 
                68:83:65:01:A5:EA:55:59:6F:3C:BB:57:5F:9E:47:32:C6:6A:C4:F6
            X509v3 Authority Key Identifier: 
                keyid:61:A5:FE:E4:AC:7D:7E:72:A1:DE:CB:70:FC:A8:0E:D7:1A:40:3E:BA

    Signature Algorithm: bign-with-hbelt
         2f:9f:bb:75:41:68:aa:15:b0:8f:d1:08:4f:a8:1c:3c:f3:df:
         72:3e:4a:37:37:ee:7e:69:3b:1d:e4:76:1d:a4:99:86:9f:db:
         69:4a:c1:d4:a0:c0:ab:30:7d:87:d9:eb
-----BEGIN CERTIFICATE-----
MIICEDCCAcqgAwIBAgICALIwDQYJKnAAAgAiZS0MBQAwZTEbMBkGA1UEAwwSd3d3
Lm15ZG9tXzQ2NzQuY29tMRUwEwYDVQQKDAxNeSBEb20sIEluYy4xCzAJBgNVBAYT
AlVTMQ8wDQYDVQQIDAZPcmVnb24xETAPBgNVBAcMCFBvcnRsYW5kMB4XDTE0MDkx
NzEzMTY0N1oXDTE1MDkxNzEzMTY0N1owTTELMAkGA1UEBhMCVVMxDzANBgNVBAgM
Bk9yZWdvbjEVMBMGA1UECgwMTXkgRG9tLCBJbmMuMRYwFAYDVQQDDA13d3cubXlk
b20uY29tMF0wGAYKKnAAAgAiZS0CAQYKKnAAAgAiZS0DAQNBAFKgeRE2h3tyXTi1
yBZZQlTv/VqrcIJQuqH7ufno8SD5wdfedS5RR8BEbsNznqTTOFmhJ0jpja1vGgpZ
NgpjWiSjezB5MAkGA1UdEwQCMAAwLAYJYIZIAYb4QgENBB8WHU9wZW5TU0wgR2Vu
ZXJhdGVkIENlcnRpZmljYXRlMB0GA1UdDgQWBBRog2UBpepVWW88u1dfnkcyxmrE
9jAfBgNVHSMEGDAWgBRhpf7krH1+cqHey3D8qA7XGkA+ujANBgkqcAACACJlLQwF
AAMxAC+fu3VBaKoVsI/RCE+oHDzz33I+Sjc37n5pOx3kdh2kmYaf22lKwdSgwKsw
fYfZ6w==
-----END CERTIFICATE-----
