Certificate:
    Data:
        Version: 3 (0x2)
        Serial Number: 179 (0xb3)
    Signature Algorithm: bign-with-hbelt
        Issuer: CN=www.mydom_1647.com, O=My Dom, Inc., C=US, ST=Oregon, L=Portland
        Validity
            Not Before: Sep 17 13:17:20 2014 GMT
            Not After : Sep 17 13:17:20 2015 GMT
        Subject: C=US, ST=Oregon, O=My Dom, Inc., CN=www.mydom.com
        Subject Public Key Info:
            Public Key Algorithm: bign-pubkey
                Public key: BB503B1DE610D31779EB6F325655853B78F40064F663F2F0CF581488F661F6F7559DE4AB2C6BEAA8458D71BE667C9919380F66EFE9528F85D3DD538D9A6EBBC9
                Parameter set: bign-curve256v1
        X509v3 extensions:
            X509v3 Basic Constraints: 
                CA:FALSE
            Netscape Comment: 
                OpenSSL Generated Certificate
            X509v3 Subject Key Identifier: 
                C1:8D:13:F5:18:F2:0D:06:FE:B4:4F:6D:C9:A0:A3:50:FB:65:86:A0
            X509v3 Authority Key Identifier: 
                keyid:79:FB:17:70:1F:2F:7D:E8:D0:D3:4B:0D:5A:BF:A4:71:29:25:BE:D4

    Signature Algorithm: bign-with-hbelt
         ad:c6:13:1d:a8:a7:63:5a:9b:50:a2:6f:27:b3:5b:83:71:5f:
         4b:e2:20:c6:33:91:29:a0:b5:0a:3d:67:27:ac:c2:0e:91:6c:
         15:49:f1:4a:f2:cb:59:db:11:f5:76:58
-----BEGIN CERTIFICATE-----
MIICEDCCAcqgAwIBAgICALMwDQYJKnAAAgAiZS0MBQAwZTEbMBkGA1UEAwwSd3d3
Lm15ZG9tXzE2NDcuY29tMRUwEwYDVQQKDAxNeSBEb20sIEluYy4xCzAJBgNVBAYT
AlVTMQ8wDQYDVQQIDAZPcmVnb24xETAPBgNVBAcMCFBvcnRsYW5kMB4XDTE0MDkx
NzEzMTcyMFoXDTE1MDkxNzEzMTcyMFowTTELMAkGA1UEBhMCVVMxDzANBgNVBAgM
Bk9yZWdvbjEVMBMGA1UECgwMTXkgRG9tLCBJbmMuMRYwFAYDVQQDDA13d3cubXlk
b20uY29tMF0wGAYKKnAAAgAiZS0CAQYKKnAAAgAiZS0DAQNBALtQOx3mENMXeetv
MlZVhTt49ABk9mPy8M9YFIj2Yfb3VZ3kqyxr6qhFjXG+ZnyZGTgPZu/pUo+F091T
jZpuu8mjezB5MAkGA1UdEwQCMAAwLAYJYIZIAYb4QgENBB8WHU9wZW5TU0wgR2Vu
ZXJhdGVkIENlcnRpZmljYXRlMB0GA1UdDgQWBBTBjRP1GPINBv60T23JoKNQ+2WG
oDAfBgNVHSMEGDAWgBR5+xdwHy996NDTSw1av6RxKSW+1DANBgkqcAACACJlLQwF
AAMxAK3GEx2op2Nam1CibyezW4NxX0viIMYzkSmgtQo9Zyeswg6RbBVJ8Uryy1nb
EfV2WA==
-----END CERTIFICATE-----
