Certificate:
    Data:
        Version: 3 (0x2)
        Serial Number: 180 (0xb4)
    Signature Algorithm: bign-with-hbelt
        Issuer: CN=www.mydom_1073.com, O=My Dom, Inc., C=US, ST=Oregon, L=Portland
        Validity
            Not Before: Sep 17 13:17:24 2014 GMT
            Not After : Sep 17 13:17:24 2015 GMT
        Subject: C=US, ST=Oregon, O=My Dom, Inc., CN=www.mydom.com
        Subject Public Key Info:
            Public Key Algorithm: bign-pubkey
                Public key: 2D4B9DAB6B1849925093DB703C9130E3EA0A66460F9338DB6D78A5E32C14DE065A217E7342EE4537FA1CBCB8DBC51E49BF24FDBA3D77C4BA74E9B943C8BB8E1C
                Parameter set: bign-curve256v1
        X509v3 extensions:
            X509v3 Basic Constraints: 
                CA:FALSE
            Netscape Comment: 
                OpenSSL Generated Certificate
            X509v3 Subject Key Identifier: 
                A5:F5:7B:E1:D4:B0:89:68:84:0C:4B:5C:FF:DF:8F:FE:10:94:9D:DB
            X509v3 Authority Key Identifier: 
                keyid:07:B0:0D:7B:87:FE:82:57:C0:33:A3:43:5C:68:90:F7:AF:86:D1:7F

    Signature Algorithm: bign-with-hbelt
         6f:e8:48:b7:db:94:b4:49:ab:14:a4:f6:cc:a1:7a:02:68:aa:
         9e:72:36:01:6e:f6:ff:19:af:40:6a:6a:e4:96:a7:54:fb:58:
         75:24:ed:63:4b:5c:b1:e3:cc:f9:1f:bc
-----BEGIN CERTIFICATE-----
MIICEDCCAcqgAwIBAgICALQwDQYJKnAAAgAiZS0MBQAwZTEbMBkGA1UEAwwSd3d3
Lm15ZG9tXzEwNzMuY29tMRUwEwYDVQQKDAxNeSBEb20sIEluYy4xCzAJBgNVBAYT
AlVTMQ8wDQYDVQQIDAZPcmVnb24xETAPBgNVBAcMCFBvcnRsYW5kMB4XDTE0MDkx
NzEzMTcyNFoXDTE1MDkxNzEzMTcyNFowTTELMAkGA1UEBhMCVVMxDzANBgNVBAgM
Bk9yZWdvbjEVMBMGA1UECgwMTXkgRG9tLCBJbmMuMRYwFAYDVQQDDA13d3cubXlk
b20uY29tMF0wGAYKKnAAAgAiZS0CAQYKKnAAAgAiZS0DAQNBAC1LnatrGEmSUJPb
cDyRMOPqCmZGD5M42214peMsFN4GWiF+c0LuRTf6HLy428UeSb8k/bo9d8S6dOm5
Q8i7jhyjezB5MAkGA1UdEwQCMAAwLAYJYIZIAYb4QgENBB8WHU9wZW5TU0wgR2Vu
ZXJhdGVkIENlcnRpZmljYXRlMB0GA1UdDgQWBBSl9Xvh1LCJaIQMS1z/34/+EJSd
2zAfBgNVHSMEGDAWgBQHsA17h/6CV8Azo0NcaJD3r4bRfzANBgkqcAACACJlLQwF
AAMxAG/oSLfblLRJqxSk9syhegJoqp5yNgFu9v8Zr0BqauSWp1T7WHUk7WNLXLHj
zPkfvA==
-----END CERTIFICATE-----
