Certificate:
    Data:
        Version: 3 (0x2)
        Serial Number: 183 (0xb7)
    Signature Algorithm: bign-with-hbelt
        Issuer: CN=www.mydom_5577.com, O=My Dom, Inc., C=US, ST=Oregon, L=Portland
        Validity
            Not Before: Sep 17 13:17:25 2014 GMT
            Not After : Sep 17 13:17:25 2015 GMT
        Subject: C=US, ST=Oregon, O=My Dom, Inc., CN=www.mydom.com
        Subject Public Key Info:
            Public Key Algorithm: bign-pubkey
                Public key: C2E5298944D988CBE48300191FC8826D3DF3E516457EC8CCF9DC5D1F716CC831A57C8A46FAAA9E6DF9EBFEB4E6CEA0B036E8FBDB8B0480380516AC6B9B32E88F
                Parameter set: bign-curve256v1
        X509v3 extensions:
            X509v3 Basic Constraints: 
                CA:FALSE
            Netscape Comment: 
                OpenSSL Generated Certificate
            X509v3 Subject Key Identifier: 
                A3:2C:8C:79:4B:AD:85:33:AA:E4:C1:7B:26:94:64:45:12:00:A6:A8
            X509v3 Authority Key Identifier: 
                keyid:1B:3F:B7:45:B6:C5:53:B0:49:86:EB:17:80:C0:28:E5:A0:3D:1E:BC

    Signature Algorithm: bign-with-hbelt
         cb:10:a6:80:19:7a:a8:48:aa:08:55:06:60:ab:e8:54:ea:a4:
         bb:2b:21:1b:33:54:c5:93:8c:72:d3:bf:d2:d1:ce:b3:64:cb:
         0c:92:5d:0a:42:3e:60:6e:da:39:9b:5d
-----BEGIN CERTIFICATE-----
MIICEDCCAcqgAwIBAgICALcwDQYJKnAAAgAiZS0MBQAwZTEbMBkGA1UEAwwSd3d3
Lm15ZG9tXzU1NzcuY29tMRUwEwYDVQQKDAxNeSBEb20sIEluYy4xCzAJBgNVBAYT
AlVTMQ8wDQYDVQQIDAZPcmVnb24xETAPBgNVBAcMCFBvcnRsYW5kMB4XDTE0MDkx
NzEzMTcyNVoXDTE1MDkxNzEzMTcyNVowTTELMAkGA1UEBhMCVVMxDzANBgNVBAgM
Bk9yZWdvbjEVMBMGA1UECgwMTXkgRG9tLCBJbmMuMRYwFAYDVQQDDA13d3cubXlk
b20uY29tMF0wGAYKKnAAAgAiZS0CAQYKKnAAAgAiZS0DAQNBAMLlKYlE2YjL5IMA
GR/Igm098+UWRX7IzPncXR9xbMgxpXyKRvqqnm356/605s6gsDbo+9uLBIA4BRas
a5sy6I+jezB5MAkGA1UdEwQCMAAwLAYJYIZIAYb4QgENBB8WHU9wZW5TU0wgR2Vu
ZXJhdGVkIENlcnRpZmljYXRlMB0GA1UdDgQWBBSjLIx5S62FM6rkwXsmlGRFEgCm
qDAfBgNVHSMEGDAWgBQbP7dFtsVTsEmG6xeAwCjloD0evDANBgkqcAACACJlLQwF
AAMxAMsQpoAZeqhIqghVBmCr6FTqpLsrIRszVMWTjHLTv9LRzrNkywySXQpCPmBu
2jmbXQ==
-----END CERTIFICATE-----
