Certificate:
    Data:
        Version: 3 (0x2)
        Serial Number: 185 (0xb9)
    Signature Algorithm: bign-with-hbelt
        Issuer: CN=www.mydom_5577.com, O=My Dom, Inc., C=US, ST=Oregon, L=Portland
        Validity
            Not Before: Sep 17 13:17:25 2014 GMT
            Not After : Sep 17 13:17:25 2015 GMT
        Subject: C=US, ST=Oregon, O=My Dom, Inc., CN=www.mydom.com
        Subject Public Key Info:
            Public Key Algorithm: bign-pubkey
                Public key: C2E5298944D988CBE48300191FC8826D3DF3E516457EC8CCF9DC5D1F716CC831A57C8A46FAAA9E6DF9EBFEB4E6CEA0B036E8FBDB8B0480380516AC6B9B32E88F
                Parameter set: bign-curve256v1
        X509v3 extensions:
            X509v3 Basic Constraints: 
                CA:FALSE
            Netscape Comment: 
                OpenSSL Generated Certificate
            X509v3 Subject Key Identifier: 
                A3:2C:8C:79:4B:AD:85:33:AA:E4:C1:7B:26:94:64:45:12:00:A6:A8
            X509v3 Authority Key Identifier: 
                keyid:1B:3F:B7:45:B6:C5:53:B0:49:86:EB:17:80:C0:28:E5:A0:3D:1E:BC

    Signature Algorithm: bign-with-hbelt
         de:28:c0:45:ed:8e:e7:24:c3:bf:6c:63:2f:6c:7a:95:08:b0:
         18:99:21:fe:1f:3b:13:2c:2b:b7:bb:d7:71:5f:a3:19:0c:3b:
         b8:ed:0c:99:fa:5e:60:d3:10:ba:20:f8
-----BEGIN CERTIFICATE-----
MIICEDCCAcqgAwIBAgICALkwDQYJKnAAAgAiZS0MBQAwZTEbMBkGA1UEAwwSd3d3
Lm15ZG9tXzU1NzcuY29tMRUwEwYDVQQKDAxNeSBEb20sIEluYy4xCzAJBgNVBAYT
AlVTMQ8wDQYDVQQIDAZPcmVnb24xETAPBgNVBAcMCFBvcnRsYW5kMB4XDTE0MDkx
NzEzMTcyNVoXDTE1MDkxNzEzMTcyNVowTTELMAkGA1UEBhMCVVMxDzANBgNVBAgM
Bk9yZWdvbjEVMBMGA1UECgwMTXkgRG9tLCBJbmMuMRYwFAYDVQQDDA13d3cubXlk
b20uY29tMF0wGAYKKnAAAgAiZS0CAQYKKnAAAgAiZS0DAQNBAMLlKYlE2YjL5IMA
GR/Igm098+UWRX7IzPncXR9xbMgxpXyKRvqqnm356/605s6gsDbo+9uLBIA4BRas
a5sy6I+jezB5MAkGA1UdEwQCMAAwLAYJYIZIAYb4QgENBB8WHU9wZW5TU0wgR2Vu
ZXJhdGVkIENlcnRpZmljYXRlMB0GA1UdDgQWBBSjLIx5S62FM6rkwXsmlGRFEgCm
qDAfBgNVHSMEGDAWgBQbP7dFtsVTsEmG6xeAwCjloD0evDANBgkqcAACACJlLQwF
AAMxAN4owEXtjuckw79sYy9sepUIsBiZIf4fOxMsK7e713FfoxkMO7jtDJn6XmDT
ELog+A==
-----END CERTIFICATE-----
