Certificate:
    Data:
        Version: 3 (0x2)
        Serial Number: 187 (0xbb)
    Signature Algorithm: bign-with-hbelt
        Issuer: CN=www.mydom_4719.com, O=My Dom, Inc., C=US, ST=Oregon, L=Portland
        Validity
            Not Before: Sep 17 13:18:13 2014 GMT
            Not After : Sep 17 13:18:13 2015 GMT
        Subject: C=US, ST=Oregon, O=My Dom, Inc., CN=www.mydom.com
        Subject Public Key Info:
            Public Key Algorithm: bign-pubkey
                Public key: 8C6D200A5EFDA6905C62D02F9FDB9B322C11BD2266505EC36FA79BB0646AAD45EAF836FCFAC24A9E422D747BF2A9BC5FEF3DAE5F0A6BED3E998BD7F0AAE6D23C
                Parameter set: bign-curve256v1
        X509v3 extensions:
            X509v3 Basic Constraints: 
                CA:FALSE
            Netscape Comment: 
                OpenSSL Generated Certificate
            X509v3 Subject Key Identifier: 
                1B:8E:11:61:2A:FC:B7:68:00:5A:9B:E3:D3:92:C1:D0:14:4A:1E:9A
            X509v3 Authority Key Identifier: 
                keyid:42:37:B0:8C:4C:E4:C6:E8:BB:63:A0:D5:46:ED:3A:29:40:59:05:71

    Signature Algorithm: bign-with-hbelt
         b5:c4:f8:f5:2c:a3:8e:57:ea:cb:54:f2:10:c5:a7:c0:b7:25:
         49:57:9c:50:ea:72:db:47:ed:ea:47:a6:0c:a0:7f:d9:aa:3d:
         cc:a3:a1:f0:cf:70:e3:51:05:f6:1c:ad
-----BEGIN CERTIFICATE-----
MIICEDCCAcqgAwIBAgICALswDQYJKnAAAgAiZS0MBQAwZTEbMBkGA1UEAwwSd3d3
Lm15ZG9tXzQ3MTkuY29tMRUwEwYDVQQKDAxNeSBEb20sIEluYy4xCzAJBgNVBAYT
AlVTMQ8wDQYDVQQIDAZPcmVnb24xETAPBgNVBAcMCFBvcnRsYW5kMB4XDTE0MDkx
NzEzMTgxM1oXDTE1MDkxNzEzMTgxM1owTTELMAkGA1UEBhMCVVMxDzANBgNVBAgM
Bk9yZWdvbjEVMBMGA1UECgwMTXkgRG9tLCBJbmMuMRYwFAYDVQQDDA13d3cubXlk
b20uY29tMF0wGAYKKnAAAgAiZS0CAQYKKnAAAgAiZS0DAQNBAIxtIApe/aaQXGLQ
L5/bmzIsEb0iZlBew2+nm7Bkaq1F6vg2/PrCSp5CLXR78qm8X+89rl8Ka+0+mYvX
8Krm0jyjezB5MAkGA1UdEwQCMAAwLAYJYIZIAYb4QgENBB8WHU9wZW5TU0wgR2Vu
ZXJhdGVkIENlcnRpZmljYXRlMB0GA1UdDgQWBBQbjhFhKvy3aABam+PTksHQFEoe
mjAfBgNVHSMEGDAWgBRCN7CMTOTG6LtjoNVG7TopQFkFcTANBgkqcAACACJlLQwF
AAMxALXE+PUso45X6stU8hDFp8C3JUlXnFDqcttH7epHpgygf9mqPcyjofDPcONR
BfYcrQ==
-----END CERTIFICATE-----
