Certificate:
    Data:
        Version: 3 (0x2)
        Serial Number: 193 (0xc1)
    Signature Algorithm: bign-with-hbelt
        Issuer: CN=www.mydom_4098.com, O=My Dom, Inc., C=US, ST=Oregon, L=Portland
        Validity
            Not Before: Sep 17 13:18:14 2014 GMT
            Not After : Sep 17 13:18:14 2015 GMT
        Subject: C=US, ST=Oregon, O=My Dom, Inc., CN=www.mydom.com
        Subject Public Key Info:
            Public Key Algorithm: bign-pubkey
                Public key: 20E46C4CCD61AE4071F5991B66391E6FA97DF14C9A2D3818790EA21DEB989A4833DC055AA240873E5B2930032C31FA6CE03A9A9133F22091E84EC7182D969C78
                Parameter set: bign-curve256v1
        X509v3 extensions:
            X509v3 Basic Constraints: 
                CA:FALSE
            Netscape Comment: 
                OpenSSL Generated Certificate
            X509v3 Subject Key Identifier: 
                91:59:3A:92:B6:86:AA:C8:8A:4F:94:E8:26:7D:B6:CF:A4:1F:CA:16
            X509v3 Authority Key Identifier: 
                keyid:04:F3:13:6D:2F:26:24:A5:9E:A3:F6:AB:56:7F:E1:F3:44:45:06:22

    Signature Algorithm: bign-with-hbelt
         6b:79:1c:f2:1b:01:e3:a6:da:e8:19:f0:00:25:08:cc:c3:c6:
         65:81:8f:bb:85:7e:a7:78:62:49:27:6b:78:a2:e8:c2:a2:09:
         3b:44:1b:80:b0:d2:f8:7e:87:a0:60:59
-----BEGIN CERTIFICATE-----
MIICEDCCAcqgAwIBAgICAMEwDQYJKnAAAgAiZS0MBQAwZTEbMBkGA1UEAwwSd3d3
Lm15ZG9tXzQwOTguY29tMRUwEwYDVQQKDAxNeSBEb20sIEluYy4xCzAJBgNVBAYT
AlVTMQ8wDQYDVQQIDAZPcmVnb24xETAPBgNVBAcMCFBvcnRsYW5kMB4XDTE0MDkx
NzEzMTgxNFoXDTE1MDkxNzEzMTgxNFowTTELMAkGA1UEBhMCVVMxDzANBgNVBAgM
Bk9yZWdvbjEVMBMGA1UECgwMTXkgRG9tLCBJbmMuMRYwFAYDVQQDDA13d3cubXlk
b20uY29tMF0wGAYKKnAAAgAiZS0CAQYKKnAAAgAiZS0DAQNBACDkbEzNYa5AcfWZ
G2Y5Hm+pffFMmi04GHkOoh3rmJpIM9wFWqJAhz5bKTADLDH6bOA6mpEz8iCR6E7H
GC2WnHijezB5MAkGA1UdEwQCMAAwLAYJYIZIAYb4QgENBB8WHU9wZW5TU0wgR2Vu
ZXJhdGVkIENlcnRpZmljYXRlMB0GA1UdDgQWBBSRWTqStoaqyIpPlOgmfbbPpB/K
FjAfBgNVHSMEGDAWgBQE8xNtLyYkpZ6j9qtWf+HzREUGIjANBgkqcAACACJlLQwF
AAMxAGt5HPIbAeOm2ugZ8AAlCMzDxmWBj7uFfqd4Ykkna3ii6MKiCTtEG4Cw0vh+
h6BgWQ==
-----END CERTIFICATE-----
