Certificate:
    Data:
        Version: 3 (0x2)
        Serial Number: 194 (0xc2)
    Signature Algorithm: bign-with-hbelt
        Issuer: CN=www.mydom_8180.com, O=My Dom, Inc., C=US, ST=Oregon, L=Portland
        Validity
            Not Before: Sep 17 13:18:37 2014 GMT
            Not After : Sep 17 13:18:37 2015 GMT
        Subject: C=US, ST=Oregon, O=My Dom, Inc., CN=www.mydom.com
        Subject Public Key Info:
            Public Key Algorithm: bign-pubkey
                Public key: 3DEC7B26EC2A5F1552CD50BB58DC535AD1BEE9E9ADB486A9A4B72FC53DC85EA98430E2810B651D45551260B75A59871A220293E4ABD66D07C1245E59F73C099B
                Parameter set: bign-curve256v1
        X509v3 extensions:
            X509v3 Basic Constraints: 
                CA:FALSE
            Netscape Comment: 
                OpenSSL Generated Certificate
            X509v3 Subject Key Identifier: 
                DC:77:C5:27:48:8F:2F:00:8F:3B:29:BE:90:EE:A2:43:BD:1A:79:9C
            X509v3 Authority Key Identifier: 
                keyid:31:6B:F0:03:4E:4E:B1:AB:24:21:68:59:32:3E:F2:A1:A1:16:1A:BC

    Signature Algorithm: bign-with-hbelt
         e3:17:f3:a8:c9:88:2a:c8:4c:c2:50:25:ef:d0:dc:cc:15:50:
         d9:70:4b:cc:a7:00:cb:46:6b:c3:47:c4:b2:3a:2c:77:5b:d4:
         27:dd:1e:70:67:61:12:69:92:e7:e9:da
-----BEGIN CERTIFICATE-----
MIICEDCCAcqgAwIBAgICAMIwDQYJKnAAAgAiZS0MBQAwZTEbMBkGA1UEAwwSd3d3
Lm15ZG9tXzgxODAuY29tMRUwEwYDVQQKDAxNeSBEb20sIEluYy4xCzAJBgNVBAYT
AlVTMQ8wDQYDVQQIDAZPcmVnb24xETAPBgNVBAcMCFBvcnRsYW5kMB4XDTE0MDkx
NzEzMTgzN1oXDTE1MDkxNzEzMTgzN1owTTELMAkGA1UEBhMCVVMxDzANBgNVBAgM
Bk9yZWdvbjEVMBMGA1UECgwMTXkgRG9tLCBJbmMuMRYwFAYDVQQDDA13d3cubXlk
b20uY29tMF0wGAYKKnAAAgAiZS0CAQYKKnAAAgAiZS0DAQNBAD3seybsKl8VUs1Q
u1jcU1rRvunprbSGqaS3L8U9yF6phDDigQtlHUVVEmC3WlmHGiICk+Sr1m0HwSRe
Wfc8CZujezB5MAkGA1UdEwQCMAAwLAYJYIZIAYb4QgENBB8WHU9wZW5TU0wgR2Vu
ZXJhdGVkIENlcnRpZmljYXRlMB0GA1UdDgQWBBTcd8UnSI8vAI87Kb6Q7qJDvRp5
nDAfBgNVHSMEGDAWgBQxa/ADTk6xqyQhaFkyPvKhoRYavDANBgkqcAACACJlLQwF
AAMxAOMX86jJiCrITMJQJe/Q3MwVUNlwS8ynAMtGa8NHxLI6LHdb1CfdHnBnYRJp
kufp2g==
-----END CERTIFICATE-----
