Certificate:
    Data:
        Version: 3 (0x2)
        Serial Number: 195 (0xc3)
    Signature Algorithm: bign-with-hbelt
        Issuer: CN=www.mydom_8180.com, O=My Dom, Inc., C=US, ST=Oregon, L=Portland
        Validity
            Not Before: Sep 17 13:18:37 2014 GMT
            Not After : Sep 17 13:18:37 2015 GMT
        Subject: C=US, ST=Oregon, O=My Dom, Inc., CN=www.mydom.com
        Subject Public Key Info:
            Public Key Algorithm: bign-pubkey
                Public key: 3DEC7B26EC2A5F1552CD50BB58DC535AD1BEE9E9ADB486A9A4B72FC53DC85EA98430E2810B651D45551260B75A59871A220293E4ABD66D07C1245E59F73C099B
                Parameter set: bign-curve256v1
        X509v3 extensions:
            X509v3 Basic Constraints: 
                CA:FALSE
            Netscape Comment: 
                OpenSSL Generated Certificate
            X509v3 Subject Key Identifier: 
                DC:77:C5:27:48:8F:2F:00:8F:3B:29:BE:90:EE:A2:43:BD:1A:79:9C
            X509v3 Authority Key Identifier: 
                keyid:31:6B:F0:03:4E:4E:B1:AB:24:21:68:59:32:3E:F2:A1:A1:16:1A:BC

    Signature Algorithm: bign-with-hbelt
         5b:a1:93:4b:19:fa:8c:5d:e8:ee:aa:43:54:1c:a5:99:38:50:
         19:fd:c8:f6:85:26:b7:33:d8:e7:d9:c9:5f:66:39:e0:3d:57:
         7a:d2:9f:a9:1f:50:f9:36:65:4e:2d:be
-----BEGIN CERTIFICATE-----
MIICEDCCAcqgAwIBAgICAMMwDQYJKnAAAgAiZS0MBQAwZTEbMBkGA1UEAwwSd3d3
Lm15ZG9tXzgxODAuY29tMRUwEwYDVQQKDAxNeSBEb20sIEluYy4xCzAJBgNVBAYT
AlVTMQ8wDQYDVQQIDAZPcmVnb24xETAPBgNVBAcMCFBvcnRsYW5kMB4XDTE0MDkx
NzEzMTgzN1oXDTE1MDkxNzEzMTgzN1owTTELMAkGA1UEBhMCVVMxDzANBgNVBAgM
Bk9yZWdvbjEVMBMGA1UECgwMTXkgRG9tLCBJbmMuMRYwFAYDVQQDDA13d3cubXlk
b20uY29tMF0wGAYKKnAAAgAiZS0CAQYKKnAAAgAiZS0DAQNBAD3seybsKl8VUs1Q
u1jcU1rRvunprbSGqaS3L8U9yF6phDDigQtlHUVVEmC3WlmHGiICk+Sr1m0HwSRe
Wfc8CZujezB5MAkGA1UdEwQCMAAwLAYJYIZIAYb4QgENBB8WHU9wZW5TU0wgR2Vu
ZXJhdGVkIENlcnRpZmljYXRlMB0GA1UdDgQWBBTcd8UnSI8vAI87Kb6Q7qJDvRp5
nDAfBgNVHSMEGDAWgBQxa/ADTk6xqyQhaFkyPvKhoRYavDANBgkqcAACACJlLQwF
AAMxAFuhk0sZ+oxd6O6qQ1QcpZk4UBn9yPaFJrcz2OfZyV9mOeA9V3rSn6kfUPk2
ZU4tvg==
-----END CERTIFICATE-----
