Certificate:
    Data:
        Version: 3 (0x2)
        Serial Number: 196 (0xc4)
    Signature Algorithm: bign-with-hbelt
        Issuer: CN=www.mydom_8180.com, O=My Dom, Inc., C=US, ST=Oregon, L=Portland
        Validity
            Not Before: Sep 17 13:18:37 2014 GMT
            Not After : Sep 17 13:18:37 2015 GMT
        Subject: C=US, ST=Oregon, O=My Dom, Inc., CN=www.mydom.com
        Subject Public Key Info:
            Public Key Algorithm: bign-pubkey
                Public key: 3DEC7B26EC2A5F1552CD50BB58DC535AD1BEE9E9ADB486A9A4B72FC53DC85EA98430E2810B651D45551260B75A59871A220293E4ABD66D07C1245E59F73C099B
                Parameter set: bign-curve256v1
        X509v3 extensions:
            X509v3 Basic Constraints: 
                CA:FALSE
            Netscape Comment: 
                OpenSSL Generated Certificate
            X509v3 Subject Key Identifier: 
                DC:77:C5:27:48:8F:2F:00:8F:3B:29:BE:90:EE:A2:43:BD:1A:79:9C
            X509v3 Authority Key Identifier: 
                keyid:31:6B:F0:03:4E:4E:B1:AB:24:21:68:59:32:3E:F2:A1:A1:16:1A:BC

    Signature Algorithm: bign-with-hbelt
         a6:6f:89:1c:c7:d0:2e:5d:8b:ee:07:d7:60:f2:ec:55:30:26:
         1c:2f:c6:b9:ec:cd:0b:c6:06:00:90:46:73:4b:05:ff:a7:25:
         af:06:b0:d5:15:09:5c:a5:f8:99:f6:c1
-----BEGIN CERTIFICATE-----
MIICEDCCAcqgAwIBAgICAMQwDQYJKnAAAgAiZS0MBQAwZTEbMBkGA1UEAwwSd3d3
Lm15ZG9tXzgxODAuY29tMRUwEwYDVQQKDAxNeSBEb20sIEluYy4xCzAJBgNVBAYT
AlVTMQ8wDQYDVQQIDAZPcmVnb24xETAPBgNVBAcMCFBvcnRsYW5kMB4XDTE0MDkx
NzEzMTgzN1oXDTE1MDkxNzEzMTgzN1owTTELMAkGA1UEBhMCVVMxDzANBgNVBAgM
Bk9yZWdvbjEVMBMGA1UECgwMTXkgRG9tLCBJbmMuMRYwFAYDVQQDDA13d3cubXlk
b20uY29tMF0wGAYKKnAAAgAiZS0CAQYKKnAAAgAiZS0DAQNBAD3seybsKl8VUs1Q
u1jcU1rRvunprbSGqaS3L8U9yF6phDDigQtlHUVVEmC3WlmHGiICk+Sr1m0HwSRe
Wfc8CZujezB5MAkGA1UdEwQCMAAwLAYJYIZIAYb4QgENBB8WHU9wZW5TU0wgR2Vu
ZXJhdGVkIENlcnRpZmljYXRlMB0GA1UdDgQWBBTcd8UnSI8vAI87Kb6Q7qJDvRp5
nDAfBgNVHSMEGDAWgBQxa/ADTk6xqyQhaFkyPvKhoRYavDANBgkqcAACACJlLQwF
AAMxAKZviRzH0C5di+4H12Dy7FUwJhwvxrnszQvGBgCQRnNLBf+nJa8GsNUVCVyl
+Jn2wQ==
-----END CERTIFICATE-----
