Certificate:
    Data:
        Version: 3 (0x2)
        Serial Number: 200 (0xc8)
    Signature Algorithm: bign-with-hbelt
        Issuer: CN=www.mydom_5780.com, O=My Dom, Inc., C=US, ST=Oregon, L=Portland
        Validity
            Not Before: Sep 17 13:18:38 2014 GMT
            Not After : Sep 17 13:18:38 2015 GMT
        Subject: C=US, ST=Oregon, O=My Dom, Inc., CN=www.mydom.com
        Subject Public Key Info:
            Public Key Algorithm: bign-pubkey
                Public key: 86322136F965161D60F5A0204466C81A551A528EC0DED9927BBBADF7524847F29C75F8BCCC4701591458643681802EE7847791FB3BF5B21598335EF2015F6DC3
                Parameter set: bign-curve256v1
        X509v3 extensions:
            X509v3 Basic Constraints: 
                CA:FALSE
            Netscape Comment: 
                OpenSSL Generated Certificate
            X509v3 Subject Key Identifier: 
                94:06:54:F9:68:6D:AC:D4:08:A4:07:B7:90:0E:E7:C1:73:40:EF:07
            X509v3 Authority Key Identifier: 
                keyid:EA:91:E0:DC:6C:86:29:9C:BA:8F:78:22:C9:AE:55:BF:F3:DC:5C:1D

    Signature Algorithm: bign-with-hbelt
         a1:e6:c4:7c:94:09:87:3e:e1:79:6e:61:da:01:13:10:36:fe:
         e9:30:26:e6:27:17:16:aa:e2:71:6c:b6:d9:0a:ca:de:ca:51:
         8e:06:22:b3:70:bf:ae:98:22:67:3f:05
-----BEGIN CERTIFICATE-----
MIICEDCCAcqgAwIBAgICAMgwDQYJKnAAAgAiZS0MBQAwZTEbMBkGA1UEAwwSd3d3
Lm15ZG9tXzU3ODAuY29tMRUwEwYDVQQKDAxNeSBEb20sIEluYy4xCzAJBgNVBAYT
AlVTMQ8wDQYDVQQIDAZPcmVnb24xETAPBgNVBAcMCFBvcnRsYW5kMB4XDTE0MDkx
NzEzMTgzOFoXDTE1MDkxNzEzMTgzOFowTTELMAkGA1UEBhMCVVMxDzANBgNVBAgM
Bk9yZWdvbjEVMBMGA1UECgwMTXkgRG9tLCBJbmMuMRYwFAYDVQQDDA13d3cubXlk
b20uY29tMF0wGAYKKnAAAgAiZS0CAQYKKnAAAgAiZS0DAQNBAIYyITb5ZRYdYPWg
IERmyBpVGlKOwN7Zknu7rfdSSEfynHX4vMxHAVkUWGQ2gYAu54R3kfs79bIVmDNe
8gFfbcOjezB5MAkGA1UdEwQCMAAwLAYJYIZIAYb4QgENBB8WHU9wZW5TU0wgR2Vu
ZXJhdGVkIENlcnRpZmljYXRlMB0GA1UdDgQWBBSUBlT5aG2s1AikB7eQDufBc0Dv
BzAfBgNVHSMEGDAWgBTqkeDcbIYpnLqPeCLJrlW/89xcHTANBgkqcAACACJlLQwF
AAMxAKHmxHyUCYc+4XluYdoBExA2/ukwJuYnFxaq4nFsttkKyt7KUY4GIrNwv66Y
Imc/BQ==
-----END CERTIFICATE-----
