Certificate:
    Data:
        Version: 3 (0x2)
        Serial Number: 202 (0xca)
    Signature Algorithm: bign-with-hbelt
        Issuer: CN=www.mydom_5780.com, O=My Dom, Inc., C=US, ST=Oregon, L=Portland
        Validity
            Not Before: Sep 17 13:18:38 2014 GMT
            Not After : Sep 17 13:18:38 2015 GMT
        Subject: C=US, ST=Oregon, O=My Dom, Inc., CN=www.mydom.com
        Subject Public Key Info:
            Public Key Algorithm: bign-pubkey
                Public key: 86322136F965161D60F5A0204466C81A551A528EC0DED9927BBBADF7524847F29C75F8BCCC4701591458643681802EE7847791FB3BF5B21598335EF2015F6DC3
                Parameter set: bign-curve256v1
        X509v3 extensions:
            X509v3 Basic Constraints: 
                CA:FALSE
            Netscape Comment: 
                OpenSSL Generated Certificate
            X509v3 Subject Key Identifier: 
                94:06:54:F9:68:6D:AC:D4:08:A4:07:B7:90:0E:E7:C1:73:40:EF:07
            X509v3 Authority Key Identifier: 
                keyid:EA:91:E0:DC:6C:86:29:9C:BA:8F:78:22:C9:AE:55:BF:F3:DC:5C:1D

    Signature Algorithm: bign-with-hbelt
         6b:f2:6e:c8:d7:86:6e:a5:32:5d:42:9a:37:a0:e1:a4:58:a9:
         4d:d1:95:13:3c:33:95:de:c6:d1:9d:fb:00:de:80:7b:76:c2:
         c5:41:fc:d3:01:2e:6b:c9:a0:67:e1:c5
-----BEGIN CERTIFICATE-----
MIICEDCCAcqgAwIBAgICAMowDQYJKnAAAgAiZS0MBQAwZTEbMBkGA1UEAwwSd3d3
Lm15ZG9tXzU3ODAuY29tMRUwEwYDVQQKDAxNeSBEb20sIEluYy4xCzAJBgNVBAYT
AlVTMQ8wDQYDVQQIDAZPcmVnb24xETAPBgNVBAcMCFBvcnRsYW5kMB4XDTE0MDkx
NzEzMTgzOFoXDTE1MDkxNzEzMTgzOFowTTELMAkGA1UEBhMCVVMxDzANBgNVBAgM
Bk9yZWdvbjEVMBMGA1UECgwMTXkgRG9tLCBJbmMuMRYwFAYDVQQDDA13d3cubXlk
b20uY29tMF0wGAYKKnAAAgAiZS0CAQYKKnAAAgAiZS0DAQNBAIYyITb5ZRYdYPWg
IERmyBpVGlKOwN7Zknu7rfdSSEfynHX4vMxHAVkUWGQ2gYAu54R3kfs79bIVmDNe
8gFfbcOjezB5MAkGA1UdEwQCMAAwLAYJYIZIAYb4QgENBB8WHU9wZW5TU0wgR2Vu
ZXJhdGVkIENlcnRpZmljYXRlMB0GA1UdDgQWBBSUBlT5aG2s1AikB7eQDufBc0Dv
BzAfBgNVHSMEGDAWgBTqkeDcbIYpnLqPeCLJrlW/89xcHTANBgkqcAACACJlLQwF
AAMxAGvybsjXhm6lMl1Cmjeg4aRYqU3RlRM8M5XextGd+wDegHt2wsVB/NMBLmvJ
oGfhxQ==
-----END CERTIFICATE-----
