Certificate:
    Data:
        Version: 3 (0x2)
        Serial Number: 203 (0xcb)
    Signature Algorithm: bign-with-hbelt
        Issuer: CN=www.mydom_8068.com, O=My Dom, Inc., C=US, ST=Oregon, L=Portland
        Validity
            Not Before: Sep 17 13:34:18 2014 GMT
            Not After : Sep 17 13:34:18 2015 GMT
        Subject: C=US, ST=Oregon, O=My Dom, Inc., CN=www.mydom.com
        Subject Public Key Info:
            Public Key Algorithm: bign-pubkey
                Public key: 5F03159CE4B4A47503EA72179B246AC544C14421BBA5E408ECDD5F6D361931860F26888E6A9B4B2F10266F1CE5829D9DDA879E50C13436D8BB61764870295CF3
                Parameter set: bign-curve256v1
        X509v3 extensions:
            X509v3 Basic Constraints: 
                CA:FALSE
            Netscape Comment: 
                OpenSSL Generated Certificate
            X509v3 Subject Key Identifier: 
                2A:21:58:0E:07:D4:CB:11:52:7F:57:C8:03:E6:D9:45:17:76:9A:95
            X509v3 Authority Key Identifier: 
                keyid:74:9C:18:74:0D:6B:A0:03:EA:D2:AF:35:6F:53:98:0D:58:C6:E0:1A

    Signature Algorithm: bign-with-hbelt
         f6:a2:16:05:97:e0:e2:7e:a1:d3:56:6b:db:fd:30:1e:72:23:
         5c:0b:f0:d8:a0:b2:3b:c6:ee:ae:fa:8d:67:50:cd:1c:98:57:
         c7:f0:d3:05:43:14:8e:4e:e2:f0:7e:e8
-----BEGIN CERTIFICATE-----
MIICEDCCAcqgAwIBAgICAMswDQYJKnAAAgAiZS0MBQAwZTEbMBkGA1UEAwwSd3d3
Lm15ZG9tXzgwNjguY29tMRUwEwYDVQQKDAxNeSBEb20sIEluYy4xCzAJBgNVBAYT
AlVTMQ8wDQYDVQQIDAZPcmVnb24xETAPBgNVBAcMCFBvcnRsYW5kMB4XDTE0MDkx
NzEzMzQxOFoXDTE1MDkxNzEzMzQxOFowTTELMAkGA1UEBhMCVVMxDzANBgNVBAgM
Bk9yZWdvbjEVMBMGA1UECgwMTXkgRG9tLCBJbmMuMRYwFAYDVQQDDA13d3cubXlk
b20uY29tMF0wGAYKKnAAAgAiZS0CAQYKKnAAAgAiZS0DAQNBAF8DFZzktKR1A+py
F5skasVEwUQhu6XkCOzdX202GTGGDyaIjmqbSy8QJm8c5YKdndqHnlDBNDbYu2F2
SHApXPOjezB5MAkGA1UdEwQCMAAwLAYJYIZIAYb4QgENBB8WHU9wZW5TU0wgR2Vu
ZXJhdGVkIENlcnRpZmljYXRlMB0GA1UdDgQWBBQqIVgOB9TLEVJ/V8gD5tlFF3aa
lTAfBgNVHSMEGDAWgBR0nBh0DWugA+rSrzVvU5gNWMbgGjANBgkqcAACACJlLQwF
AAMxAPaiFgWX4OJ+odNWa9v9MB5yI1wL8NigsjvG7q76jWdQzRyYV8fw0wVDFI5O
4vB+6A==
-----END CERTIFICATE-----
