Certificate:
    Data:
        Version: 3 (0x2)
        Serial Number: 205 (0xcd)
    Signature Algorithm: bign-with-hbelt
        Issuer: CN=www.mydom_2020.com, O=My Dom, Inc., C=US, ST=Oregon, L=Portland
        Validity
            Not Before: Sep 19 10:12:23 2014 GMT
            Not After : Sep 19 10:12:23 2015 GMT
        Subject: C=US, ST=Oregon, O=My Dom, Inc., CN=www.mydom.com
        Subject Public Key Info:
            Public Key Algorithm: bign-pubkey
                Public key: 12CF791D8DD520AFBC590B745767E28765B44BC30132DA42A684DF87EAD6FD2377C123547F3D5917A66E4D0850CD677BAF02DF74CA90C1531E641C204112B58D
                Parameter set: bign-curve256v1
        X509v3 extensions:
            X509v3 Basic Constraints: 
                CA:FALSE
            Netscape Comment: 
                OpenSSL Generated Certificate
            X509v3 Subject Key Identifier: 
                BF:6A:7D:A3:F1:70:C7:3A:00:F3:85:7F:8C:AB:E7:D0:AC:2C:CC:C5
            X509v3 Authority Key Identifier: 
                keyid:F7:E8:EA:62:F8:24:55:71:98:35:F5:57:38:D2:AB:3B:BD:C8:94:22

    Signature Algorithm: bign-with-hbelt
         51:67:6d:d2:55:36:aa:26:3b:83:88:c9:c2:4f:23:91:e7:7d:
         51:53:d0:da:1f:1c:ba:fc:0c:99:71:2d:4e:ac:2c:83:1f:44:
         a0:67:29:ba:f9:18:4c:86:be:dd:f3:0b
-----BEGIN CERTIFICATE-----
MIICEDCCAcqgAwIBAgICAM0wDQYJKnAAAgAiZS0MBQAwZTEbMBkGA1UEAwwSd3d3
Lm15ZG9tXzIwMjAuY29tMRUwEwYDVQQKDAxNeSBEb20sIEluYy4xCzAJBgNVBAYT
AlVTMQ8wDQYDVQQIDAZPcmVnb24xETAPBgNVBAcMCFBvcnRsYW5kMB4XDTE0MDkx
OTEwMTIyM1oXDTE1MDkxOTEwMTIyM1owTTELMAkGA1UEBhMCVVMxDzANBgNVBAgM
Bk9yZWdvbjEVMBMGA1UECgwMTXkgRG9tLCBJbmMuMRYwFAYDVQQDDA13d3cubXlk
b20uY29tMF0wGAYKKnAAAgAiZS0CAQYKKnAAAgAiZS0DAQNBABLPeR2N1SCvvFkL
dFdn4odltEvDATLaQqaE34fq1v0jd8EjVH89WRembk0IUM1ne68C33TKkMFTHmQc
IEEStY2jezB5MAkGA1UdEwQCMAAwLAYJYIZIAYb4QgENBB8WHU9wZW5TU0wgR2Vu
ZXJhdGVkIENlcnRpZmljYXRlMB0GA1UdDgQWBBS/an2j8XDHOgDzhX+Mq+fQrCzM
xTAfBgNVHSMEGDAWgBT36Opi+CRVcZg19Vc40qs7vciUIjANBgkqcAACACJlLQwF
AAMxAFFnbdJVNqomO4OIycJPI5HnfVFT0NofHLr8DJlxLU6sLIMfRKBnKbr5GEyG
vt3zCw==
-----END CERTIFICATE-----
