Certificate:
    Data:
        Version: 3 (0x2)
        Serial Number: 207 (0xcf)
    Signature Algorithm: bign-with-hbelt
        Issuer: CN=www.mydom_2020.com, O=My Dom, Inc., C=US, ST=Oregon, L=Portland
        Validity
            Not Before: Sep 19 10:12:23 2014 GMT
            Not After : Sep 19 10:12:23 2015 GMT
        Subject: C=US, ST=Oregon, O=My Dom, Inc., CN=www.mydom.com
        Subject Public Key Info:
            Public Key Algorithm: bign-pubkey
                Public key: 12CF791D8DD520AFBC590B745767E28765B44BC30132DA42A684DF87EAD6FD2377C123547F3D5917A66E4D0850CD677BAF02DF74CA90C1531E641C204112B58D
                Parameter set: bign-curve256v1
        X509v3 extensions:
            X509v3 Basic Constraints: 
                CA:FALSE
            Netscape Comment: 
                OpenSSL Generated Certificate
            X509v3 Subject Key Identifier: 
                BF:6A:7D:A3:F1:70:C7:3A:00:F3:85:7F:8C:AB:E7:D0:AC:2C:CC:C5
            X509v3 Authority Key Identifier: 
                keyid:F7:E8:EA:62:F8:24:55:71:98:35:F5:57:38:D2:AB:3B:BD:C8:94:22

    Signature Algorithm: bign-with-hbelt
         cc:d6:83:be:c2:13:15:dd:c0:24:31:32:ae:1a:ee:5c:33:74:
         66:58:8f:83:1e:fb:fe:f9:9d:0c:9d:84:df:c0:2d:78:9a:a2:
         92:31:6f:33:1c:1e:63:b5:58:d7:6a:f5
-----BEGIN CERTIFICATE-----
MIICEDCCAcqgAwIBAgICAM8wDQYJKnAAAgAiZS0MBQAwZTEbMBkGA1UEAwwSd3d3
Lm15ZG9tXzIwMjAuY29tMRUwEwYDVQQKDAxNeSBEb20sIEluYy4xCzAJBgNVBAYT
AlVTMQ8wDQYDVQQIDAZPcmVnb24xETAPBgNVBAcMCFBvcnRsYW5kMB4XDTE0MDkx
OTEwMTIyM1oXDTE1MDkxOTEwMTIyM1owTTELMAkGA1UEBhMCVVMxDzANBgNVBAgM
Bk9yZWdvbjEVMBMGA1UECgwMTXkgRG9tLCBJbmMuMRYwFAYDVQQDDA13d3cubXlk
b20uY29tMF0wGAYKKnAAAgAiZS0CAQYKKnAAAgAiZS0DAQNBABLPeR2N1SCvvFkL
dFdn4odltEvDATLaQqaE34fq1v0jd8EjVH89WRembk0IUM1ne68C33TKkMFTHmQc
IEEStY2jezB5MAkGA1UdEwQCMAAwLAYJYIZIAYb4QgENBB8WHU9wZW5TU0wgR2Vu
ZXJhdGVkIENlcnRpZmljYXRlMB0GA1UdDgQWBBS/an2j8XDHOgDzhX+Mq+fQrCzM
xTAfBgNVHSMEGDAWgBT36Opi+CRVcZg19Vc40qs7vciUIjANBgkqcAACACJlLQwF
AAMxAMzWg77CExXdwCQxMq4a7lwzdGZYj4Me+/75nQydhN/ALXiaopIxbzMcHmO1
WNdq9Q==
-----END CERTIFICATE-----
