Certificate:
    Data:
        Version: 3 (0x2)
        Serial Number: 210 (0xd2)
    Signature Algorithm: bign-with-hbelt
        Issuer: CN=www.mydom_7927.com, O=My Dom, Inc., C=US, ST=Oregon, L=Portland
        Validity
            Not Before: Sep 19 10:12:24 2014 GMT
            Not After : Sep 19 10:12:24 2015 GMT
        Subject: C=US, ST=Oregon, O=My Dom, Inc., CN=www.mydom.com
        Subject Public Key Info:
            Public Key Algorithm: bign-pubkey
                Public key: 3E3AED7E2E3E76AD2C696FE067F680E29922B426C51AC5ACFFD40CF879DDED08971E642EDEC4FD546DAE8D9C4F850C4C627461691ED5B6659E7BBC3F20E769D5
                Parameter set: bign-curve256v1
        X509v3 extensions:
            X509v3 Basic Constraints: 
                CA:FALSE
            Netscape Comment: 
                OpenSSL Generated Certificate
            X509v3 Subject Key Identifier: 
                DB:96:2B:7E:B4:2C:1C:A5:DF:89:03:BE:D8:9E:83:F9:29:29:A9:5A
            X509v3 Authority Key Identifier: 
                keyid:F9:FB:78:34:06:06:1E:5E:ED:53:52:1D:85:23:CA:1F:C1:4F:8A:93

    Signature Algorithm: bign-with-hbelt
         28:8a:7f:02:d4:a7:17:ed:91:26:d1:82:d1:70:34:2a:81:c7:
         c0:a8:3e:5c:4d:63:a4:81:e6:bc:79:b9:a2:74:fe:90:d5:e8:
         26:61:1f:27:0c:c3:8c:55:a3:72:db:0c
-----BEGIN CERTIFICATE-----
MIICEDCCAcqgAwIBAgICANIwDQYJKnAAAgAiZS0MBQAwZTEbMBkGA1UEAwwSd3d3
Lm15ZG9tXzc5MjcuY29tMRUwEwYDVQQKDAxNeSBEb20sIEluYy4xCzAJBgNVBAYT
AlVTMQ8wDQYDVQQIDAZPcmVnb24xETAPBgNVBAcMCFBvcnRsYW5kMB4XDTE0MDkx
OTEwMTIyNFoXDTE1MDkxOTEwMTIyNFowTTELMAkGA1UEBhMCVVMxDzANBgNVBAgM
Bk9yZWdvbjEVMBMGA1UECgwMTXkgRG9tLCBJbmMuMRYwFAYDVQQDDA13d3cubXlk
b20uY29tMF0wGAYKKnAAAgAiZS0CAQYKKnAAAgAiZS0DAQNBAD467X4uPnatLGlv
4Gf2gOKZIrQmxRrFrP/UDPh53e0Ilx5kLt7E/VRtro2cT4UMTGJ0YWke1bZlnnu8
PyDnadWjezB5MAkGA1UdEwQCMAAwLAYJYIZIAYb4QgENBB8WHU9wZW5TU0wgR2Vu
ZXJhdGVkIENlcnRpZmljYXRlMB0GA1UdDgQWBBTblit+tCwcpd+JA77YnoP5KSmp
WjAfBgNVHSMEGDAWgBT5+3g0BgYeXu1TUh2FI8ofwU+KkzANBgkqcAACACJlLQwF
AAMxACiKfwLUpxftkSbRgtFwNCqBx8CoPlxNY6SB5rx5uaJ0/pDV6CZhHycMw4xV
o3LbDA==
-----END CERTIFICATE-----
