Certificate:
    Data:
        Version: 3 (0x2)
        Serial Number: 211 (0xd3)
    Signature Algorithm: bign-with-hbelt
        Issuer: CN=www.mydom_7927.com, O=My Dom, Inc., C=US, ST=Oregon, L=Portland
        Validity
            Not Before: Sep 19 10:12:24 2014 GMT
            Not After : Sep 19 10:12:24 2015 GMT
        Subject: C=US, ST=Oregon, O=My Dom, Inc., CN=www.mydom.com
        Subject Public Key Info:
            Public Key Algorithm: bign-pubkey
                Public key: 3E3AED7E2E3E76AD2C696FE067F680E29922B426C51AC5ACFFD40CF879DDED08971E642EDEC4FD546DAE8D9C4F850C4C627461691ED5B6659E7BBC3F20E769D5
                Parameter set: bign-curve256v1
        X509v3 extensions:
            X509v3 Basic Constraints: 
                CA:FALSE
            Netscape Comment: 
                OpenSSL Generated Certificate
            X509v3 Subject Key Identifier: 
                DB:96:2B:7E:B4:2C:1C:A5:DF:89:03:BE:D8:9E:83:F9:29:29:A9:5A
            X509v3 Authority Key Identifier: 
                keyid:F9:FB:78:34:06:06:1E:5E:ED:53:52:1D:85:23:CA:1F:C1:4F:8A:93

    Signature Algorithm: bign-with-hbelt
         99:b5:c7:7f:ac:ac:bc:18:76:e5:3a:89:29:92:c5:b5:75:79:
         b0:2e:fe:98:b6:a4:a4:db:98:bf:51:67:ca:b6:7c:9f:98:3f:
         19:14:21:86:d9:25:cc:4b:05:3f:19:e7
-----BEGIN CERTIFICATE-----
MIICEDCCAcqgAwIBAgICANMwDQYJKnAAAgAiZS0MBQAwZTEbMBkGA1UEAwwSd3d3
Lm15ZG9tXzc5MjcuY29tMRUwEwYDVQQKDAxNeSBEb20sIEluYy4xCzAJBgNVBAYT
AlVTMQ8wDQYDVQQIDAZPcmVnb24xETAPBgNVBAcMCFBvcnRsYW5kMB4XDTE0MDkx
OTEwMTIyNFoXDTE1MDkxOTEwMTIyNFowTTELMAkGA1UEBhMCVVMxDzANBgNVBAgM
Bk9yZWdvbjEVMBMGA1UECgwMTXkgRG9tLCBJbmMuMRYwFAYDVQQDDA13d3cubXlk
b20uY29tMF0wGAYKKnAAAgAiZS0CAQYKKnAAAgAiZS0DAQNBAD467X4uPnatLGlv
4Gf2gOKZIrQmxRrFrP/UDPh53e0Ilx5kLt7E/VRtro2cT4UMTGJ0YWke1bZlnnu8
PyDnadWjezB5MAkGA1UdEwQCMAAwLAYJYIZIAYb4QgENBB8WHU9wZW5TU0wgR2Vu
ZXJhdGVkIENlcnRpZmljYXRlMB0GA1UdDgQWBBTblit+tCwcpd+JA77YnoP5KSmp
WjAfBgNVHSMEGDAWgBT5+3g0BgYeXu1TUh2FI8ofwU+KkzANBgkqcAACACJlLQwF
AAMxAJm1x3+srLwYduU6iSmSxbV1ebAu/pi2pKTbmL9RZ8q2fJ+YPxkUIYbZJcxL
BT8Z5w==
-----END CERTIFICATE-----
