Certificate:
    Data:
        Version: 3 (0x2)
        Serial Number: 213 (0xd5)
    Signature Algorithm: bign-with-hbelt
        Issuer: CN=www.mydom_4709.com, O=My Dom, Inc., C=US, ST=Oregon, L=Portland
        Validity
            Not Before: Sep 19 10:12:56 2014 GMT
            Not After : Sep 19 10:12:56 2015 GMT
        Subject: C=US, ST=Oregon, O=My Dom, Inc., CN=www.mydom.com
        Subject Public Key Info:
            Public Key Algorithm: bign-pubkey
                Public key: 772D6C25D63EE25D0F5B66EC4F6459D4D8D00B30A2D6181538FF3E5782E5921B98E3FA55CBE89EF06403FDB16CB0F7526CA0F448B386EEF7AFFA2A9943FDC880
                Parameter set: bign-curve256v1
        X509v3 extensions:
            X509v3 Basic Constraints: 
                CA:FALSE
            Netscape Comment: 
                OpenSSL Generated Certificate
            X509v3 Subject Key Identifier: 
                3B:22:C3:74:C8:1C:C6:E2:67:67:E8:EA:91:51:54:42:5A:7B:5A:36
            X509v3 Authority Key Identifier: 
                keyid:32:F1:4C:64:6B:53:94:42:DD:4F:A9:D4:21:5E:F5:D9:89:B6:9B:CF

    Signature Algorithm: bign-with-hbelt
         8b:f0:3c:36:b6:90:56:07:34:34:5d:11:21:f2:3f:b3:91:03:
         e1:c8:3d:24:b4:55:95:a3:a1:ff:0f:d5:da:5c:6b:20:ef:5f:
         4d:c0:6d:ff:9f:e5:6b:b5:29:0c:bb:88
-----BEGIN CERTIFICATE-----
MIICEDCCAcqgAwIBAgICANUwDQYJKnAAAgAiZS0MBQAwZTEbMBkGA1UEAwwSd3d3
Lm15ZG9tXzQ3MDkuY29tMRUwEwYDVQQKDAxNeSBEb20sIEluYy4xCzAJBgNVBAYT
AlVTMQ8wDQYDVQQIDAZPcmVnb24xETAPBgNVBAcMCFBvcnRsYW5kMB4XDTE0MDkx
OTEwMTI1NloXDTE1MDkxOTEwMTI1NlowTTELMAkGA1UEBhMCVVMxDzANBgNVBAgM
Bk9yZWdvbjEVMBMGA1UECgwMTXkgRG9tLCBJbmMuMRYwFAYDVQQDDA13d3cubXlk
b20uY29tMF0wGAYKKnAAAgAiZS0CAQYKKnAAAgAiZS0DAQNBAHctbCXWPuJdD1tm
7E9kWdTY0AswotYYFTj/PleC5ZIbmOP6VcvonvBkA/2xbLD3Umyg9Eizhu73r/oq
mUP9yICjezB5MAkGA1UdEwQCMAAwLAYJYIZIAYb4QgENBB8WHU9wZW5TU0wgR2Vu
ZXJhdGVkIENlcnRpZmljYXRlMB0GA1UdDgQWBBQ7IsN0yBzG4mdn6OqRUVRCWnta
NjAfBgNVHSMEGDAWgBQy8Uxka1OUQt1PqdQhXvXZibabzzANBgkqcAACACJlLQwF
AAMxAIvwPDa2kFYHNDRdESHyP7ORA+HIPSS0VZWjof8P1dpcayDvX03Abf+f5Wu1
KQy7iA==
-----END CERTIFICATE-----
