Certificate:
    Data:
        Version: 3 (0x2)
        Serial Number: 214 (0xd6)
    Signature Algorithm: bign-with-hbelt
        Issuer: CN=www.mydom_4709.com, O=My Dom, Inc., C=US, ST=Oregon, L=Portland
        Validity
            Not Before: Sep 19 10:12:56 2014 GMT
            Not After : Sep 19 10:12:56 2015 GMT
        Subject: C=US, ST=Oregon, O=My Dom, Inc., CN=www.mydom.com
        Subject Public Key Info:
            Public Key Algorithm: bign-pubkey
                Public key: 772D6C25D63EE25D0F5B66EC4F6459D4D8D00B30A2D6181538FF3E5782E5921B98E3FA55CBE89EF06403FDB16CB0F7526CA0F448B386EEF7AFFA2A9943FDC880
                Parameter set: bign-curve256v1
        X509v3 extensions:
            X509v3 Basic Constraints: 
                CA:FALSE
            Netscape Comment: 
                OpenSSL Generated Certificate
            X509v3 Subject Key Identifier: 
                3B:22:C3:74:C8:1C:C6:E2:67:67:E8:EA:91:51:54:42:5A:7B:5A:36
            X509v3 Authority Key Identifier: 
                keyid:32:F1:4C:64:6B:53:94:42:DD:4F:A9:D4:21:5E:F5:D9:89:B6:9B:CF

    Signature Algorithm: bign-with-hbelt
         ed:30:7d:04:3f:86:e3:dd:c7:1e:dc:76:5d:10:94:81:13:3a:
         b6:04:ac:3c:bb:d6:f3:db:e4:ce:c7:1b:21:68:07:5d:e1:ed:
         ec:ac:d6:53:63:c6:63:07:8e:b9:b0:8f
-----BEGIN CERTIFICATE-----
MIICEDCCAcqgAwIBAgICANYwDQYJKnAAAgAiZS0MBQAwZTEbMBkGA1UEAwwSd3d3
Lm15ZG9tXzQ3MDkuY29tMRUwEwYDVQQKDAxNeSBEb20sIEluYy4xCzAJBgNVBAYT
AlVTMQ8wDQYDVQQIDAZPcmVnb24xETAPBgNVBAcMCFBvcnRsYW5kMB4XDTE0MDkx
OTEwMTI1NloXDTE1MDkxOTEwMTI1NlowTTELMAkGA1UEBhMCVVMxDzANBgNVBAgM
Bk9yZWdvbjEVMBMGA1UECgwMTXkgRG9tLCBJbmMuMRYwFAYDVQQDDA13d3cubXlk
b20uY29tMF0wGAYKKnAAAgAiZS0CAQYKKnAAAgAiZS0DAQNBAHctbCXWPuJdD1tm
7E9kWdTY0AswotYYFTj/PleC5ZIbmOP6VcvonvBkA/2xbLD3Umyg9Eizhu73r/oq
mUP9yICjezB5MAkGA1UdEwQCMAAwLAYJYIZIAYb4QgENBB8WHU9wZW5TU0wgR2Vu
ZXJhdGVkIENlcnRpZmljYXRlMB0GA1UdDgQWBBQ7IsN0yBzG4mdn6OqRUVRCWnta
NjAfBgNVHSMEGDAWgBQy8Uxka1OUQt1PqdQhXvXZibabzzANBgkqcAACACJlLQwF
AAMxAO0wfQQ/huPdxx7cdl0QlIETOrYErDy71vPb5M7HGyFoB13h7eys1lNjxmMH
jrmwjw==
-----END CERTIFICATE-----
