Certificate:
    Data:
        Version: 3 (0x2)
        Serial Number: 215 (0xd7)
    Signature Algorithm: bign-with-hbelt
        Issuer: CN=www.mydom_4709.com, O=My Dom, Inc., C=US, ST=Oregon, L=Portland
        Validity
            Not Before: Sep 19 10:12:57 2014 GMT
            Not After : Sep 19 10:12:57 2015 GMT
        Subject: C=US, ST=Oregon, O=My Dom, Inc., CN=www.mydom.com
        Subject Public Key Info:
            Public Key Algorithm: bign-pubkey
                Public key: 772D6C25D63EE25D0F5B66EC4F6459D4D8D00B30A2D6181538FF3E5782E5921B98E3FA55CBE89EF06403FDB16CB0F7526CA0F448B386EEF7AFFA2A9943FDC880
                Parameter set: bign-curve256v1
        X509v3 extensions:
            X509v3 Basic Constraints: 
                CA:FALSE
            Netscape Comment: 
                OpenSSL Generated Certificate
            X509v3 Subject Key Identifier: 
                3B:22:C3:74:C8:1C:C6:E2:67:67:E8:EA:91:51:54:42:5A:7B:5A:36
            X509v3 Authority Key Identifier: 
                keyid:32:F1:4C:64:6B:53:94:42:DD:4F:A9:D4:21:5E:F5:D9:89:B6:9B:CF

    Signature Algorithm: bign-with-hbelt
         5b:dc:8b:67:62:ff:6a:5f:d8:93:22:1c:17:05:dc:b8:75:21:
         15:58:22:50:3b:eb:c9:b0:3a:3e:49:b2:4e:43:a2:47:fc:8d:
         23:e0:0b:35:f0:f9:73:b3:9e:95:a3:e9
-----BEGIN CERTIFICATE-----
MIICEDCCAcqgAwIBAgICANcwDQYJKnAAAgAiZS0MBQAwZTEbMBkGA1UEAwwSd3d3
Lm15ZG9tXzQ3MDkuY29tMRUwEwYDVQQKDAxNeSBEb20sIEluYy4xCzAJBgNVBAYT
AlVTMQ8wDQYDVQQIDAZPcmVnb24xETAPBgNVBAcMCFBvcnRsYW5kMB4XDTE0MDkx
OTEwMTI1N1oXDTE1MDkxOTEwMTI1N1owTTELMAkGA1UEBhMCVVMxDzANBgNVBAgM
Bk9yZWdvbjEVMBMGA1UECgwMTXkgRG9tLCBJbmMuMRYwFAYDVQQDDA13d3cubXlk
b20uY29tMF0wGAYKKnAAAgAiZS0CAQYKKnAAAgAiZS0DAQNBAHctbCXWPuJdD1tm
7E9kWdTY0AswotYYFTj/PleC5ZIbmOP6VcvonvBkA/2xbLD3Umyg9Eizhu73r/oq
mUP9yICjezB5MAkGA1UdEwQCMAAwLAYJYIZIAYb4QgENBB8WHU9wZW5TU0wgR2Vu
ZXJhdGVkIENlcnRpZmljYXRlMB0GA1UdDgQWBBQ7IsN0yBzG4mdn6OqRUVRCWnta
NjAfBgNVHSMEGDAWgBQy8Uxka1OUQt1PqdQhXvXZibabzzANBgkqcAACACJlLQwF
AAMxAFvci2di/2pf2JMiHBcF3Lh1IRVYIlA768mwOj5Jsk5Dokf8jSPgCzXw+XOz
npWj6Q==
-----END CERTIFICATE-----
