Certificate:
    Data:
        Version: 3 (0x2)
        Serial Number: 216 (0xd8)
    Signature Algorithm: bign-with-hbelt
        Issuer: CN=www.mydom_4709.com, O=My Dom, Inc., C=US, ST=Oregon, L=Portland
        Validity
            Not Before: Sep 19 10:12:57 2014 GMT
            Not After : Sep 19 10:12:57 2015 GMT
        Subject: C=US, ST=Oregon, O=My Dom, Inc., CN=www.mydom.com
        Subject Public Key Info:
            Public Key Algorithm: bign-pubkey
                Public key: 772D6C25D63EE25D0F5B66EC4F6459D4D8D00B30A2D6181538FF3E5782E5921B98E3FA55CBE89EF06403FDB16CB0F7526CA0F448B386EEF7AFFA2A9943FDC880
                Parameter set: bign-curve256v1
        X509v3 extensions:
            X509v3 Basic Constraints: 
                CA:FALSE
            Netscape Comment: 
                OpenSSL Generated Certificate
            X509v3 Subject Key Identifier: 
                3B:22:C3:74:C8:1C:C6:E2:67:67:E8:EA:91:51:54:42:5A:7B:5A:36
            X509v3 Authority Key Identifier: 
                keyid:32:F1:4C:64:6B:53:94:42:DD:4F:A9:D4:21:5E:F5:D9:89:B6:9B:CF

    Signature Algorithm: bign-with-hbelt
         17:1d:3b:18:07:ee:da:44:54:58:52:ec:26:3a:35:43:ff:3f:
         aa:81:c6:ab:e1:f4:78:9d:12:5c:a7:0d:3e:e4:b5:a5:87:7b:
         f8:53:23:75:70:28:b0:bf:22:8c:68:22
-----BEGIN CERTIFICATE-----
MIICEDCCAcqgAwIBAgICANgwDQYJKnAAAgAiZS0MBQAwZTEbMBkGA1UEAwwSd3d3
Lm15ZG9tXzQ3MDkuY29tMRUwEwYDVQQKDAxNeSBEb20sIEluYy4xCzAJBgNVBAYT
AlVTMQ8wDQYDVQQIDAZPcmVnb24xETAPBgNVBAcMCFBvcnRsYW5kMB4XDTE0MDkx
OTEwMTI1N1oXDTE1MDkxOTEwMTI1N1owTTELMAkGA1UEBhMCVVMxDzANBgNVBAgM
Bk9yZWdvbjEVMBMGA1UECgwMTXkgRG9tLCBJbmMuMRYwFAYDVQQDDA13d3cubXlk
b20uY29tMF0wGAYKKnAAAgAiZS0CAQYKKnAAAgAiZS0DAQNBAHctbCXWPuJdD1tm
7E9kWdTY0AswotYYFTj/PleC5ZIbmOP6VcvonvBkA/2xbLD3Umyg9Eizhu73r/oq
mUP9yICjezB5MAkGA1UdEwQCMAAwLAYJYIZIAYb4QgENBB8WHU9wZW5TU0wgR2Vu
ZXJhdGVkIENlcnRpZmljYXRlMB0GA1UdDgQWBBQ7IsN0yBzG4mdn6OqRUVRCWnta
NjAfBgNVHSMEGDAWgBQy8Uxka1OUQt1PqdQhXvXZibabzzANBgkqcAACACJlLQwF
AAMxABcdOxgH7tpEVFhS7CY6NUP/P6qBxqvh9HidElynDT7ktaWHe/hTI3VwKLC/
IoxoIg==
-----END CERTIFICATE-----
