Certificate:
    Data:
        Version: 3 (0x2)
        Serial Number: 218 (0xda)
    Signature Algorithm: bign-with-hbelt
        Issuer: CN=www.mydom_9802.com, O=My Dom, Inc., C=US, ST=Oregon, L=Portland
        Validity
            Not Before: Sep 19 10:12:57 2014 GMT
            Not After : Sep 19 10:12:57 2015 GMT
        Subject: C=US, ST=Oregon, O=My Dom, Inc., CN=www.mydom.com
        Subject Public Key Info:
            Public Key Algorithm: bign-pubkey
                Public key: 2F2F7FBD29AFACC28528D1F8908271C202F773348985728B8AC63D13C0D191AB1B62F32993BA7E76EDE95607FD4B2CD5CC73F3A22490A7B8B26E43358BBE92CA
                Parameter set: bign-curve256v1
        X509v3 extensions:
            X509v3 Basic Constraints: 
                CA:FALSE
            Netscape Comment: 
                OpenSSL Generated Certificate
            X509v3 Subject Key Identifier: 
                B2:D4:59:E0:4F:54:11:64:34:1F:FE:01:D8:18:80:2B:22:42:98:05
            X509v3 Authority Key Identifier: 
                keyid:64:A8:F3:01:21:AC:CD:D9:77:FA:3F:D5:AD:58:CA:64:87:43:F6:72

    Signature Algorithm: bign-with-hbelt
         1d:8c:30:67:eb:23:f9:ca:9b:c2:79:53:12:d5:8a:a1:ab:32:
         cc:f5:ea:ca:83:bd:31:09:92:bd:2e:44:58:91:91:38:2b:95:
         c1:8e:d3:8f:85:69:57:3a:d6:3b:80:08
-----BEGIN CERTIFICATE-----
MIICEDCCAcqgAwIBAgICANowDQYJKnAAAgAiZS0MBQAwZTEbMBkGA1UEAwwSd3d3
Lm15ZG9tXzk4MDIuY29tMRUwEwYDVQQKDAxNeSBEb20sIEluYy4xCzAJBgNVBAYT
AlVTMQ8wDQYDVQQIDAZPcmVnb24xETAPBgNVBAcMCFBvcnRsYW5kMB4XDTE0MDkx
OTEwMTI1N1oXDTE1MDkxOTEwMTI1N1owTTELMAkGA1UEBhMCVVMxDzANBgNVBAgM
Bk9yZWdvbjEVMBMGA1UECgwMTXkgRG9tLCBJbmMuMRYwFAYDVQQDDA13d3cubXlk
b20uY29tMF0wGAYKKnAAAgAiZS0CAQYKKnAAAgAiZS0DAQNBAC8vf70pr6zChSjR
+JCCccIC93M0iYVyi4rGPRPA0ZGrG2LzKZO6fnbt6VYH/Uss1cxz86IkkKe4sm5D
NYu+ksqjezB5MAkGA1UdEwQCMAAwLAYJYIZIAYb4QgENBB8WHU9wZW5TU0wgR2Vu
ZXJhdGVkIENlcnRpZmljYXRlMB0GA1UdDgQWBBSy1FngT1QRZDQf/gHYGIArIkKY
BTAfBgNVHSMEGDAWgBRkqPMBIazN2Xf6P9WtWMpkh0P2cjANBgkqcAACACJlLQwF
AAMxAB2MMGfrI/nKm8J5UxLViqGrMsz16sqDvTEJkr0uRFiRkTgrlcGO04+FaVc6
1juACA==
-----END CERTIFICATE-----
