Certificate:
    Data:
        Version: 3 (0x2)
        Serial Number: 219 (0xdb)
    Signature Algorithm: bign-with-hbelt
        Issuer: CN=www.mydom_9802.com, O=My Dom, Inc., C=US, ST=Oregon, L=Portland
        Validity
            Not Before: Sep 19 10:12:57 2014 GMT
            Not After : Sep 19 10:12:57 2015 GMT
        Subject: C=US, ST=Oregon, O=My Dom, Inc., CN=www.mydom.com
        Subject Public Key Info:
            Public Key Algorithm: bign-pubkey
                Public key: 2F2F7FBD29AFACC28528D1F8908271C202F773348985728B8AC63D13C0D191AB1B62F32993BA7E76EDE95607FD4B2CD5CC73F3A22490A7B8B26E43358BBE92CA
                Parameter set: bign-curve256v1
        X509v3 extensions:
            X509v3 Basic Constraints: 
                CA:FALSE
            Netscape Comment: 
                OpenSSL Generated Certificate
            X509v3 Subject Key Identifier: 
                B2:D4:59:E0:4F:54:11:64:34:1F:FE:01:D8:18:80:2B:22:42:98:05
            X509v3 Authority Key Identifier: 
                keyid:64:A8:F3:01:21:AC:CD:D9:77:FA:3F:D5:AD:58:CA:64:87:43:F6:72

    Signature Algorithm: bign-with-hbelt
         ce:87:55:03:19:a3:5c:21:fa:d8:e3:90:7a:6f:1f:3e:00:b7:
         cc:3e:49:2c:02:70:92:66:09:4c:8a:31:9a:a8:86:00:e6:92:
         a2:68:44:81:4b:74:80:23:ad:7a:43:0e
-----BEGIN CERTIFICATE-----
MIICEDCCAcqgAwIBAgICANswDQYJKnAAAgAiZS0MBQAwZTEbMBkGA1UEAwwSd3d3
Lm15ZG9tXzk4MDIuY29tMRUwEwYDVQQKDAxNeSBEb20sIEluYy4xCzAJBgNVBAYT
AlVTMQ8wDQYDVQQIDAZPcmVnb24xETAPBgNVBAcMCFBvcnRsYW5kMB4XDTE0MDkx
OTEwMTI1N1oXDTE1MDkxOTEwMTI1N1owTTELMAkGA1UEBhMCVVMxDzANBgNVBAgM
Bk9yZWdvbjEVMBMGA1UECgwMTXkgRG9tLCBJbmMuMRYwFAYDVQQDDA13d3cubXlk
b20uY29tMF0wGAYKKnAAAgAiZS0CAQYKKnAAAgAiZS0DAQNBAC8vf70pr6zChSjR
+JCCccIC93M0iYVyi4rGPRPA0ZGrG2LzKZO6fnbt6VYH/Uss1cxz86IkkKe4sm5D
NYu+ksqjezB5MAkGA1UdEwQCMAAwLAYJYIZIAYb4QgENBB8WHU9wZW5TU0wgR2Vu
ZXJhdGVkIENlcnRpZmljYXRlMB0GA1UdDgQWBBSy1FngT1QRZDQf/gHYGIArIkKY
BTAfBgNVHSMEGDAWgBRkqPMBIazN2Xf6P9WtWMpkh0P2cjANBgkqcAACACJlLQwF
AAMxAM6HVQMZo1wh+tjjkHpvHz4At8w+SSwCcJJmCUyKMZqohgDmkqJoRIFLdIAj
rXpDDg==
-----END CERTIFICATE-----
