Certificate:
    Data:
        Version: 3 (0x2)
        Serial Number: 220 (0xdc)
    Signature Algorithm: bign-with-hbelt
        Issuer: CN=www.mydom_9802.com, O=My Dom, Inc., C=US, ST=Oregon, L=Portland
        Validity
            Not Before: Sep 19 10:12:58 2014 GMT
            Not After : Sep 19 10:12:58 2015 GMT
        Subject: C=US, ST=Oregon, O=My Dom, Inc., CN=www.mydom.com
        Subject Public Key Info:
            Public Key Algorithm: bign-pubkey
                Public key: 2F2F7FBD29AFACC28528D1F8908271C202F773348985728B8AC63D13C0D191AB1B62F32993BA7E76EDE95607FD4B2CD5CC73F3A22490A7B8B26E43358BBE92CA
                Parameter set: bign-curve256v1
        X509v3 extensions:
            X509v3 Basic Constraints: 
                CA:FALSE
            Netscape Comment: 
                OpenSSL Generated Certificate
            X509v3 Subject Key Identifier: 
                B2:D4:59:E0:4F:54:11:64:34:1F:FE:01:D8:18:80:2B:22:42:98:05
            X509v3 Authority Key Identifier: 
                keyid:64:A8:F3:01:21:AC:CD:D9:77:FA:3F:D5:AD:58:CA:64:87:43:F6:72

    Signature Algorithm: bign-with-hbelt
         95:b5:18:98:9b:54:fd:3b:73:17:7e:5f:9e:83:6d:ec:39:a6:
         e1:7f:9e:f0:3c:c4:f8:1d:84:5d:62:f0:16:2a:2b:ec:9b:1a:
         ae:61:bf:d6:b2:e0:c0:6a:ba:be:09:24
-----BEGIN CERTIFICATE-----
MIICEDCCAcqgAwIBAgICANwwDQYJKnAAAgAiZS0MBQAwZTEbMBkGA1UEAwwSd3d3
Lm15ZG9tXzk4MDIuY29tMRUwEwYDVQQKDAxNeSBEb20sIEluYy4xCzAJBgNVBAYT
AlVTMQ8wDQYDVQQIDAZPcmVnb24xETAPBgNVBAcMCFBvcnRsYW5kMB4XDTE0MDkx
OTEwMTI1OFoXDTE1MDkxOTEwMTI1OFowTTELMAkGA1UEBhMCVVMxDzANBgNVBAgM
Bk9yZWdvbjEVMBMGA1UECgwMTXkgRG9tLCBJbmMuMRYwFAYDVQQDDA13d3cubXlk
b20uY29tMF0wGAYKKnAAAgAiZS0CAQYKKnAAAgAiZS0DAQNBAC8vf70pr6zChSjR
+JCCccIC93M0iYVyi4rGPRPA0ZGrG2LzKZO6fnbt6VYH/Uss1cxz86IkkKe4sm5D
NYu+ksqjezB5MAkGA1UdEwQCMAAwLAYJYIZIAYb4QgENBB8WHU9wZW5TU0wgR2Vu
ZXJhdGVkIENlcnRpZmljYXRlMB0GA1UdDgQWBBSy1FngT1QRZDQf/gHYGIArIkKY
BTAfBgNVHSMEGDAWgBRkqPMBIazN2Xf6P9WtWMpkh0P2cjANBgkqcAACACJlLQwF
AAMxAJW1GJibVP07cxd+X56Dbew5puF/nvA8xPgdhF1i8BYqK+ybGq5hv9ay4MBq
ur4JJA==
-----END CERTIFICATE-----
