Certificate:
    Data:
        Version: 3 (0x2)
        Serial Number: 222 (0xde)
    Signature Algorithm: bign-with-hbelt
        Issuer: CN=www.mydom_1107.com, O=My Dom, Inc., C=US, ST=Oregon, L=Portland
        Validity
            Not Before: Sep 19 10:13:12 2014 GMT
            Not After : Sep 19 10:13:12 2015 GMT
        Subject: C=US, ST=Oregon, O=My Dom, Inc., CN=www.mydom.com
        Subject Public Key Info:
            Public Key Algorithm: bign-pubkey
                Public key: 7D331347BA7B42BC47C338D1883F68536AD3286A2B6F8EB191E2BC5C7113ED3F352C697396EDE09A26557C200688BCAA8879550802ED5FB1A35B3491E2F5E3EC
                Parameter set: bign-curve256v1
        X509v3 extensions:
            X509v3 Basic Constraints: 
                CA:FALSE
            Netscape Comment: 
                OpenSSL Generated Certificate
            X509v3 Subject Key Identifier: 
                47:6D:4C:1A:17:C2:6D:5E:84:A1:D8:54:7C:0D:94:84:1D:91:A2:BB
            X509v3 Authority Key Identifier: 
                keyid:09:DE:32:44:E0:9B:89:92:6C:33:45:EA:86:73:B4:48:C2:BC:23:C1

    Signature Algorithm: bign-with-hbelt
         db:58:74:07:8a:41:ea:47:01:9c:38:23:f4:1b:33:f5:5c:7c:
         ed:b3:65:ba:44:f4:b3:a6:6e:a7:c6:e9:9e:d0:cc:0a:f2:80:
         e1:8c:0d:ed:d2:cb:d6:26:e5:54:ef:9f
-----BEGIN CERTIFICATE-----
MIICEDCCAcqgAwIBAgICAN4wDQYJKnAAAgAiZS0MBQAwZTEbMBkGA1UEAwwSd3d3
Lm15ZG9tXzExMDcuY29tMRUwEwYDVQQKDAxNeSBEb20sIEluYy4xCzAJBgNVBAYT
AlVTMQ8wDQYDVQQIDAZPcmVnb24xETAPBgNVBAcMCFBvcnRsYW5kMB4XDTE0MDkx
OTEwMTMxMloXDTE1MDkxOTEwMTMxMlowTTELMAkGA1UEBhMCVVMxDzANBgNVBAgM
Bk9yZWdvbjEVMBMGA1UECgwMTXkgRG9tLCBJbmMuMRYwFAYDVQQDDA13d3cubXlk
b20uY29tMF0wGAYKKnAAAgAiZS0CAQYKKnAAAgAiZS0DAQNBAH0zE0e6e0K8R8M4
0Yg/aFNq0yhqK2+OsZHivFxxE+0/NSxpc5bt4JomVXwgBoi8qoh5VQgC7V+xo1s0
keL14+yjezB5MAkGA1UdEwQCMAAwLAYJYIZIAYb4QgENBB8WHU9wZW5TU0wgR2Vu
ZXJhdGVkIENlcnRpZmljYXRlMB0GA1UdDgQWBBRHbUwaF8JtXoSh2FR8DZSEHZGi
uzAfBgNVHSMEGDAWgBQJ3jJE4JuJkmwzReqGc7RIwrwjwTANBgkqcAACACJlLQwF
AAMxANtYdAeKQepHAZw4I/QbM/VcfO2zZbpE9LOmbqfG6Z7QzArygOGMDe3Sy9Ym
5VTvnw==
-----END CERTIFICATE-----
