Certificate:
    Data:
        Version: 3 (0x2)
        Serial Number: 223 (0xdf)
    Signature Algorithm: bign-with-hbelt
        Issuer: CN=www.mydom_1107.com, O=My Dom, Inc., C=US, ST=Oregon, L=Portland
        Validity
            Not Before: Sep 19 10:13:12 2014 GMT
            Not After : Sep 19 10:13:12 2015 GMT
        Subject: C=US, ST=Oregon, O=My Dom, Inc., CN=www.mydom.com
        Subject Public Key Info:
            Public Key Algorithm: bign-pubkey
                Public key: 7D331347BA7B42BC47C338D1883F68536AD3286A2B6F8EB191E2BC5C7113ED3F352C697396EDE09A26557C200688BCAA8879550802ED5FB1A35B3491E2F5E3EC
                Parameter set: bign-curve256v1
        X509v3 extensions:
            X509v3 Basic Constraints: 
                CA:FALSE
            Netscape Comment: 
                OpenSSL Generated Certificate
            X509v3 Subject Key Identifier: 
                47:6D:4C:1A:17:C2:6D:5E:84:A1:D8:54:7C:0D:94:84:1D:91:A2:BB
            X509v3 Authority Key Identifier: 
                keyid:09:DE:32:44:E0:9B:89:92:6C:33:45:EA:86:73:B4:48:C2:BC:23:C1

    Signature Algorithm: bign-with-hbelt
         62:9d:1e:30:24:6f:c2:a0:e5:1f:c3:3a:6b:30:6a:c1:3f:ec:
         64:b4:59:95:f4:37:b8:23:6e:a2:24:a6:4e:ca:b0:c2:9b:b4:
         01:18:0f:cf:c8:d8:fc:04:b1:74:95:9b
-----BEGIN CERTIFICATE-----
MIICEDCCAcqgAwIBAgICAN8wDQYJKnAAAgAiZS0MBQAwZTEbMBkGA1UEAwwSd3d3
Lm15ZG9tXzExMDcuY29tMRUwEwYDVQQKDAxNeSBEb20sIEluYy4xCzAJBgNVBAYT
AlVTMQ8wDQYDVQQIDAZPcmVnb24xETAPBgNVBAcMCFBvcnRsYW5kMB4XDTE0MDkx
OTEwMTMxMloXDTE1MDkxOTEwMTMxMlowTTELMAkGA1UEBhMCVVMxDzANBgNVBAgM
Bk9yZWdvbjEVMBMGA1UECgwMTXkgRG9tLCBJbmMuMRYwFAYDVQQDDA13d3cubXlk
b20uY29tMF0wGAYKKnAAAgAiZS0CAQYKKnAAAgAiZS0DAQNBAH0zE0e6e0K8R8M4
0Yg/aFNq0yhqK2+OsZHivFxxE+0/NSxpc5bt4JomVXwgBoi8qoh5VQgC7V+xo1s0
keL14+yjezB5MAkGA1UdEwQCMAAwLAYJYIZIAYb4QgENBB8WHU9wZW5TU0wgR2Vu
ZXJhdGVkIENlcnRpZmljYXRlMB0GA1UdDgQWBBRHbUwaF8JtXoSh2FR8DZSEHZGi
uzAfBgNVHSMEGDAWgBQJ3jJE4JuJkmwzReqGc7RIwrwjwTANBgkqcAACACJlLQwF
AAMxAGKdHjAkb8Kg5R/DOmswasE/7GS0WZX0N7gjbqIkpk7KsMKbtAEYD8/I2PwE
sXSVmw==
-----END CERTIFICATE-----
