Certificate:
    Data:
        Version: 3 (0x2)
        Serial Number: 225 (0xe1)
    Signature Algorithm: bign-with-hbelt
        Issuer: CN=www.mydom_1107.com, O=My Dom, Inc., C=US, ST=Oregon, L=Portland
        Validity
            Not Before: Sep 19 10:13:12 2014 GMT
            Not After : Sep 19 10:13:12 2015 GMT
        Subject: C=US, ST=Oregon, O=My Dom, Inc., CN=www.mydom.com
        Subject Public Key Info:
            Public Key Algorithm: bign-pubkey
                Public key: 7D331347BA7B42BC47C338D1883F68536AD3286A2B6F8EB191E2BC5C7113ED3F352C697396EDE09A26557C200688BCAA8879550802ED5FB1A35B3491E2F5E3EC
                Parameter set: bign-curve256v1
        X509v3 extensions:
            X509v3 Basic Constraints: 
                CA:FALSE
            Netscape Comment: 
                OpenSSL Generated Certificate
            X509v3 Subject Key Identifier: 
                47:6D:4C:1A:17:C2:6D:5E:84:A1:D8:54:7C:0D:94:84:1D:91:A2:BB
            X509v3 Authority Key Identifier: 
                keyid:09:DE:32:44:E0:9B:89:92:6C:33:45:EA:86:73:B4:48:C2:BC:23:C1

    Signature Algorithm: bign-with-hbelt
         bb:fd:68:a2:17:64:da:e9:3f:17:ac:68:cb:05:e8:6c:af:c6:
         1f:c8:d9:5d:f9:26:11:ad:a7:35:69:25:bf:fe:4e:a1:cb:56:
         ab:ed:0e:4c:69:05:57:50:1c:81:e5:8e
-----BEGIN CERTIFICATE-----
MIICEDCCAcqgAwIBAgICAOEwDQYJKnAAAgAiZS0MBQAwZTEbMBkGA1UEAwwSd3d3
Lm15ZG9tXzExMDcuY29tMRUwEwYDVQQKDAxNeSBEb20sIEluYy4xCzAJBgNVBAYT
AlVTMQ8wDQYDVQQIDAZPcmVnb24xETAPBgNVBAcMCFBvcnRsYW5kMB4XDTE0MDkx
OTEwMTMxMloXDTE1MDkxOTEwMTMxMlowTTELMAkGA1UEBhMCVVMxDzANBgNVBAgM
Bk9yZWdvbjEVMBMGA1UECgwMTXkgRG9tLCBJbmMuMRYwFAYDVQQDDA13d3cubXlk
b20uY29tMF0wGAYKKnAAAgAiZS0CAQYKKnAAAgAiZS0DAQNBAH0zE0e6e0K8R8M4
0Yg/aFNq0yhqK2+OsZHivFxxE+0/NSxpc5bt4JomVXwgBoi8qoh5VQgC7V+xo1s0
keL14+yjezB5MAkGA1UdEwQCMAAwLAYJYIZIAYb4QgENBB8WHU9wZW5TU0wgR2Vu
ZXJhdGVkIENlcnRpZmljYXRlMB0GA1UdDgQWBBRHbUwaF8JtXoSh2FR8DZSEHZGi
uzAfBgNVHSMEGDAWgBQJ3jJE4JuJkmwzReqGc7RIwrwjwTANBgkqcAACACJlLQwF
AAMxALv9aKIXZNrpPxesaMsF6Gyvxh/I2V35JhGtpzVpJb/+TqHLVqvtDkxpBVdQ
HIHljg==
-----END CERTIFICATE-----
