Certificate:
    Data:
        Version: 3 (0x2)
        Serial Number: 229 (0xe5)
    Signature Algorithm: bign-with-hbelt
        Issuer: CN=www.mydom_507.com, O=My Dom, Inc., C=US, ST=Oregon, L=Portland
        Validity
            Not Before: Sep 19 10:13:13 2014 GMT
            Not After : Sep 19 10:13:13 2015 GMT
        Subject: C=US, ST=Oregon, O=My Dom, Inc., CN=www.mydom.com
        Subject Public Key Info:
            Public Key Algorithm: bign-pubkey
                Public key: 83B4B2950F3D6F6455427927C84AA8E6F8E3C82DB30D268F9831E0D2CEDD847A93B21C52690B02F9A6FD24A63C29EDE6FC4767CADA5194CF356969F947854513
                Parameter set: bign-curve256v1
        X509v3 extensions:
            X509v3 Basic Constraints: 
                CA:FALSE
            Netscape Comment: 
                OpenSSL Generated Certificate
            X509v3 Subject Key Identifier: 
                8F:B7:D1:61:BF:B1:8F:A4:AE:29:05:A8:75:D9:1C:EB:70:C9:D1:FB
            X509v3 Authority Key Identifier: 
                keyid:93:11:C7:F4:FE:80:C6:39:70:A1:A2:A9:BC:BB:4B:FD:45:96:DD:64

    Signature Algorithm: bign-with-hbelt
         28:ef:95:96:5c:af:a4:bc:0a:12:1f:b2:6a:18:f6:35:23:3e:
         a5:72:a6:cc:0d:2e:df:26:6d:cd:fe:c5:e7:70:e0:44:67:f6:
         4f:57:9d:46:bf:28:2e:2c:75:3a:bc:71
-----BEGIN CERTIFICATE-----
MIICDzCCAcmgAwIBAgICAOUwDQYJKnAAAgAiZS0MBQAwZDEaMBgGA1UEAwwRd3d3
Lm15ZG9tXzUwNy5jb20xFTATBgNVBAoMDE15IERvbSwgSW5jLjELMAkGA1UEBhMC
VVMxDzANBgNVBAgMBk9yZWdvbjERMA8GA1UEBwwIUG9ydGxhbmQwHhcNMTQwOTE5
MTAxMzEzWhcNMTUwOTE5MTAxMzEzWjBNMQswCQYDVQQGEwJVUzEPMA0GA1UECAwG
T3JlZ29uMRUwEwYDVQQKDAxNeSBEb20sIEluYy4xFjAUBgNVBAMMDXd3dy5teWRv
bS5jb20wXTAYBgoqcAACACJlLQIBBgoqcAACACJlLQMBA0EAg7SylQ89b2RVQnkn
yEqo5vjjyC2zDSaPmDHg0s7dhHqTshxSaQsC+ab9JKY8Ke3m/EdnytpRlM81aWn5
R4VFE6N7MHkwCQYDVR0TBAIwADAsBglghkgBhvhCAQ0EHxYdT3BlblNTTCBHZW5l
cmF0ZWQgQ2VydGlmaWNhdGUwHQYDVR0OBBYEFI+30WG/sY+krikFqHXZHOtwydH7
MB8GA1UdIwQYMBaAFJMRx/T+gMY5cKGiqby7S/1Flt1kMA0GCSpwAAIAImUtDAUA
AzEAKO+VllyvpLwKEh+yahj2NSM+pXKmzA0u3yZtzf7F53DgRGf2T1edRr8oLix1
Orxx
-----END CERTIFICATE-----
