Certificate:
    Data:
        Version: 3 (0x2)
        Serial Number: 234 (0xea)
    Signature Algorithm: bign-with-hbelt
        Issuer: CN=www.mydom_9751.com, O=My Dom, Inc., C=US, ST=Oregon, L=Portland
        Validity
            Not Before: Sep 24 11:08:06 2014 GMT
            Not After : Sep 24 11:08:06 2015 GMT
        Subject: C=US, ST=Oregon, O=My Dom, Inc., CN=www.mydom.com
        Subject Public Key Info:
            Public Key Algorithm: bign-pubkey
                Public key: F5951616FAA5EBDF717BB1C28BE91082DB843ECC52E081460D225024CA5DF8B60F7D30EBEF9FA7192870DC618552197095982DFCE2271893E9A5376A562C423F
                Parameter set: bign-curve256v1
        X509v3 extensions:
            X509v3 Basic Constraints: 
                CA:FALSE
            Netscape Comment: 
                OpenSSL Generated Certificate
            X509v3 Subject Key Identifier: 
                8D:E6:66:3C:FC:4C:24:03:EC:40:D7:1A:02:71:3B:4A:B1:2E:8F:2E
            X509v3 Authority Key Identifier: 
                keyid:22:0C:67:FF:70:5F:E4:EE:8C:DA:F5:73:57:67:25:44:20:F1:5A:08

    Signature Algorithm: bign-with-hbelt
         bb:c4:9d:15:e4:09:87:c3:9f:85:7a:98:b2:97:40:c2:28:93:
         86:1e:91:1b:f2:56:35:a7:a2:eb:37:87:0c:e6:ca:99:85:48:
         71:e2:98:a2:07:16:05:1d:8d:98:a0:8a
-----BEGIN CERTIFICATE-----
MIICEDCCAcqgAwIBAgICAOowDQYJKnAAAgAiZS0MBQAwZTEbMBkGA1UEAwwSd3d3
Lm15ZG9tXzk3NTEuY29tMRUwEwYDVQQKDAxNeSBEb20sIEluYy4xCzAJBgNVBAYT
AlVTMQ8wDQYDVQQIDAZPcmVnb24xETAPBgNVBAcMCFBvcnRsYW5kMB4XDTE0MDky
NDExMDgwNloXDTE1MDkyNDExMDgwNlowTTELMAkGA1UEBhMCVVMxDzANBgNVBAgM
Bk9yZWdvbjEVMBMGA1UECgwMTXkgRG9tLCBJbmMuMRYwFAYDVQQDDA13d3cubXlk
b20uY29tMF0wGAYKKnAAAgAiZS0CAQYKKnAAAgAiZS0DAQNBAPWVFhb6pevfcXux
wovpEILbhD7MUuCBRg0iUCTKXfi2D30w6++fpxkocNxhhVIZcJWYLfziJxiT6aU3
alYsQj+jezB5MAkGA1UdEwQCMAAwLAYJYIZIAYb4QgENBB8WHU9wZW5TU0wgR2Vu
ZXJhdGVkIENlcnRpZmljYXRlMB0GA1UdDgQWBBSN5mY8/EwkA+xA1xoCcTtKsS6P
LjAfBgNVHSMEGDAWgBQiDGf/cF/k7oza9XNXZyVEIPFaCDANBgkqcAACACJlLQwF
AAMxALvEnRXkCYfDn4V6mLKXQMIok4YekRvyVjWnous3hwzmypmFSHHimKIHFgUd
jZigig==
-----END CERTIFICATE-----
