Certificate:
    Data:
        Version: 3 (0x2)
        Serial Number: 236 (0xec)
    Signature Algorithm: bign-with-hbelt
        Issuer: CN=www.mydom_8033.com, O=My Dom, Inc., C=US, ST=Oregon, L=Portland
        Validity
            Not Before: Sep 24 11:08:06 2014 GMT
            Not After : Sep 24 11:08:06 2015 GMT
        Subject: C=US, ST=Oregon, O=My Dom, Inc., CN=www.mydom.com
        Subject Public Key Info:
            Public Key Algorithm: bign-pubkey
                Public key: 9C97C7316958FC5867011BE84B1CB229BB82D91976E75ACAC734838740BC31416DA07B1AA8C8BD2E6C3AE0505949142CFE5B5CE792EBDF1C83EE5F316CD931E6
                Parameter set: bign-curve256v1
        X509v3 extensions:
            X509v3 Basic Constraints: 
                CA:FALSE
            Netscape Comment: 
                OpenSSL Generated Certificate
            X509v3 Subject Key Identifier: 
                CE:D1:65:BD:3E:60:1D:7A:3E:AE:72:FC:E4:1B:60:D1:FA:13:54:E0
            X509v3 Authority Key Identifier: 
                keyid:5F:BE:3C:A6:27:EC:B9:83:FB:73:DD:C9:50:F7:2B:B4:55:36:A9:B2

    Signature Algorithm: bign-with-hbelt
         c3:b1:d2:46:2e:48:f7:7f:90:73:37:40:b6:fd:57:92:1e:6a:
         ec:3e:60:ea:7c:a9:3b:f1:49:ae:21:39:c0:47:e7:a8:64:58:
         fe:d0:b2:d6:2d:94:c7:68:47:71:7b:70
-----BEGIN CERTIFICATE-----
MIICEDCCAcqgAwIBAgICAOwwDQYJKnAAAgAiZS0MBQAwZTEbMBkGA1UEAwwSd3d3
Lm15ZG9tXzgwMzMuY29tMRUwEwYDVQQKDAxNeSBEb20sIEluYy4xCzAJBgNVBAYT
AlVTMQ8wDQYDVQQIDAZPcmVnb24xETAPBgNVBAcMCFBvcnRsYW5kMB4XDTE0MDky
NDExMDgwNloXDTE1MDkyNDExMDgwNlowTTELMAkGA1UEBhMCVVMxDzANBgNVBAgM
Bk9yZWdvbjEVMBMGA1UECgwMTXkgRG9tLCBJbmMuMRYwFAYDVQQDDA13d3cubXlk
b20uY29tMF0wGAYKKnAAAgAiZS0CAQYKKnAAAgAiZS0DAQNBAJyXxzFpWPxYZwEb
6Escsim7gtkZdudaysc0g4dAvDFBbaB7GqjIvS5sOuBQWUkULP5bXOeS698cg+5f
MWzZMeajezB5MAkGA1UdEwQCMAAwLAYJYIZIAYb4QgENBB8WHU9wZW5TU0wgR2Vu
ZXJhdGVkIENlcnRpZmljYXRlMB0GA1UdDgQWBBTO0WW9PmAdej6ucvzkG2DR+hNU
4DAfBgNVHSMEGDAWgBRfvjymJ+y5g/tz3clQ9yu0VTapsjANBgkqcAACACJlLQwF
AAMxAMOx0kYuSPd/kHM3QLb9V5Ieauw+YOp8qTvxSa4hOcBH56hkWP7QstYtlMdo
R3F7cA==
-----END CERTIFICATE-----
