Certificate:
    Data:
        Version: 3 (0x2)
        Serial Number: 238 (0xee)
    Signature Algorithm: bign-with-hbelt
        Issuer: CN=www.mydom_8033.com, O=My Dom, Inc., C=US, ST=Oregon, L=Portland
        Validity
            Not Before: Sep 24 11:08:07 2014 GMT
            Not After : Sep 24 11:08:07 2015 GMT
        Subject: C=US, ST=Oregon, O=My Dom, Inc., CN=www.mydom.com
        Subject Public Key Info:
            Public Key Algorithm: bign-pubkey
                Public key: 9C97C7316958FC5867011BE84B1CB229BB82D91976E75ACAC734838740BC31416DA07B1AA8C8BD2E6C3AE0505949142CFE5B5CE792EBDF1C83EE5F316CD931E6
                Parameter set: bign-curve256v1
        X509v3 extensions:
            X509v3 Basic Constraints: 
                CA:FALSE
            Netscape Comment: 
                OpenSSL Generated Certificate
            X509v3 Subject Key Identifier: 
                CE:D1:65:BD:3E:60:1D:7A:3E:AE:72:FC:E4:1B:60:D1:FA:13:54:E0
            X509v3 Authority Key Identifier: 
                keyid:5F:BE:3C:A6:27:EC:B9:83:FB:73:DD:C9:50:F7:2B:B4:55:36:A9:B2

    Signature Algorithm: bign-with-hbelt
         0a:03:d8:83:ac:35:89:0f:87:73:ef:f0:0b:75:ca:4d:d5:b1:
         92:1b:ac:4b:8e:80:2e:e4:4c:66:98:4b:b9:17:c0:12:84:42:
         f4:00:06:28:a5:19:06:f1:c0:1b:b0:4a
-----BEGIN CERTIFICATE-----
MIICEDCCAcqgAwIBAgICAO4wDQYJKnAAAgAiZS0MBQAwZTEbMBkGA1UEAwwSd3d3
Lm15ZG9tXzgwMzMuY29tMRUwEwYDVQQKDAxNeSBEb20sIEluYy4xCzAJBgNVBAYT
AlVTMQ8wDQYDVQQIDAZPcmVnb24xETAPBgNVBAcMCFBvcnRsYW5kMB4XDTE0MDky
NDExMDgwN1oXDTE1MDkyNDExMDgwN1owTTELMAkGA1UEBhMCVVMxDzANBgNVBAgM
Bk9yZWdvbjEVMBMGA1UECgwMTXkgRG9tLCBJbmMuMRYwFAYDVQQDDA13d3cubXlk
b20uY29tMF0wGAYKKnAAAgAiZS0CAQYKKnAAAgAiZS0DAQNBAJyXxzFpWPxYZwEb
6Escsim7gtkZdudaysc0g4dAvDFBbaB7GqjIvS5sOuBQWUkULP5bXOeS698cg+5f
MWzZMeajezB5MAkGA1UdEwQCMAAwLAYJYIZIAYb4QgENBB8WHU9wZW5TU0wgR2Vu
ZXJhdGVkIENlcnRpZmljYXRlMB0GA1UdDgQWBBTO0WW9PmAdej6ucvzkG2DR+hNU
4DAfBgNVHSMEGDAWgBRfvjymJ+y5g/tz3clQ9yu0VTapsjANBgkqcAACACJlLQwF
AAMxAAoD2IOsNYkPh3Pv8At1yk3VsZIbrEuOgC7kTGaYS7kXwBKEQvQABiilGQbx
wBuwSg==
-----END CERTIFICATE-----
