Certificate:
    Data:
        Version: 3 (0x2)
        Serial Number: 241 (0xf1)
    Signature Algorithm: bign-with-hbelt
        Issuer: CN=www.mydom_6595.com, O=My Dom, Inc., C=US, ST=Oregon, L=Portland
        Validity
            Not Before: Oct  9 10:44:01 2014 GMT
            Not After : Oct  9 10:44:01 2015 GMT
        Subject: C=US, ST=Oregon, O=My Dom, Inc., CN=www.mydom.com
        Subject Public Key Info:
            Public Key Algorithm: bign-pubkey
                Public key: 002BE427F1889F944A1826FBF6BBADB90E9CA8BB90E7C531315399BF652B659F15E22A1292BB02C8AA96E2F5E3FDFB3E97D56116D2E826D696D39E7ADE6B6188
                Parameter set: bign-curve256v1
        X509v3 extensions:
            X509v3 Basic Constraints: 
                CA:FALSE
            Netscape Comment: 
                OpenSSL Generated Certificate
            X509v3 Subject Key Identifier: 
                C7:D8:93:E4:87:13:03:3D:7A:16:E3:A0:B1:30:00:2A:6C:61:D2:01
            X509v3 Authority Key Identifier: 
                keyid:9D:F1:2F:3B:E9:A4:19:E0:EC:78:95:74:56:D3:C3:FA:40:D2:3B:0F

    Signature Algorithm: bign-with-hbelt
         f1:01:ba:af:dc:f2:7e:5f:d6:10:04:8c:10:25:76:33:ce:e6:
         ea:ff:48:8e:95:31:ac:23:33:12:a9:95:d5:33:f0:15:31:39:
         2d:20:29:f3:a4:e4:d3:3b:72:39:6c:9c
-----BEGIN CERTIFICATE-----
MIICEDCCAcqgAwIBAgICAPEwDQYJKnAAAgAiZS0MBQAwZTEbMBkGA1UEAwwSd3d3
Lm15ZG9tXzY1OTUuY29tMRUwEwYDVQQKDAxNeSBEb20sIEluYy4xCzAJBgNVBAYT
AlVTMQ8wDQYDVQQIDAZPcmVnb24xETAPBgNVBAcMCFBvcnRsYW5kMB4XDTE0MTAw
OTEwNDQwMVoXDTE1MTAwOTEwNDQwMVowTTELMAkGA1UEBhMCVVMxDzANBgNVBAgM
Bk9yZWdvbjEVMBMGA1UECgwMTXkgRG9tLCBJbmMuMRYwFAYDVQQDDA13d3cubXlk
b20uY29tMF0wGAYKKnAAAgAiZS0CAQYKKnAAAgAiZS0DAQNBAAAr5CfxiJ+UShgm
+/a7rbkOnKi7kOfFMTFTmb9lK2WfFeIqEpK7AsiqluL14/37PpfVYRbS6CbWltOe
et5rYYijezB5MAkGA1UdEwQCMAAwLAYJYIZIAYb4QgENBB8WHU9wZW5TU0wgR2Vu
ZXJhdGVkIENlcnRpZmljYXRlMB0GA1UdDgQWBBTH2JPkhxMDPXoW46CxMAAqbGHS
ATAfBgNVHSMEGDAWgBSd8S876aQZ4Ox4lXRW08P6QNI7DzANBgkqcAACACJlLQwF
AAMxAPEBuq/c8n5f1hAEjBAldjPO5ur/SI6VMawjMxKpldUz8BUxOS0gKfOk5NM7
cjlsnA==
-----END CERTIFICATE-----
