Certificate:
    Data:
        Version: 3 (0x2)
        Serial Number: 245 (0xf5)
    Signature Algorithm: bign-with-hbelt
        Issuer: CN=www.mydom_63.com, O=My Dom, Inc., C=US, ST=Oregon, L=Portland
        Validity
            Not Before: Oct  9 10:44:02 2014 GMT
            Not After : Oct  9 10:44:02 2015 GMT
        Subject: C=US, ST=Oregon, O=My Dom, Inc., CN=www.mydom.com
        Subject Public Key Info:
            Public Key Algorithm: bign-pubkey
                Public key: B3EF9CC4EC6C2C19066B017402AD3625F2E312157225E255DA1B88D95E6245B21960FC3AD0740DDC96E8CD7C9476E86A40B0E4E9F41A8D955F44324F55F3A033
                Parameter set: bign-curve256v1
        X509v3 extensions:
            X509v3 Basic Constraints: 
                CA:FALSE
            Netscape Comment: 
                OpenSSL Generated Certificate
            X509v3 Subject Key Identifier: 
                68:B4:21:9B:26:A1:FC:12:FC:78:C3:22:9F:75:BF:56:AA:59:F2:00
            X509v3 Authority Key Identifier: 
                keyid:74:8E:7B:9C:5A:8D:B0:86:7F:FE:32:16:63:25:99:13:27:BB:FF:D6

    Signature Algorithm: bign-with-hbelt
         d1:5d:6d:a4:59:37:7c:27:5a:1a:02:f1:1e:f8:b5:a6:46:31:
         f6:42:f1:69:64:11:41:d7:31:51:6a:ec:88:e4:3b:8f:27:59:
         1d:05:dc:87:58:b1:54:2e:c2:cb:bd:c3
-----BEGIN CERTIFICATE-----
MIICDjCCAcigAwIBAgICAPUwDQYJKnAAAgAiZS0MBQAwYzEZMBcGA1UEAwwQd3d3
Lm15ZG9tXzYzLmNvbTEVMBMGA1UECgwMTXkgRG9tLCBJbmMuMQswCQYDVQQGEwJV
UzEPMA0GA1UECAwGT3JlZ29uMREwDwYDVQQHDAhQb3J0bGFuZDAeFw0xNDEwMDkx
MDQ0MDJaFw0xNTEwMDkxMDQ0MDJaME0xCzAJBgNVBAYTAlVTMQ8wDQYDVQQIDAZP
cmVnb24xFTATBgNVBAoMDE15IERvbSwgSW5jLjEWMBQGA1UEAwwNd3d3Lm15ZG9t
LmNvbTBdMBgGCipwAAIAImUtAgEGCipwAAIAImUtAwEDQQCz75zE7GwsGQZrAXQC
rTYl8uMSFXIl4lXaG4jZXmJFshlg/DrQdA3clujNfJR26GpAsOTp9BqNlV9EMk9V
86Azo3sweTAJBgNVHRMEAjAAMCwGCWCGSAGG+EIBDQQfFh1PcGVuU1NMIEdlbmVy
YXRlZCBDZXJ0aWZpY2F0ZTAdBgNVHQ4EFgQUaLQhmyah/BL8eMMin3W/VqpZ8gAw
HwYDVR0jBBgwFoAUdI57nFqNsIZ//jIWYyWZEye7/9YwDQYJKnAAAgAiZS0MBQAD
MQDRXW2kWTd8J1oaAvEe+LWmRjH2QvFpZBFB1zFRauyI5DuPJ1kdBdyHWLFULsLL
vcM=
-----END CERTIFICATE-----
