Certificate:
    Data:
        Version: 3 (0x2)
        Serial Number: 246 (0xf6)
    Signature Algorithm: bign-with-hbelt
        Issuer: CN=www.mydom_63.com, O=My Dom, Inc., C=US, ST=Oregon, L=Portland
        Validity
            Not Before: Oct  9 10:44:02 2014 GMT
            Not After : Oct  9 10:44:02 2015 GMT
        Subject: C=US, ST=Oregon, O=My Dom, Inc., CN=www.mydom.com
        Subject Public Key Info:
            Public Key Algorithm: bign-pubkey
                Public key: B3EF9CC4EC6C2C19066B017402AD3625F2E312157225E255DA1B88D95E6245B21960FC3AD0740DDC96E8CD7C9476E86A40B0E4E9F41A8D955F44324F55F3A033
                Parameter set: bign-curve256v1
        X509v3 extensions:
            X509v3 Basic Constraints: 
                CA:FALSE
            Netscape Comment: 
                OpenSSL Generated Certificate
            X509v3 Subject Key Identifier: 
                68:B4:21:9B:26:A1:FC:12:FC:78:C3:22:9F:75:BF:56:AA:59:F2:00
            X509v3 Authority Key Identifier: 
                keyid:74:8E:7B:9C:5A:8D:B0:86:7F:FE:32:16:63:25:99:13:27:BB:FF:D6

    Signature Algorithm: bign-with-hbelt
         7a:6c:f9:6a:d6:45:e5:f5:b4:50:b6:7b:66:15:25:8b:da:32:
         54:8c:7a:11:a8:c5:b1:16:6f:be:36:47:e6:97:e8:ac:01:b8:
         44:d9:b1:de:9a:c4:fc:30:ec:c0:42:0e
-----BEGIN CERTIFICATE-----
MIICDjCCAcigAwIBAgICAPYwDQYJKnAAAgAiZS0MBQAwYzEZMBcGA1UEAwwQd3d3
Lm15ZG9tXzYzLmNvbTEVMBMGA1UECgwMTXkgRG9tLCBJbmMuMQswCQYDVQQGEwJV
UzEPMA0GA1UECAwGT3JlZ29uMREwDwYDVQQHDAhQb3J0bGFuZDAeFw0xNDEwMDkx
MDQ0MDJaFw0xNTEwMDkxMDQ0MDJaME0xCzAJBgNVBAYTAlVTMQ8wDQYDVQQIDAZP
cmVnb24xFTATBgNVBAoMDE15IERvbSwgSW5jLjEWMBQGA1UEAwwNd3d3Lm15ZG9t
LmNvbTBdMBgGCipwAAIAImUtAgEGCipwAAIAImUtAwEDQQCz75zE7GwsGQZrAXQC
rTYl8uMSFXIl4lXaG4jZXmJFshlg/DrQdA3clujNfJR26GpAsOTp9BqNlV9EMk9V
86Azo3sweTAJBgNVHRMEAjAAMCwGCWCGSAGG+EIBDQQfFh1PcGVuU1NMIEdlbmVy
YXRlZCBDZXJ0aWZpY2F0ZTAdBgNVHQ4EFgQUaLQhmyah/BL8eMMin3W/VqpZ8gAw
HwYDVR0jBBgwFoAUdI57nFqNsIZ//jIWYyWZEye7/9YwDQYJKnAAAgAiZS0MBQAD
MQB6bPlq1kXl9bRQtntmFSWL2jJUjHoRqMWxFm++Nkfml+isAbhE2bHemsT8MOzA
Qg4=
-----END CERTIFICATE-----
