Certificate:
    Data:
        Version: 3 (0x2)
        Serial Number: 249 (0xf9)
    Signature Algorithm: bign-with-hbelt
        Issuer: CN=www.mydom_68.com, O=My Dom, Inc., C=US, ST=Oregon, L=Portland
        Validity
            Not Before: Oct  9 11:44:30 2014 GMT
            Not After : Oct  9 11:44:30 2015 GMT
        Subject: C=US, ST=Oregon, O=My Dom, Inc., CN=www.mydom.com
        Subject Public Key Info:
            Public Key Algorithm: bign-pubkey
                Public key: E5E486E8B820A80CADA541AA5E7D029185E6D02A13099A849A808ACB56102B8874AA454FEB5EBC04F60649A98179357D0D37F5C8CC84114B2CD8649B51B0DE45
                Parameter set: bign-curve256v1
        X509v3 extensions:
            X509v3 Basic Constraints: 
                CA:FALSE
            Netscape Comment: 
                OpenSSL Generated Certificate
            X509v3 Subject Key Identifier: 
                AC:56:2B:B2:C6:B1:74:5E:3E:A5:6D:A8:C0:BB:07:AE:71:C7:BA:61
            X509v3 Authority Key Identifier: 
                keyid:5D:6C:5C:52:71:56:6C:29:FE:CD:DF:25:FE:A5:03:6E:53:94:CF:C0

    Signature Algorithm: bign-with-hbelt
         ff:6f:63:f2:34:f2:f0:06:82:24:45:10:90:f4:ca:be:c5:f8:
         59:e0:b3:4a:ee:2b:cb:43:6e:8e:5c:6a:91:a8:5c:14:07:5b:
         6a:eb:05:0b:b7:3a:a7:e1:87:47:2f:38
-----BEGIN CERTIFICATE-----
MIICDjCCAcigAwIBAgICAPkwDQYJKnAAAgAiZS0MBQAwYzEZMBcGA1UEAwwQd3d3
Lm15ZG9tXzY4LmNvbTEVMBMGA1UECgwMTXkgRG9tLCBJbmMuMQswCQYDVQQGEwJV
UzEPMA0GA1UECAwGT3JlZ29uMREwDwYDVQQHDAhQb3J0bGFuZDAeFw0xNDEwMDkx
MTQ0MzBaFw0xNTEwMDkxMTQ0MzBaME0xCzAJBgNVBAYTAlVTMQ8wDQYDVQQIDAZP
cmVnb24xFTATBgNVBAoMDE15IERvbSwgSW5jLjEWMBQGA1UEAwwNd3d3Lm15ZG9t
LmNvbTBdMBgGCipwAAIAImUtAgEGCipwAAIAImUtAwEDQQDl5IbouCCoDK2lQape
fQKRhebQKhMJmoSagIrLVhAriHSqRU/rXrwE9gZJqYF5NX0NN/XIzIQRSyzYZJtR
sN5Fo3sweTAJBgNVHRMEAjAAMCwGCWCGSAGG+EIBDQQfFh1PcGVuU1NMIEdlbmVy
YXRlZCBDZXJ0aWZpY2F0ZTAdBgNVHQ4EFgQUrFYrssaxdF4+pW2owLsHrnHHumEw
HwYDVR0jBBgwFoAUXWxcUnFWbCn+zd8l/qUDblOUz8AwDQYJKnAAAgAiZS0MBQAD
MQD/b2PyNPLwBoIkRRCQ9Mq+xfhZ4LNK7ivLQ26OXGqRqFwUB1tq6wULtzqn4YdH
Lzg=
-----END CERTIFICATE-----
