Certificate:
    Data:
        Version: 3 (0x2)
        Serial Number: 250 (0xfa)
    Signature Algorithm: bign-with-hbelt
        Issuer: CN=www.mydom_5083.com, O=My Dom, Inc., C=US, ST=Oregon, L=Portland
        Validity
            Not Before: Oct  9 11:44:46 2014 GMT
            Not After : Oct  9 11:44:46 2015 GMT
        Subject: C=US, ST=Oregon, O=My Dom, Inc., CN=www.mydom.com
        Subject Public Key Info:
            Public Key Algorithm: bign-pubkey
                Public key: 7688D877568387BADE6C1E2AC7537924443A9FCEE9097677597D1856D37699816C0B7350D171B33D40BF01F3457680A11860AC97861A560D5C17D1D564488B54
                Parameter set: bign-curve256v1
        X509v3 extensions:
            X509v3 Basic Constraints: 
                CA:FALSE
            Netscape Comment: 
                OpenSSL Generated Certificate
            X509v3 Subject Key Identifier: 
                DB:AE:07:C3:90:F0:BA:7D:47:3A:57:09:C6:64:42:39:2A:0F:76:A1
            X509v3 Authority Key Identifier: 
                keyid:98:4C:42:6B:F1:B1:03:34:19:1D:1F:45:9D:00:09:DF:AD:FA:3F:E7

    Signature Algorithm: bign-with-hbelt
         ab:24:ad:34:c0:e9:0f:91:40:16:20:1f:cd:8c:68:5d:e1:b2:
         ef:ae:b7:e3:c2:43:64:6d:4a:a7:38:c5:5b:c4:00:58:c8:e0:
         c6:75:d3:2d:51:15:c3:ba:2f:ff:03:ae
-----BEGIN CERTIFICATE-----
MIICEDCCAcqgAwIBAgICAPowDQYJKnAAAgAiZS0MBQAwZTEbMBkGA1UEAwwSd3d3
Lm15ZG9tXzUwODMuY29tMRUwEwYDVQQKDAxNeSBEb20sIEluYy4xCzAJBgNVBAYT
AlVTMQ8wDQYDVQQIDAZPcmVnb24xETAPBgNVBAcMCFBvcnRsYW5kMB4XDTE0MTAw
OTExNDQ0NloXDTE1MTAwOTExNDQ0NlowTTELMAkGA1UEBhMCVVMxDzANBgNVBAgM
Bk9yZWdvbjEVMBMGA1UECgwMTXkgRG9tLCBJbmMuMRYwFAYDVQQDDA13d3cubXlk
b20uY29tMF0wGAYKKnAAAgAiZS0CAQYKKnAAAgAiZS0DAQNBAHaI2HdWg4e63mwe
KsdTeSREOp/O6Ql2d1l9GFbTdpmBbAtzUNFxsz1AvwHzRXaAoRhgrJeGGlYNXBfR
1WRIi1SjezB5MAkGA1UdEwQCMAAwLAYJYIZIAYb4QgENBB8WHU9wZW5TU0wgR2Vu
ZXJhdGVkIENlcnRpZmljYXRlMB0GA1UdDgQWBBTbrgfDkPC6fUc6VwnGZEI5Kg92
oTAfBgNVHSMEGDAWgBSYTEJr8bEDNBkdH0WdAAnfrfo/5zANBgkqcAACACJlLQwF
AAMxAKskrTTA6Q+RQBYgH82MaF3hsu+ut+PCQ2RtSqc4xVvEAFjI4MZ10y1RFcO6
L/8Drg==
-----END CERTIFICATE-----
