Certificate:
    Data:
        Version: 3 (0x2)
        Serial Number: 251 (0xfb)
    Signature Algorithm: bign-with-hbelt
        Issuer: CN=www.mydom_4485.com, O=My Dom, Inc., C=US, ST=Oregon, L=Portland
        Validity
            Not Before: Oct  9 11:45:39 2014 GMT
            Not After : Oct  9 11:45:39 2015 GMT
        Subject: C=US, ST=Oregon, O=My Dom, Inc., CN=www.mydom.com
        Subject Public Key Info:
            Public Key Algorithm: bign-pubkey
                Public key: 929489C5345073E3BD16ECB1387E12F5C0D4E58208539D8814DFD6C491168AADD0AA82CF0687363484FCB8B1C1282F57587FD1C1E8F6313257A18B7B04BA5220
                Parameter set: bign-curve256v1
        X509v3 extensions:
            X509v3 Basic Constraints: 
                CA:FALSE
            Netscape Comment: 
                OpenSSL Generated Certificate
            X509v3 Subject Key Identifier: 
                4E:C3:FA:9B:81:1B:47:F2:C8:1C:8E:C2:44:8C:D3:61:60:53:4B:30
            X509v3 Authority Key Identifier: 
                keyid:4D:37:68:63:C7:DB:A7:F4:CE:73:83:B8:74:38:35:C7:12:CB:FD:F8

    Signature Algorithm: bign-with-hbelt
         c2:16:e5:42:57:f3:a5:9c:e3:8e:4a:15:db:96:34:1b:42:1c:
         77:24:05:4c:07:8a:fe:62:9c:43:19:32:8c:b0:51:3f:6a:3b:
         fe:85:66:ea:a7:92:8b:84:9b:18:98:03
-----BEGIN CERTIFICATE-----
MIICEDCCAcqgAwIBAgICAPswDQYJKnAAAgAiZS0MBQAwZTEbMBkGA1UEAwwSd3d3
Lm15ZG9tXzQ0ODUuY29tMRUwEwYDVQQKDAxNeSBEb20sIEluYy4xCzAJBgNVBAYT
AlVTMQ8wDQYDVQQIDAZPcmVnb24xETAPBgNVBAcMCFBvcnRsYW5kMB4XDTE0MTAw
OTExNDUzOVoXDTE1MTAwOTExNDUzOVowTTELMAkGA1UEBhMCVVMxDzANBgNVBAgM
Bk9yZWdvbjEVMBMGA1UECgwMTXkgRG9tLCBJbmMuMRYwFAYDVQQDDA13d3cubXlk
b20uY29tMF0wGAYKKnAAAgAiZS0CAQYKKnAAAgAiZS0DAQNBAJKUicU0UHPjvRbs
sTh+EvXA1OWCCFOdiBTf1sSRFoqt0KqCzwaHNjSE/LixwSgvV1h/0cHo9jEyV6GL
ewS6UiCjezB5MAkGA1UdEwQCMAAwLAYJYIZIAYb4QgENBB8WHU9wZW5TU0wgR2Vu
ZXJhdGVkIENlcnRpZmljYXRlMB0GA1UdDgQWBBROw/qbgRtH8sgcjsJEjNNhYFNL
MDAfBgNVHSMEGDAWgBRNN2hjx9un9M5zg7h0ODXHEsv9+DANBgkqcAACACJlLQwF
AAMxAMIW5UJX86Wc445KFduWNBtCHHckBUwHiv5inEMZMoywUT9qO/6FZuqnkouE
mxiYAw==
-----END CERTIFICATE-----
