Certificate:
    Data:
        Version: 3 (0x2)
        Serial Number: 252 (0xfc)
    Signature Algorithm: bign-with-hbelt
        Issuer: CN=www.mydom_6827.com, O=My Dom, Inc., C=US, ST=Oregon, L=Portland
        Validity
            Not Before: Oct  9 11:45:57 2014 GMT
            Not After : Oct  9 11:45:57 2015 GMT
        Subject: C=US, ST=Oregon, O=My Dom, Inc., CN=www.mydom.com
        Subject Public Key Info:
            Public Key Algorithm: bign-pubkey
                Public key: E6BB9A610FD13AA8D5538CE6A799C33F3B2E73FEBA4649A3187CB78C1FA5D9FBCD80DF6C3C55C4351CF596C3C8399D18DE6BBCE2B21FE50A6BE94B55165A92C1
                Parameter set: bign-curve256v1
        X509v3 extensions:
            X509v3 Basic Constraints: 
                CA:FALSE
            Netscape Comment: 
                OpenSSL Generated Certificate
            X509v3 Subject Key Identifier: 
                F4:B2:62:43:12:66:F9:CC:44:ED:2B:B9:28:54:33:71:0D:E5:09:22
            X509v3 Authority Key Identifier: 
                keyid:EE:C3:B3:5B:8A:13:7E:3E:6F:60:03:48:E0:4C:14:48:A0:FD:3B:D8

    Signature Algorithm: bign-with-hbelt
         8d:29:bf:6c:24:9a:59:e7:c5:bf:cd:5c:18:89:12:47:2f:f3:
         c7:35:2d:a9:d3:e8:29:ab:80:31:a4:72:99:bd:10:05:b6:ed:
         98:76:6b:48:d2:a5:29:4f:22:be:eb:58
-----BEGIN CERTIFICATE-----
MIICEDCCAcqgAwIBAgICAPwwDQYJKnAAAgAiZS0MBQAwZTEbMBkGA1UEAwwSd3d3
Lm15ZG9tXzY4MjcuY29tMRUwEwYDVQQKDAxNeSBEb20sIEluYy4xCzAJBgNVBAYT
AlVTMQ8wDQYDVQQIDAZPcmVnb24xETAPBgNVBAcMCFBvcnRsYW5kMB4XDTE0MTAw
OTExNDU1N1oXDTE1MTAwOTExNDU1N1owTTELMAkGA1UEBhMCVVMxDzANBgNVBAgM
Bk9yZWdvbjEVMBMGA1UECgwMTXkgRG9tLCBJbmMuMRYwFAYDVQQDDA13d3cubXlk
b20uY29tMF0wGAYKKnAAAgAiZS0CAQYKKnAAAgAiZS0DAQNBAOa7mmEP0Tqo1VOM
5qeZwz87LnP+ukZJoxh8t4wfpdn7zYDfbDxVxDUc9ZbDyDmdGN5rvOKyH+UKa+lL
VRZaksGjezB5MAkGA1UdEwQCMAAwLAYJYIZIAYb4QgENBB8WHU9wZW5TU0wgR2Vu
ZXJhdGVkIENlcnRpZmljYXRlMB0GA1UdDgQWBBT0smJDEmb5zETtK7koVDNxDeUJ
IjAfBgNVHSMEGDAWgBTuw7NbihN+Pm9gA0jgTBRIoP072DANBgkqcAACACJlLQwF
AAMxAI0pv2wkmlnnxb/NXBiJEkcv88c1LanT6CmrgDGkcpm9EAW27Zh2a0jSpSlP
Ir7rWA==
-----END CERTIFICATE-----
