Certificate:
    Data:
        Version: 3 (0x2)
        Serial Number: 253 (0xfd)
    Signature Algorithm: bign-with-hbelt
        Issuer: CN=www.mydom_8989.com, O=My Dom, Inc., C=US, ST=Oregon, L=Portland
        Validity
            Not Before: Oct  9 11:46:06 2014 GMT
            Not After : Oct  9 11:46:06 2015 GMT
        Subject: C=US, ST=Oregon, O=My Dom, Inc., CN=www.mydom.com
        Subject Public Key Info:
            Public Key Algorithm: bign-pubkey
                Public key: FEFE5B4DC445CF9F1496676120B7D21E5C27F02D9F4D553B954FF5D2625800D6D3762602F1A33C556105352FA9B97273B09659FF6BAA70D74969347D2109AE9A
                Parameter set: bign-curve256v1
        X509v3 extensions:
            X509v3 Basic Constraints: 
                CA:FALSE
            Netscape Comment: 
                OpenSSL Generated Certificate
            X509v3 Subject Key Identifier: 
                E9:5D:89:3F:2B:35:77:BF:1D:A4:BB:D8:32:0E:95:60:8B:38:EE:83
            X509v3 Authority Key Identifier: 
                keyid:C5:C1:A2:1E:26:C0:44:D4:95:21:48:F0:E2:87:63:C2:F5:40:34:D6

    Signature Algorithm: bign-with-hbelt
         20:a5:f3:14:31:30:fc:d4:8a:9c:34:9f:2a:71:05:98:49:dd:
         51:aa:79:92:5f:5b:8c:59:11:00:7b:8b:23:48:22:91:af:a2:
         c3:e4:60:3b:70:39:c7:c0:82:6e:d8:d2
-----BEGIN CERTIFICATE-----
MIICEDCCAcqgAwIBAgICAP0wDQYJKnAAAgAiZS0MBQAwZTEbMBkGA1UEAwwSd3d3
Lm15ZG9tXzg5ODkuY29tMRUwEwYDVQQKDAxNeSBEb20sIEluYy4xCzAJBgNVBAYT
AlVTMQ8wDQYDVQQIDAZPcmVnb24xETAPBgNVBAcMCFBvcnRsYW5kMB4XDTE0MTAw
OTExNDYwNloXDTE1MTAwOTExNDYwNlowTTELMAkGA1UEBhMCVVMxDzANBgNVBAgM
Bk9yZWdvbjEVMBMGA1UECgwMTXkgRG9tLCBJbmMuMRYwFAYDVQQDDA13d3cubXlk
b20uY29tMF0wGAYKKnAAAgAiZS0CAQYKKnAAAgAiZS0DAQNBAP7+W03ERc+fFJZn
YSC30h5cJ/Atn01VO5VP9dJiWADW03YmAvGjPFVhBTUvqblyc7CWWf9rqnDXSWk0
fSEJrpqjezB5MAkGA1UdEwQCMAAwLAYJYIZIAYb4QgENBB8WHU9wZW5TU0wgR2Vu
ZXJhdGVkIENlcnRpZmljYXRlMB0GA1UdDgQWBBTpXYk/KzV3vx2ku9gyDpVgizju
gzAfBgNVHSMEGDAWgBTFwaIeJsBE1JUhSPDih2PC9UA01jANBgkqcAACACJlLQwF
AAMxACCl8xQxMPzUipw0nypxBZhJ3VGqeZJfW4xZEQB7iyNIIpGvosPkYDtwOcfA
gm7Y0g==
-----END CERTIFICATE-----
