Certificate:
    Data:
        Version: 3 (0x2)
        Serial Number: 254 (0xfe)
    Signature Algorithm: bign-with-hbelt
        Issuer: CN=www.mydom_5318.com, O=My Dom, Inc., C=US, ST=Oregon, L=Portland
        Validity
            Not Before: Oct  9 16:21:05 2014 GMT
            Not After : Oct  9 16:21:05 2015 GMT
        Subject: C=US, ST=Oregon, O=My Dom, Inc., CN=www.mydom.com
        Subject Public Key Info:
            Public Key Algorithm: bign-pubkey
                Public key: D469D2950AE892A822216530D1C9F1E826B424EE3360DFFB4E8AD56D161BF095BBC3158574F981B40731DEF840E2135213ADDA4FBC8F75755EE9D4D755C14C59
                Parameter set: bign-curve256v1
        X509v3 extensions:
            X509v3 Basic Constraints: 
                CA:FALSE
            Netscape Comment: 
                OpenSSL Generated Certificate
            X509v3 Subject Key Identifier: 
                48:5C:4B:BA:25:B5:06:D8:AA:CD:6A:40:84:D3:20:83:2F:9C:D4:14
            X509v3 Authority Key Identifier: 
                keyid:9F:98:BF:3D:7B:59:24:8A:14:65:B9:D2:78:DB:A6:30:B1:5E:43:37

    Signature Algorithm: bign-with-hbelt
         a1:73:5c:1b:4f:01:ef:66:94:50:e3:b0:c9:44:d3:40:8b:9a:
         21:c0:93:4c:1e:61:d6:e6:b3:86:28:ae:73:1e:49:63:ee:07:
         4b:52:3f:ee:82:ca:20:d5:ea:1d:d1:f5
-----BEGIN CERTIFICATE-----
MIICEDCCAcqgAwIBAgICAP4wDQYJKnAAAgAiZS0MBQAwZTEbMBkGA1UEAwwSd3d3
Lm15ZG9tXzUzMTguY29tMRUwEwYDVQQKDAxNeSBEb20sIEluYy4xCzAJBgNVBAYT
AlVTMQ8wDQYDVQQIDAZPcmVnb24xETAPBgNVBAcMCFBvcnRsYW5kMB4XDTE0MTAw
OTE2MjEwNVoXDTE1MTAwOTE2MjEwNVowTTELMAkGA1UEBhMCVVMxDzANBgNVBAgM
Bk9yZWdvbjEVMBMGA1UECgwMTXkgRG9tLCBJbmMuMRYwFAYDVQQDDA13d3cubXlk
b20uY29tMF0wGAYKKnAAAgAiZS0CAQYKKnAAAgAiZS0DAQNBANRp0pUK6JKoIiFl
MNHJ8egmtCTuM2Df+06K1W0WG/CVu8MVhXT5gbQHMd74QOITUhOt2k+8j3V1XunU
11XBTFmjezB5MAkGA1UdEwQCMAAwLAYJYIZIAYb4QgENBB8WHU9wZW5TU0wgR2Vu
ZXJhdGVkIENlcnRpZmljYXRlMB0GA1UdDgQWBBRIXEu6JbUG2KrNakCE0yCDL5zU
FDAfBgNVHSMEGDAWgBSfmL89e1kkihRludJ426YwsV5DNzANBgkqcAACACJlLQwF
AAMxAKFzXBtPAe9mlFDjsMlE00CLmiHAk0weYdbms4YornMeSWPuB0tSP+6CyiDV
6h3R9Q==
-----END CERTIFICATE-----
