Certificate:
    Data:
        Version: 3 (0x2)
        Serial Number: 255 (0xff)
    Signature Algorithm: bign-with-hbelt
        Issuer: CN=www.mydom_7346.com, O=My Dom, Inc., C=US, ST=Oregon, L=Portland
        Validity
            Not Before: Oct  9 16:21:30 2014 GMT
            Not After : Oct  9 16:21:30 2015 GMT
        Subject: C=US, ST=Oregon, O=My Dom, Inc., CN=www.mydom.com
        Subject Public Key Info:
            Public Key Algorithm: bign-pubkey
                Public key: 15F5C1B6A5A756AF4BBF1B3FE255FB62D1BA4C1ADB5FCBE17915019F11E2D1258B4443D8EE11DF42620AA8AAFFEE63C152041A952185313154F17A5D6B80917B
                Parameter set: bign-curve256v1
        X509v3 extensions:
            X509v3 Basic Constraints: 
                CA:FALSE
            Netscape Comment: 
                OpenSSL Generated Certificate
            X509v3 Subject Key Identifier: 
                68:F2:71:10:69:4E:DB:B0:9A:B9:16:FA:29:90:D7:78:50:71:01:B7
            X509v3 Authority Key Identifier: 
                keyid:98:46:EE:0D:FF:A6:4E:F7:3A:B8:95:F3:03:4D:1D:84:36:E3:CC:6D

    Signature Algorithm: bign-with-hbelt
         42:08:1f:d2:0e:e2:3d:43:06:2f:8f:f7:09:be:6d:c6:aa:de:
         d0:2d:17:0d:9e:2b:92:e7:c7:6d:1e:f4:bf:99:20:af:e0:d9:
         bf:02:14:f0:75:05:af:3b:75:ec:53:41
-----BEGIN CERTIFICATE-----
MIICEDCCAcqgAwIBAgICAP8wDQYJKnAAAgAiZS0MBQAwZTEbMBkGA1UEAwwSd3d3
Lm15ZG9tXzczNDYuY29tMRUwEwYDVQQKDAxNeSBEb20sIEluYy4xCzAJBgNVBAYT
AlVTMQ8wDQYDVQQIDAZPcmVnb24xETAPBgNVBAcMCFBvcnRsYW5kMB4XDTE0MTAw
OTE2MjEzMFoXDTE1MTAwOTE2MjEzMFowTTELMAkGA1UEBhMCVVMxDzANBgNVBAgM
Bk9yZWdvbjEVMBMGA1UECgwMTXkgRG9tLCBJbmMuMRYwFAYDVQQDDA13d3cubXlk
b20uY29tMF0wGAYKKnAAAgAiZS0CAQYKKnAAAgAiZS0DAQNBABX1wbalp1avS78b
P+JV+2LRukwa21/L4XkVAZ8R4tEli0RD2O4R30JiCqiq/+5jwVIEGpUhhTExVPF6
XWuAkXujezB5MAkGA1UdEwQCMAAwLAYJYIZIAYb4QgENBB8WHU9wZW5TU0wgR2Vu
ZXJhdGVkIENlcnRpZmljYXRlMB0GA1UdDgQWBBRo8nEQaU7bsJq5FvopkNd4UHEB
tzAfBgNVHSMEGDAWgBSYRu4N/6ZO9zq4lfMDTR2ENuPMbTANBgkqcAACACJlLQwF
AAMxAEIIH9IO4j1DBi+P9wm+bcaq3tAtFw2eK5Lnx20e9L+ZIK/g2b8CFPB1Ba87
dexTQQ==
-----END CERTIFICATE-----
